ax:_glClearStencil
ST:__ZNSt3__26vectorIiNS_9allocatorIiEEE26__swap_out_circular_bufferERNS_14__split_bufferIiRS2_EE
xLd:__ZTv0_n12_NSt3__210ostrstreamD1Ev
ona:__ZN6ginput12InputManager11touchCancelEiiii
Fed:__ZNSt3__213basic_istreamIcNS_11char_traitsIcEEE7getlineEPcic
BYc:_mbrlen
dt:_emscripten_glUniform4iv
Eaa:__ZNSt3__25stackI7Matrix4NS_5dequeIS1_NS_9allocatorIS1_EEEEED2Ev
Ela:__ZNSt3__213__vector_baseIP17ginput_TouchEventNS_9allocatorIS2_EEED2Ev
wbb:__ZN16EventTypeVisitor5visitEP10TimerEvent
cJb:_term_destination
nDc:_tracks_in_pattern_alloc
_ja:__ZNSt3__26vectorINS_4pairINS_12basic_stringIcNS_11char_traitsIcEENS_9allocatorIcEEEEfEENS5_IS8_EEE18__construct_at_endEj
tCa:__ZN16b2ContactManager7CollideEv
YEd:__ZNKSt3__212basic_stringIcNS_11char_traitsIcEENS_9allocatorIcEEE5rfindENS_17basic_string_viewIcS2_EEj
SEa:__ZN9b2Fixture14DestroyProxiesEP12b2BroadPhase
Jc:ClassHandle
aUa:__ZN12Path2DBinder10setSvgPathEP9lua_State
MVb:_luaO_str2d
fl:__emval_get_property
JLa:__ZNK7b2World13GetTreeHeightEv
gnb:__ZN14GGAudioManager7preTickEv
Tnd:__ZNKSt3__217moneypunct_bynameIwLb1EE16do_positive_signEv
e$c:_drand48
K$a:__ZN12Box2DBinder221b2Contact_getFrictionEP9lua_State
PRa:__ZNSt3__26__treeINS_12__value_typeINS_12basic_stringIcNS_11char_traitsIcEENS_9allocatorIcEEEEdEENS_19__map_value_compareIS7_S8_NS_4lessIS7_EELb1EEENS5_IS8_EEED2Ev
nPa:__ZN15b2ParticleGroupC2Ev
Cv:_emscripten_webgl_create_context
Pzd:__ZNSt3__26localeC2ERKS0_
$J:__ZN9Particles6setTtlEii
cBd:__ZdlPvRKSt9nothrow_t
N1c:___pthread_self_616
KN:__ZNKSt3__26vectorI6Point2IfENS_9allocatorIS2_EEE8max_sizeEv
fud:__ZNKSt3__27num_putIwNS_19ostreambuf_iteratorIwNS_11char_traitsIwEEEEE3putES4_RNS_8ios_baseEwPKv
KJd:__ZNSt3__25stollERKNS_12basic_stringIwNS_11char_traitsIwEENS_9allocatorIwEEEEPji
wD:_pthread_attr_init
EYb:__ZL14check_conflictP8LexStateP10LHS_assignP7expdesc
QP:__ZNSt3__213__vector_baseIN7TileMap6TileIdENS_9allocatorIS2_EEED2Ev
O3a:__ZN12Box2DBinder219b2World_DestroyBodyEP9lua_State
Jec:_bc_give
bMb:_grayscale_convert_156
fnc:_af_cjk_hints_init
dwb:_png_info_init_3
CIb:_median_cut
h3a:__ZN12Box2DBinder221b2Body_getWorldVectorEP9lua_State
fGb:_jpeg_calc_output_dimensions
_z:_glewGetErrorString
UY:__ZN13ScreenManager4tickEv
rXa:__ZN17GeolocationBinder20startUpdatingHeadingEP9lua_State
La:invoke_iiiiiid
e6:__ZN5Timer5pauseEv
Hmc:_FT_Set_Charmap
wfd:__ZNSt3__213basic_istreamIwNS_11char_traitsIwEEE3getERNS_15basic_streambufIwS2_EEw
bBd:__ZdlPv
$Va:__ZN10MeshBinder16setPrimitiveTypeEP9lua_State
QPb:__ZNK11CPVRTString13find_first_ofERKS_j
X2b:__ZL7pushIntP9lua_Statex
gOd:__ZNSt14overflow_errorD0Ev
rsd:__ZNKSt3__215__codecvt_utf16IDsLb1EE9do_lengthER11__mbstate_tPKcS5_j
MMb:_start_pass_coef_181
Sld:__ZNKSt3__215time_get_bynameIwNS_19istreambuf_iteratorIwNS_11char_traitsIwEEEEE3__xEv
nDa:__ZN15b2CircleContactC2EP9b2FixtureS1_
fEc:_period_to_note
n5a:__ZN15GGAccelerometer5startEv
sf:_SDL_LoadBMP_RW
Qnb:__ZN14GGAudioManager26BackgroundChannelSetVolumeEmf
rjb:__ZNSt3__26__treeINS_12__value_typeImPN9g_private19RenderTargetElementEEENS_19__map_value_compareImS5_NS_4lessImEELb1EEENS_9allocatorIS5_EEE16__construct_nodeIJRKNS_21piecewise_construct_tENS_5tupleIJRKmEEENSH_IJEEEEEENS_10unique_ptrINS_11__tree_nodeIS5_PvEENS_22__tree_node_destructorINSA_ISP_EEEEEEDpOT_
EGc:_xmp_get_frame_info
yuc:_cf2_hintmap_insertHint
vC:_llvm_log2_f32
qic:_tt_cmap4_char_map_binary
n3b:__ZL9LtostringP9lua_State
pn:_alcCreateContext
Aqc:_Ins_WCVTP
bOa:__ZNSt3__214__rotate_rightIPiEET_S2_S2_
zUd:mftCall_iiiiiii
a5a:__ZN20EventContactListener22dispatchEventParticle2ERK9EventTypeI5EventEP16b2ParticleSystemii
Y9b:_rand_xorshift32
Ooa:__ZNSt3__212__deque_baseINS_4pairIjjEENS_9allocatorIS2_EEED2Ev
z3a:__ZN6b2Body17SetAngularDampingEf
mvb:_gz_reset
Fbb:__ZN14EventBinderMapC2Ev
H6b:__ZL9ll_moduleP9lua_State
ymd:__ZNKSt3__210moneypunctIcLb0EE14do_frac_digitsEv
R6b:__ZL10mkfuncnameP9lua_StatePKc
nkd:__ZNKSt3__220__time_get_c_storageIcE3__XEv
J8c:__ZNSt3__224__libcpp_debug_exceptionD0Ev
jJa:__ZNK12_GLOBAL__N_117FixedSetAllocator8GetCountEv
oDa:__ZN15b2GrowableStackIiLi256EEC2Ev
IXc:_grantpt
Aga:__ZN17ogl2ShaderTextureC2EN13ShaderTexture6FormatENS0_7PackingEiiPKvNS0_4WrapENS0_9FilteringE
y3a:__ZN6b2Body15SetGravityScaleEf
rr:_emscripten_glFlush
ZL:__ZNSt3__219__tree_right_rotateIPNS_16__tree_node_baseIPvEEEEvT_
H1c:___ftello
bUc:_llrintf
o_a:__ZN9DibBinderC2EP9lua_State
RR:__ZN13TexturePackerC2Ev
hR:__ZN5GMesh16resizeColorArrayEj
iXd:_glGenTextures__wrapper
qcd:__ZNKSt3__29basic_iosIwNS_11char_traitsIwEEEntEv
NGd:__ZNSt3__212basic_stringIwNS_11char_traitsIwEENS_9allocatorIwEEE6rbeginEv
nE:_pthread_rwlock_trywrlock
vda:__ZN7Matrix45scaleEf
jWd:_emscripten_set_wheel_callback__wrapper
jab:__ZN4SlotI13TimerListener10TimerEventE4callEP5Event
xjc:_load_post_names
pCd:__ZNSt3__212basic_stringIcNS_11char_traitsIcEENS_9allocatorIcEEEC2Ev
O3:__ZNSt3__214__split_bufferIN8TTBMFont8FontFaceERNS_9allocatorIS2_EEEC2EjjS5_
i4c:_bzero
Mo:_eglWaitClient
Lpa:__ZN21GGSampleOpenALManager11ChannelStopEm
eXb:_lua_pushfstring
YMb:__ZN11CPVRTStringD0Ev
$4c:_wcswcs
dzb:_png_malloc_default
Goa:__ZNSt3__26__treeINS_12__value_typeImPN12_GLOBAL__N_121GGStreamOpenALManager5SoundEEENS_19__map_value_compareImS6_NS_4lessImEELb1EEENS_9allocatorIS6_EEE12__find_equalImEERPNS_16__tree_node_baseIPvEERPNS_15__tree_end_nodeISI_EERKT_
GRd:__ZN10__cxxabiv112_GLOBAL__N_111string_pairC2ILj7EEERAT__Kc
lu:_emscripten_set_blur_callback
Izd:__ZNSt3__26locale5__imp12install_fromINS_8time_getIwNS_19istreambuf_iteratorIwNS_11char_traitsIwEEEEEEEEvRKS1_
Ku:_emscripten_set_mouseout_callback
JWc:_get_current_dir_name
mub:_z_crc32_combine64
YLc:___crypt_r
tba:__ZN6Sprite14clearBlendFuncEv
nyd:__ZNSt3__212_GLOBAL__N_14makeINS_8messagesIwEEjEERT_T0_
hrc:_Ins_WCVTF
$0a:__ZN12b2WheelJoint21SetSpringDampingRatioEf
dSb:_CheckForRightSplice
KFd:__ZNSt3__212basic_stringIcNS_11char_traitsIcEENS_9allocatorIcEEE19__move_assign_allocERS5_
p1b:__ZL11luaB_rawsetP9lua_State
mfb:_AES128_CBC_decrypt_buffer
Wkc:_sfnt_stream_close
_mc:_af_glyph_hints_init
x8c:__ZNSt3__26chrono12system_clock11from_time_tEl
pRb:_MakeDormant
B8:__ZNSt3__26__treeIP6SpriteNS_4lessIS2_EENS_9allocatorIS2_EEE12__find_equalIS2_EERPNS_16__tree_node_baseIPvEERPNS_15__tree_end_nodeISC_EERKT_
Re:_SDL_Has3DNow
eVb:_luaV_equalval
kkd:__ZNKSt3__220__time_get_c_storageIcE3__cEv
mXb:_lua_getfield
J9c:__ZNSt3__217__assoc_sub_stateD2Ev
FZb:__ZL15adjustlocalvarsP8LexStatei
lNb:__ZL12deinitializev
Yg:__Exit
nTa:__ZN11PixelBinder13setDimensionsEP9lua_State
CYb:__ZL8compoundP8LexStateP10LHS_assign
mjc:_tt_face_find_bdf_prop
cV:___cxx_global_var_init_104
W6b:__ZL6ll_symP9lua_StatePvPKc
wNb:__ZNSt3__25dequeIP12QueueElementNS_9allocatorIS2_EEE9pop_frontEv
Xqa:__GLOBAL__sub_I_platform_js_cpp
Pm:_alListenerfv
uDa:__ZNSt3__27__sort4IRPFbRK6b2PairS3_EPS1_EEjT0_S8_S8_S8_T_
H6a:__ZN13TextureBinderC2EP9lua_State
xIb:_fill_inverse_cmap
w$b:_lua_gethookcount
FZa:__ZN17ApplicationBinder12isPlayerModeEP9lua_State
n2c:_pop_arg_689
ahc:_FT_Outline_New
q9b:__ZN6snappy12LittleEndian8ToHost32Ej
qK:__ZNSt3__213__vector_baseIP6SpriteNS_9allocatorIS2_EEED2Ev
OYc:_accept4
sPb:__ZNK11CPVRTString7compareERKS_
VJc:_strtoull
wBb:_png_read_end
D7c:__ZNSt3__27__sort3IRNS_6__lessImmEEPmEEjT0_S5_S5_T_
zka:__ZN12luaExceptionC2EPKc
Pnb:__ZN14GGAudioManager26BackgroundChannelIsPlayingEm
Hpd:__ZNSt3__214codecvt_bynameIDic11__mbstate_tED0Ev
P5:__ZNSt3__26__treeIP15EventDispatcherNS_4lessIS2_EENS_9allocatorIS2_EEE7destroyEPNS_11__tree_nodeIS2_PvEE
iR:__ZN5GMesh28resizeTextureCoordinateArrayEj
duc:_cf2_arrstack_getPointer
Wq:_emscripten_glDepthRange
oTa:__ZN11PixelBinder13getDimensionsEP9lua_State
h0c:_tre_set_empty
MZ:__ZNSt3__23mapIiiNS_4lessIiEENS_9allocatorINS_4pairIKiiEEEEED2Ev
Hd:_Mix_SetPosition
_g:__Unwind_DeleteException
qrb:__ZNSt3__26__treeINS_12__value_typeIi5DriveEENS_19__map_value_compareIiS3_NS_4lessIiEELb1EEENS_9allocatorIS3_EEE7destroyEPNS_11__tree_nodeIS3_PvEE
bPa:__ZZN16b2ParticleSystem33CreateParticlesWithShapesForGroupEPKPK7b2ShapeiRK18b2ParticleGroupDefRK11b2TransformENK14CompositeShape15ComputeDistanceESA_RK6b2Vec2PfPSC_i
ond:__ZNKSt3__217moneypunct_bynameIcLb0EE14do_frac_digitsEv
Ptc:_cf2_arrstack_getBuffer
Gid:__ZNSt3__215__num_get_floatIfEET_PKcS3_Rj
k9b:__ZN6snappy17SnappyArrayWriter13TryFastAppendEPKcjj
Ci:___syscall180
Di:___syscall181
Ei:___syscall183
$Oa:__ZZN16b2ParticleSystem33CreateParticlesWithShapesForGroupEPKPK7b2ShapeiRK18b2ParticleGroupDefRK11b2TransformENK14CompositeShape13GetChildCountEv
OWb:_lua_rawequal
XY:__ZNK6Sprite7visibleEv
a1:__ZN8SlotBaseC2ERKS_
tab:__ZN21EventDispatcherBinder19removeEventListenerEP9lua_State
sHc:_hio_open_file
eKc:_strtoul
bA:_glewInit
Cod:__ZNSt3__28messagesIcED2Ev
$Hc:__ZN12_GLOBAL__N_1L20register_memory_viewIcEEvPKc
$Ld:__ZNKSt3__212__do_message7messageEi
npb:__ZL7s_lseekiii
jna:__ZNSt3__26__treeINS_12__value_typeIj7PointerEENS_19__map_value_compareIjS3_NS_4lessIjEELb1EEENS_9allocatorIS3_EEE4findIjEENS_15__tree_iteratorIS3_PNS_11__tree_nodeIS3_PvEEiEERKT_
gNc:_hashmd
Wbd:__ZNSt3__29basic_iosIcNS_11char_traitsIcEEE3tieEPNS_13basic_ostreamIcS2_EE
oQa:__ZN14LuaApplication12deinitializeEv
Pxd:__ZNSt3__212_GLOBAL__N_14makeINS_10moneypunctIcLb0EEEjEERT_T0_
Ydd:__ZNSt3__213basic_istreamIcNS_11char_traitsIcEEEC1EOS3_
Gbc:_frame_fuzzy_find
jYb:__ZL14getjumpcontrolP9FuncStatei
NO:__ZNKSt3__26vectorIN11TexturePack4RectENS_9allocatorIS2_EEE8max_sizeEv
Uja:__ZrsR10ByteBufferRf
ewa:__ZNK13b2CircleShape11ComputeMassEP10b2MassDataf
Qja:__ZrsR10ByteBufferRc
Ldb:_tlsf_create
JOb:__Z22util_number_is_power_2j
Rja:__ZrsR10ByteBufferRi
D0b:_luaL_addvalue
NNa:__ZNK6b2Vec24SkewEv
XLd:__ZNKSt3__214error_category23default_error_conditionEi
ga:ftCall_did
Bhc:_Sort
RQc:_isprint_l
lXa:__ZN17GeolocationBinder12setThresholdEP9lua_State
N5:__ZNSt3__213__vector_baseIP8SlotBaseNS_9allocatorIS2_EEED2Ev
ia:ftCall_dii
VN:__ZNSt3__214__split_bufferI6Point2IfERNS_9allocatorIS2_EEEC2EjjS5_
fN:__ZN12SplashScreen6doDrawERK7Matrix4ffff
Hda:__ZNSt3__213__vector_baseIN13ShaderProgram12ConstantDescENS_9allocatorIS2_EEED2Ev
Ttc:_cff_blend_check_vector
wIb:_finish_pass2
hbb:__ZN16PushEventVisitor5visitEP13CompleteEvent
Bqd:__ZNKSt3__28numpunctIcE16do_thousands_sepEv
ptc:_cf2_decoder_parse_charstrings
ala:__ZN18ApplicationManager10foregroundEv
V7a:__ZN12SpriteBinder9getMatrixEP9lua_State
uHa:__ZL18IsSignificantForceRK6b2Vec2
uwa:__ZN17b2ContactListener10EndContactEP16b2ParticleSystemii
_w:_glClearDepth
_2:__ZN8TTBMFont11getAscenderEv
eua:_JSPlayer_writeFile
Via:__ZL12kh_init_pathv
rrb:__ZNSt3__24pairIKi5DriveED2Ev
A8c:__ZNSt3__218condition_variable10notify_oneEv
mS:__ZNSt3__26vectorI8RectSizeNS_9allocatorIS1_EEE26__swap_out_circular_bufferERNS_14__split_bufferIS1_RS3_EE
Wob:__ZL10mpg123readPvS_j
tAb:_png_handle_sCAL
ITb:_unzOpenCurrentFile
pic:_tt_cmap4_next
dtd:__ZNKSt3__220__codecvt_utf8_utf16IDsE6do_outER11__mbstate_tPKDsS5_RS5_PcS7_RS7_
YNc:___iswalpha_l
M:Math_atan2
tdb:_tlsf_align_size
sP:__ZN7Matrix43setEPKf
U4a:__ZN20EventContactListener10EndContactEP9b2Contact
ALc:_cproj
HGc:_read24b
n$a:__ZN22b2ParticleSystemSprite8GetWorldEv
Yaa:__ZNSt3__214__split_bufferIP9_cliprectNS_9allocatorIS2_EEE10push_frontEOS2_
Fna:__ZN14GGAudioManager20AdvanceStreamBuffersEv
rwc:_cff_cmap_unicode_done
GGc:_read24l
ZIc:__ZN10emscripten8internal6TypeIDItE3getEv
LK:__ZNK15EventDispatcher16hasEventListenerI13KeyboardEventEEbRK9EventTypeIT_E
o2b:__ZL7io_readP9lua_State
gS:__ZNSt3__26vectorI4RectNS_9allocatorIS1_EEE26__swap_out_circular_bufferERNS_14__split_bufferIS1_RS3_EE
gza:__ZN13b2PulleyJoint24SolvePositionConstraintsERK12b2SolverData
xf:_SDL_LowerBlit
qVc:_S
_oc:_ft_var_apply_tuple
udb:_tlsf_block_size_min
w1:__ZN13GRenderTarget14prepareForDrawEv
hsb:_g__swbuf
Zib:__ZN9g_private14TextureManager14reloadTexturesEv
Hzc:_ft_stroke_border_conicto
uYc:_shm_unlink
v6a:__ZN16BitmapDataBinder9setRegionEP9lua_State
r1b:__ZL12luaB_setfenvP9lua_State
rKb:_jinit_marker_writer
iMc:_setup_salt
hYa:__ZNSt3__214__split_bufferI12ghttp_HeaderRNS_9allocatorIS1_EEE18__construct_at_endEj
gla:__ZN20GGApplicationManager11addCallbackEPFviPvS0_ES0_
w2b:__ZL8test_eofP9lua_StateP8g__sFILE
NXc:_setpriority
hhb:__ZL11init_sourceP22jpeg_decompress_struct
qEd:__ZNSt3__212basic_stringIcNS_11char_traitsIcEENS_9allocatorIcEEE6insertEjRKS5_jj
I1a:__ZN12Box2DBinder228b2PrismaticJoint_enableLimitEP9lua_State
_oa:__ZNSt3__26__treeINS_12__value_typeImPN12_GLOBAL__N_121GGStreamOpenALManager7ChannelEEENS_19__map_value_compareImS6_NS_4lessImEELb1EEENS_9allocatorIS6_EEE12__find_equalImEERPNS_16__tree_node_baseIPvEERPNS_15__tree_end_nodeISI_EERKT_
Ad:_Mix_QuerySpec
f7c:__ZNSt3__27__sort3IRNS_6__lessIttEEPtEEjT0_S5_S5_T_
SSa:__ZN15ParticlesBinder16getParticleDecayEP9lua_State
g7b:__ZN8pystring4findERKNSt3__212basic_stringIcNS0_11char_traitsIcEENS0_9allocatorIcEEEES8_ii
p4:__ZNSt3__26vectorI6Point2IfENS_9allocatorIS2_EEE21__push_back_slow_pathIS2_EEvOT_
M1c:___fgetwc_unlocked_internal
K7c:__ZNSt3__27__sort4IRNS_6__lessIxxEEPxEEjT0_S5_S5_S5_T_
E7:__ZNK14TimerContainer17isAllTimersPausedEv
pKc:_hypotf
FKa:__ZNSt3__218__insertion_sort_3IRPFbRKN12_GLOBAL__N_115LightweightPairIP9b2FixtureiEES7_EPS5_EEvT0_SC_T_
OXc:___setrlimit
_bc:_INT123_do_rva
TXa:__ZN11GGUrlLoader4postEPKcP12ghttp_HeaderPKvj
qlc:_inflate_blocks_new
UKd:__ZNKSt3__212_GLOBAL__N_114initial_stringINS_12basic_stringIwNS_11char_traitsIwEENS_9allocatorIwEEEEmLb0EEclEv
mzd:__ZNSt3__26locale5__imp12install_fromINS_7collateIwEEEEvRKS1_
TWc:___fmodeflags
lob:_gaudio_ChannelGetVolume
M0c:_select
mrd:__ZNKSt3__214__codecvt_utf8IwE13do_max_lengthEv
DPb:__ZNK11CPVRTString4copyEPcjj
RVb:__ZL12call_orderTMP9lua_StatePK10lua_TValueS3_3TMS
nKc:_sq
Ykb:__ZNSt3__214__split_bufferIPN6gevent12EventManager17EventQueueElementENS_9allocatorIS4_EEED2Ev
Qlb:__ZNSt3__26__treeINS_12__value_typeImPN14GGSoundManager5SoundEEENS_19__map_value_compareImS5_NS_4lessImEELb1EEENS_9allocatorIS5_EEED2Ev
RJc:_strlwr
Sha:__ZL20get_quadratic_boundsdddddddPdS_S_S_
l6a:__ZN12BitmapBinder8destructEP9lua_State
Flb:_g_iclock
zBd:__ZNSt3__213random_deviceclEv
KXa:__ZN15UrlLoaderBinder8setProxyEP9lua_State
pAa:__ZN6b2Draw10ClearFlagsEj
mmc:_af_glyph_hints_align_edge_points
Lxa:__Z5b2AbsIfET_S0_
SOc:_strcoll
Khd:__ZNSt3__210__stdinbufIcE9underflowEv
FOc:___towlower_l
uFc:_smix_stereo_16bit_spline
Qoa:__ZNSt3__26__treeIPN12_GLOBAL__N_121GGStreamOpenALManager7ChannelENS_4lessIS4_EENS_9allocatorIS4_EEE4findIS4_EENS_15__tree_iteratorIS4_PNS_11__tree_nodeIS4_PvEEiEERKT_
XGb:_start_pass
$Nc:_iswcntrl
BBb:_png_set_strip_alpha
y9c:__ZNSt13exception_ptrC2ERKS_
ckc:_tt_face_get_kerning
ckb:__ZN6gevent12EventManager4tickEv
rab:__ZN21EventDispatcherBinder8destructEP9lua_State
_Oc:_fcntl
s_:__ZL11easeOutCircd
eAc:_hash_init
pdb:_tlsf_block_size
Uod:__ZNSt3__2L19utf8_to_ucs4_lengthEPKhS1_jmNS_12codecvt_modeE
dzc:_FT_Stroker_Set
$nb:_gaudio_SoundCreateFromFile
pJd:__ZNSt3__212_GLOBAL__N_117as_integer_helperIlNS_12basic_stringIcNS_11char_traitsIcEENS_9allocatorIcEEEEPFlPKcPPciEEET_RKS7_RKT0_PjiT1_
V2a:__ZN12Box2DBinder215b2Body_isActiveEP9lua_State
Xoa:__ZNSt3__26__treeIPN12_GLOBAL__N_121GGStreamOpenALManager7ChannelENS_4lessIS4_EENS_9allocatorIS4_EEE25__emplace_unique_key_argsIS4_JRKS4_EEENS_4pairINS_15__tree_iteratorIS4_PNS_11__tree_nodeIS4_PvEEiEEbEERKT_DpOT0_
Qcb:__ZN14LuaApplication17disableExceptionsEv
qub:_fixedtables
yXb:_lua_setfenv
hTb:_unzOpenInternal
R3a:__ZN12Box2DBinder217b2World_QueryAABBEP9lua_State
I6b:__ZL10ll_requireP9lua_State
yua:__ZNK10emscripten8internal12WithPoliciesIJEE11ArgTypeListIJvNS_11memory_viewIhEEEE8getTypesEv
f2:__ZN6TTFont7getFaceEiRj
OH:FUNCTION_TABLE_vidi
Gp:_emscripten_force_exit
EH:FUNCTION_TABLE_vidd
bNb:__ZN6snappy6SourceD2Ev
yGd:__ZNSt3__212basic_stringIwNS_11char_traitsIwEENS_9allocatorIwEEE13__move_assignERS5_NS_17integral_constantIbLb1EEE
Q4c:_wcscspn
IBc:_FT_Face_GetCharsOfVariant
bad:__ZNSt3__27promiseIvED2Ev
agc:_mpg123_seek_frame
t_c:_poll
rBc:_FT_Attach_Stream
$0:__ZNSt3__214__split_bufferIP8SlotBaseRNS_9allocatorIS2_EEED2Ev
j7:__ZNSt3__26vectorIP5TimerNS_9allocatorIS2_EEE18__construct_at_endIPS2_EENS_9enable_ifIXsr21__is_forward_iteratorIT_EE5valueEvE4typeES9_S9_j
Azd:__ZNSt3__26locale5__imp12install_fromINS_9money_putIwNS_19ostreambuf_iteratorIwNS_11char_traitsIwEEEEEEEEvRKS1_
RW:__ZNSt3__218__insertion_sort_3IRNS_6__lessIN11Application10ImageScaleES3_EEPS3_EEvT0_S7_T_
K0:__ZNSt3__26__treeINS_12__value_typeIiiEENS_19__map_value_compareIiS2_NS_4lessIiEELb1EEENS_9allocatorIS2_EEE13__lower_boundIiEENS_15__tree_iteratorIS2_PNS_11__tree_nodeIS2_PvEEiEERKT_SF_PNS_15__tree_end_nodeIPNS_16__tree_node_baseISD_EEEE
xp:_emscripten_create_worker
SNd:__ZNSt13bad_exceptionD0Ev
TRc:_wcsxfrm
FBc:_FT_Face_GetCharVariantIsDefault
PWc:_lockf
NXd:b63
T_a:__ZN12Box2DBinder215getWeldJointDefEP9lua_State
OTa:__ZN14ViewportBinder10getContentEP9lua_State
oh:___atomic_store_8
hxb:_png_ascii_from_fixed
goc:_tt_size_request
qNd:__ZNK10__cxxabiv117__class_type_info16search_below_dstEPNS_19__dynamic_cast_infoEPKvib
KIc:__ZN10emscripten8internal11LightTypeIDINSt3__212basic_stringIwNS2_11char_traitsIwEENS2_9allocatorIwEEEEE3getEv
RTc:_sin_pi_320
O2b:_luaopen_package
ap:_emscripten_async_call
_nb:_gaudio_Cleanup
Yf:_SDL_SetWindowFullscreen
lIc:__ZN10emscripten8internal6TypeIDINS_11memory_viewIeEEE3getEv
VGa:__ZN15b2ParticleGroup7GetNextEv
Bqb:__ZN8GGPlugin4mainEP9lua_Statei
DAb:_png_set_tIME
Njb:__ZNSt3__26__treeINS_12__value_typeImPN9g_private14TextureManager18TempTextureElementEEENS_19__map_value_compareImS6_NS_4lessImEELb1EEENS_9allocatorIS6_EEE4findImEENS_15__tree_iteratorIS6_PNS_11__tree_nodeIS6_PvEEiEERKT_
hPa:__ZN11b2Transform3SetERK6b2Vec2f
a7b:__ZN8pystring12_GLOBAL__N_116split_whitespaceERKNSt3__212basic_stringIcNS1_11char_traitsIcEENS1_9allocatorIcEEEERNS1_6vectorIS7_NS5_IS7_EEEEi
Xqc:_Ins_SDB
Cub:_z_inflateGetDictionary
iN:__ZN11Application17getTextureManagerEv
q_:__ZL13easeOutInCircd
mgb:__ZNSt3__23mapIdNS_6vectorIiNS_9allocatorIiEEEENS_4lessIdEENS2_INS_4pairIKdS4_EEEEED2Ev
zHc:_hio_tell
XRc:___lctrans_cur
Yqc:_Ins_SDS
qFd:__ZNKSt3__212basic_stringIcNS_11char_traitsIcEENS_9allocatorIcEEE16find_last_not_ofERKS5_j
ncc:_process_comment
Djb:_gtexture_TempTextureCreate
a8c:__ZNSt3__27__sort4IRNS_6__lessIddEEPdEEjT0_S5_S5_S5_T_
avc:_cf2_getVStore
edc:_INT123_synth_1to1
gd:_Mix_FreeMusic
Qhc:_FT_MulDiv
oUb:__ZL6atomicP9lua_State
Mnd:__ZNKSt3__217moneypunct_bynameIwLb0EE13do_neg_formatEv
Bzc:_ft_stroke_border_moveto
mnd:__ZNKSt3__217moneypunct_bynameIcLb0EE16do_positive_signEv
_xd:__ZNSt3__26locale5__imp7installINS_9money_getIwNS_19istreambuf_iteratorIwNS_11char_traitsIwEEEEEEEEvPT_
SJ:__ZNSt3__214__split_bufferIfRNS_9allocatorIfEEEC2EjjS3_
jy:_glGetFloatv
zfc:_INT123_make_conv16to8_table
JVc:___emscripten_pthread_data_constructor
urb:__ZNSt3__26__treeINS_12basic_stringIcNS_11char_traitsIcEENS_9allocatorIcEEEENS_4lessIS6_EENS4_IS6_EEED2Ev
jha:__ZNKSt3__26__treeINS_12__value_typeINS_12basic_stringIcNS_11char_traitsIcEENS_9allocatorIcEEEES7_EENS_19__map_value_compareIS7_S8_NS_4lessIS7_EELb1EEENS5_IS8_EEE10__root_ptrEv
uGc:_set_period
hZ:__ZNSt3__214__split_bufferIdRNS_9allocatorIdEEE18__construct_at_endEj
eS:__ZNKSt3__26vectorI4RectNS_9allocatorIS1_EEE8max_sizeEv
B$:__ZNKSt3__26vectorIN9MovieClip5FrameENS_9allocatorIS2_EEE8max_sizeEv
UWa:__ZN15GyroscopeBinder6createEP9lua_State
r9b:__ZN6snappy6SourceC2Ev
sd:_Mix_PauseMusic
RBa:__ZNK13b2DynamicTree9GetHeightEv
NF:_uuid_variant
x$:__ZN9MovieClip5FrameC2Ev
$ga:__ZNKSt3__215basic_stringbufIcNS_11char_traitsIcEENS_9allocatorIcEEE3strEv
Pzc:_ft_stroker_add_reverse_left
Ghd:__ZNSt3__210__stdinbufIwE9__getcharEb
pha:__ZN6Path2DD2Ev
zrc:_Ins_MIN
wpa:__ZN16GGSoundInterface18ChannelGetStreamIdEm
H8c:__ZNSt3__2L13make_what_strERKNS_19__libcpp_debug_infoE
C1a:__ZN15b2DistanceJoint12SetFrequencyEf
Oea:__ZN13ShaderProgram6RetainEv
RG:throwBindingError
wd:_Mix_PlayChannelTimed
h7a:__ZN12SpriteBinder4getZEP9lua_State
Rna:__ZN12_GLOBAL__N_121GGStreamOpenALManager9SoundPlayEmb
bC:_llvm_ceil_f64
z2b:__ZL8g_iofileP9lua_StateiPKc
z2a:__ZN12Box2DBinder218b2Fixture_IsSensorEP9lua_State
LP:__ZneRK8Matrix2DS1_
zac:_INT123_frame_init_par
A9b:__ZN6snappy18SnappyDecompressor17DecompressAllTagsINS_28SnappyDecompressionValidatorEEEvPT_
dyd:__ZNSt3__212_GLOBAL__N_14makeINS_8time_getIcNS_19istreambuf_iteratorIcNS_11char_traitsIcEEEEEEjEERT_T0_
aIa:__ZN16b2VoronoiDiagram12NodeCallbackD2Ev
sQa:__ZN14LuaApplication10clearErrorEv
rp:_emscripten_autodebug_i64
qQb:__Z36PVRTStringGetContainingDirectoryPathRK11CPVRTString
Rhc:_FT_MulDiv_No_Round
hm:_alGetBuffer3i
AB:_glutKeyboardFunc
ftc:_cff_get_advances
wDa:__ZNSt3__218__insertion_sort_3IRPFbRK6b2PairS3_EPS1_EEvT0_S8_T_
moa:__ZN12_GLOBAL__N_121GGStreamOpenALManager4tickEPNS0_7ChannelE
f$b:_lua_status
Fwa:__ZL18b2FindIncidentEdgeP12b2ClipVertexPK14b2PolygonShapeRK11b2TransformiS3_S6_
CTc:_j1f
gm:_alGetBuffer3f
AFb:_alloc_sarray
tlc:_gray_raster_reset
FLa:__ZN7b2Joint7GetNextEv
hca:__ZN9Transform4setXEf
qOc:___wctype_l
Okb:__ZN6gevent12EventManager20removeEventsWithTypeEi
Ujc:_tt_face_load_os2
fdb:_block_next
ZPc:_catgets
yL:__ZN10TouchEventC2ERK9EventTypeIS_EP17ginput_TouchEventffff
EIa:__ZN16b2ParticleSystem16ReallocateBufferINS_4PairEEEPT_S3_ii
FE:_rectangleRGBA
pXc:_fseek
OHa:__ZNSt3__213__stable_sortIRPFbRKN16b2ParticleSystem4PairES4_EPS2_EEvT0_S9_T_NS_15iterator_traitsIS9_E15difference_typeEPNSC_10value_typeEi
u_a:__ZN12Box2DBinder214b2World_createEP9lua_State
EW:__ZN11Application19setLogicalScaleModeE16LogicalScaleMode
Xc:_IMG_Load_RW
pD:_posix_spawn_file_actions_init
teb:__ZNSt3__26__treeINS_12__value_typeIi8FileInfoEENS_19__map_value_compareIiS3_NS_4lessIiEELb1EEENS_9allocatorIS3_EEE7destroyEPNS_11__tree_nodeIS3_PvEE
Cva:__ZNK14b2PolygonShape15ComputeDistanceERK11b2TransformRK6b2Vec2PfPS3_i
h1:__ZNSt3__23mapIiiNS_4lessIiEENS_9allocatorINS_4pairIKiiEEEEEixERS5_
nfa:__ZN17ogl2ShaderProgramD2Ev
yvd:__ZNKSt3__210moneypunctIcLb0EE11frac_digitsEv
Nsc:_tt_get_sfnt_checksum
Y7a:__ZN12SpriteBinder8setAlphaEP9lua_State
V1:__ZNK6TTFont12getSmoothingEv
bub:_gz_zero
Lmb:__ZN14GGSoundManager18ChannelGetPositionEm
S9a:__ZN11TimerBinder10getRunningEP9lua_State
B5c:_getegid
Cu:_emscripten_set_main_loop
iUa:__ZN12ShaderBinder11setConstantEP9lua_State
aGa:__ZN15b2WorldManifoldC2Ev
VEc:_virt_cstat
sEb:_png_set_filter
Zyd:__ZNSt3__26locale5__imp7installINS_15time_get_bynameIwNS_19istreambuf_iteratorIwNS_11char_traitsIwEEEEEEEEvPT_
Fx:_glDrawArraysInstancedNV
HNb:__ZNSt3__214__split_bufferIPP12QueueElementRNS_9allocatorIS3_EEEC2EjjS6_
yTa:__ZN5Pixel18getTexturePositionERfS0_
nFd:__ZNKSt3__212basic_stringIcNS_11char_traitsIcEENS_9allocatorIcEEE17find_first_not_ofEPKcjj
Ilb:__ZNSt3__26__treeINS_12__value_typeImPN14GGSoundManager5SoundEEENS_19__map_value_compareImS5_NS_4lessImEELb1EEENS_9allocatorIS5_EEEC2ERKS9_
f8a:__ZN6Sprite19setStencilOperationEN12ShaderEngine12DepthStencilE
lU:__ZNSt3__215basic_stringbufIcNS_11char_traitsIcEENS_9allocatorIcEEED2Ev
IIb:_new_color_map_1_quant
CCd:__ZNSt3__212basic_stringIcNS_11char_traitsIcEENS_9allocatorIcEEE18__get_long_pointerEv
m0a:__ZThn508_N11b2DebugDrawD1Ev
zMd:__ZNSt3__211this_thread9sleep_forERKNS_6chrono8durationIxNS_5ratioILx1ELx1000000000EEEEE
P3b:__ZL15Lutf8_matchUTF8P9lua_State
Bja:__ZNSt3__24pairIKNS_12basic_stringIcNS_11char_traitsIcEENS_9allocatorIcEEEENS_6vectorIhNS4_IhEEEEED2Ev
LBa:__ZNK7b2Sweep12GetTransformEP11b2Transformf
I3b:__ZL10Lutf8_nextP9lua_State
VYb:_luaK_dischargevars
eyd:__ZNSt3__26locale5__imp7installINS_8time_getIcNS_19istreambuf_iteratorIcNS_11char_traitsIcEEEEEEEEvPT_
RJa:__ZN12_GLOBAL__N_118FixtureParticleSetC2EP16b2StackAllocator
dy:_glGetActiveUniform
y7b:__ZN8pystring10capitalizeERKNSt3__212basic_stringIcNS0_11char_traitsIcEENS0_9allocatorIcEEEE
W_a:__ZN12Box2DBinder211testOverlapEP9lua_State
FNd:__ZSt9terminatev
hW:__ZN11Application5keyUpEii
TPd:__ZN10__cxxabiv112_GLOBAL__N_116parse_expressionINS0_2DbEEEPKcS4_S4_RT_
BB:_glutKeyboardUpFunc
$ld:__ZNKSt3__218__time_get_storageIwE15__do_date_orderEv
hyc:_ps_dimension_add_t1stem
Xxb:_png_get_color_type
mIb:_merged_1v_upsample
Rw:_glBlendEquation
Mqa:__ZNSt3__23setIPN21GGSampleOpenALManager7ChannelENS_4lessIS3_EENS_9allocatorIS3_EEED2Ev
M6:__ZNSt3__26__treeINS_12__value_typeIdNS_6vectorIP5TimerNS_9allocatorIS4_EEEEEENS_19__map_value_compareIdS8_NS_4lessIdEELb1EEENS5_IS8_EEE25__emplace_unique_key_argsIdJRKNS_21piecewise_construct_tENS_5tupleIJOdEEENSJ_IJEEEEEENS_4pairINS_15__tree_iteratorIS8_PNS_11__tree_nodeIS8_PvEEiEEbEERKT_DpOT0_
_3b:__ZL19push_onecaptureUTF8P14MatchStateUTF8iPKcS2_
gWb:_luaG_logicerror
Ymb:__ZN14GGSoundManager21ChannelRemoveCallbackEmPFviPvS0_ES0_
NEb:_png_write_image_16bit
Xob:__ZL11mpg123lseekPvii
gHd:__ZNSt3__212basic_stringIwNS_11char_traitsIwEENS_9allocatorIwEEE13shrink_to_fitEv
d4:__ZN5Shape17setSolidFillStyleEjf
_8a:__ZN12MatrixBinder11setElementsEP9lua_State
jYc:_mlock
ZC:_llvm_va_copy
yIc:__ZN10emscripten8internal11LightTypeIDINS_11memory_viewIiEEE3getEv
NOa:__ZZN16b2ParticleSystem23DestroyParticlesInShapeERK7b2ShapeRK11b2TransformbEN31DestroyParticlesInShapeCallback13ReportFixtureEP9b2Fixture
vVa:__ZN10MeshBinder8destructEP9lua_State
wqb:_lua_pcall_traceback
wMb:_jpeg_default_qtables
iCd:__ZNSt3__218__libcpp_refstringaSERKS0_
mca:__ZNK6Sprite1zEv
pLd:__ZNSt3__212strstreambuf8overflowEi
iI:FUNCTION_TABLE_viiiiii
rKc:_cacos
LXa:__ZN11GGUrlLoader5closeEv
bBa:__ZNK6b2AABB7RayCastEP15b2RayCastOutputRK14b2RayCastInput
n2b:__ZL8io_popenP9lua_State
Cya:__ZmlfRK6b2Vec3
Oua:__ZmlfRK6b2Vec2
o9:__ZN6GGPoolINSt3__25stackINS0_4pairIP6SpritebEENS0_5dequeIS5_NS0_9allocatorIS5_EEEEEEE6createEv
nnc:_af_cjk_align_serif_edge
kp:_emscripten_atomic_exchange_u64
Jmb:__ZNSt3__26__treeIPN14GGSoundManager7ChannelENS_4lessIS3_EENS_9allocatorIS3_EEE13__lower_boundIS3_EENS_15__tree_iteratorIS3_PNS_11__tree_nodeIS3_PvEEiEERKT_SE_PNS_15__tree_end_nodeIPNS_16__tree_node_baseISC_EEEE
NTd:_pthread_cond_broadcast
SXd:_glTexImage2D__wrapper
qZb:__ZL12codecompoundP9FuncState6OpCodeP7expdescS3_
Fy:_glGetVertexAttribfv
nVb:_luaF_findupval
M0:__ZN9MovieClip4playEb
BIc:__ZN10emscripten8internal6TypeIDINS_11memory_viewIsEEE3getEv
Smc:_FT_Outline_Check
SQd:__ZN10__cxxabiv112_GLOBAL__N_111string_pairC2Ev
Kd:_Mix_VolumeChunk
jId:__ZNKSt3__212basic_stringIwNS_11char_traitsIwEENS_9allocatorIwEEE4copyEPwjj
uR:__ZN5GMesh27clearTextureCoordinateArrayEv
nN:___cxx_global_var_init_21
y1b:__ZL7getfuncP9lua_Statei
S4c:_wcsncasecmp_l
fbd:__ZTv0_n12_NSt3__213basic_istreamIwNS_11char_traitsIwEEED1Ev
Wda:__ZN12ShaderEngine8setColorEffff
$8:__ZNSt3__26__treeIP6SpriteNS_4lessIS2_EENS_9allocatorIS2_EEEC2ERKS4_
XRa:__ZNSt3__26__treeINS_12__value_typeINS_12basic_stringIcNS_11char_traitsIcEENS_9allocatorIcEEEEP11ProfileInfoEENS_19__map_value_compareIS7_SA_NS_4lessIS7_EELb1EEENS5_ISA_EEE16__construct_nodeIJRKNS_21piecewise_construct_tENS_5tupleIJRKS7_EEENSL_IJEEEEEENS_10unique_ptrINS_11__tree_nodeISA_PvEENS_22__tree_node_destructorINS5_IST_EEEEEEDpOT_
CEd:__ZNSt3__212basic_stringIcNS_11char_traitsIcEENS_9allocatorIcEEE7replaceEjjNS_17basic_string_viewIcS2_EE
cOa:__ZNSt3__212__rotate_gcdIPiEET_S2_S2_S2_
Fm:_alGetSourcei
qfa:__ZN17ogl2ShaderProgram13resetUniformsEv
GXd:_glGetShaderInfoLog__wrapper
Nca:__ZNK9Transform1zEv
Dm:_alGetSourcef
$r:_emscripten_glGetTexParameteriv
Y3a:__ZN12Box2DBinder228b2World_createParticleSystemEP9lua_State
qx:_glDeleteTextures
Tyc:_ft_new_glyph
rwb:_png_access_version_number
hlc:_inflate_trees_fixed
_Qa:__ZL13lzlib_versionP9lua_State
nsa:__ZNK10emscripten8internal12WireTypePackIJbEEcvPKvEv
u4:__ZN5Shape6lineToEff
ZKa:__ZN12_GLOBAL__N_124ExpirationTimeComparatorC2EPKi
zzb:_png_read_push_finish_row
h:HEAPF64
GKb:_emit_sos
bDb:_png_set_chunk_malloc_max
i8c:__ZNSt3__218__insertion_sort_3IRNS_6__lessIeeEEPeEEvT0_S5_T_
OIa:__ZNSt3__214__rotate_rightIPN16b2ParticleSystem4PairEEET_S4_S4_
Uad:__ZNSt3__215basic_streambufIwNS_11char_traitsIwEEE6xsputnEPKwi
Qq:_emscripten_glDeleteShader
Sg:_XMapWindow
Jod:__ZNKSt3__28messagesIwE7do_openERKNS_12basic_stringIcNS_11char_traitsIcEENS_9allocatorIcEEEERKNS_6localeE
GOc:_wcswidth
wBa:__ZN6b2AABB7CombineERKS_S1_
NHb:_start_pass_dpost
HKb:_emit_sof
Ulb:__ZN14GGSoundManagerD2Ev
TNd:__ZNKSt13bad_exception4whatEv
tud:__ZNKSt3__28time_getIwNS_19istreambuf_iteratorIwNS_11char_traitsIwEEEEE8get_dateES4_S4_RNS_8ios_baseERjP2tm
xMd:__ZNSt3__26thread6detachEv
o7b:__ZN8pystring8endswithERKNSt3__212basic_stringIcNS0_11char_traitsIcEENS0_9allocatorIcEEEES8_ii
rqb:_luaL_newweaktable
Odb:_tlsf_destroy
ZU:__ZNKSt3__26__treeINS_12__value_typeINS_4pairIiiEEiEENS_19__map_value_compareIS3_S4_NS_4lessIS3_EELb1EEENS_9allocatorIS4_EEE10__root_ptrEv
WY:__ZN13GridBagLayout24preInitMaximumArraySizesEP6SpriteRjS2_
z3:__ZNSt3__26__treeINS_12__value_typeIiN8TTBMFont12TextureGlyphEEENS_19__map_value_compareIiS4_NS_4lessIiEELb1EEENS_9allocatorIS4_EEE7destroyEPNS_11__tree_nodeIS4_PvEE
Cgc:_mpg123_copy_string
epd:__ZNKSt3__27codecvtIcc11__mbstate_tE10do_unshiftERS1_PcS4_RS4_
qDb:_png_write_iCCP
bJd:__ZNKSt3__217basic_string_viewIwNS_11char_traitsIwEEE7compareES3_
YCd:__ZNSt3__212basic_stringIcNS_11char_traitsIcEENS_9allocatorIcEEE21__grow_by_and_replaceEjjjjjjPKc
B1c:___fseterr
tPc:___getdents
dW:__ZN11Application9mouseMoveEiiii
GOb:__ZL17UnpackModulationsPK17AMTC_BLOCK_STRUCTiPA16_iS3_ii
qEa:__ZN16b2ParticleSystem16ReallocateBufferI6b2Vec2EEPT_S3_iiib
pS:__ZNSt3__26vectorI8RectSizeNS_9allocatorIS1_EEE8__appendEj
jbc:_null_id3_links
_pc:_Ins_DUP
$G:FUNCTION_TABLE_d
SKb:_jinit_forward_dct
oDc:_instrument_init
Fkb:__ZNSt3__212__deque_baseIN6gevent12EventManager17EventQueueElementENS_9allocatorIS3_EEE5beginEv
jH:FUNCTION_TABLE_i
BEa:__ZN16b2ParticleSystem16ReallocateBufferI6b2Vec2EEPT_S3_ii
L8a:__ZN12MatrixBinder8destructEP9lua_State
VIb:_make_odither_array
AH:FUNCTION_TABLE_v
ZAb:_png_set_progressive_read_fn
GQc:_get_16
Fha:__ZL12check_offsetP4pathf
bga:__ZNSt3__214__split_bufferIP17ogl2ShaderProgramRNS_9allocatorIS2_EEEC2EjjS5_
rdd:__ZNSt3__215basic_streambufIcNS_11char_traitsIcEEE4setpEPcS4_
IF:_uuid_parse
ssc:_tt_face_load_loca
D$b:__ZL17collectvalidlinesP9lua_StateP7Closure
Zjc:_tt_face_load_gasp
Fwb:_png_colorspace_sync
f1b:__ZL11luaB_gcinfoP9lua_State
Pwb:_png_colorspace_check_XYZ
Gr:_emscripten_glGetAttribLocation
CDc:_CAN_READ
kaa:__ZN6Sprite22recursiveDispatchEventEP5Eventbb
cvd:__ZNKSt3__28time_putIcNS_19ostreambuf_iteratorIcNS_11char_traitsIcEEEEE3putES4_RNS_8ios_baseEcPK2tmPKcSC_
ohc:_Vertical_Sweep_Span
Pq:_emscripten_glDeleteRenderbuffers
LT:__ZNSt3__26vectorIN8FontBase11ChunkLayoutENS_9allocatorIS2_EEE13__move_assignERS5_NS_17integral_constantIbLb1EEE
xlc:_gray_convert_glyph
O4c:_wcscasecmp_l
FV:__ZNSt3__213__vector_baseINS_4pairINS_12basic_stringIcNS_11char_traitsIcEENS_9allocatorIcEEEEfEENS5_IS8_EEED2Ev
wsc:_tt_check_single_notdef
gFa:__ZN7b2Joint8GetBodyAEv
BLd:__ZNSt3__29strstreamD0Ev
dBc:_raccess_guess_linux_double_from_file_name
tE:_pthread_rwlockattr_setpshared
dQa:__ZNSt3__212__deque_baseIN14LuaApplication12AsyncLuaTaskENS_9allocatorIS2_EEE5beginEv
ZBd:__ZNSt3__218shared_timed_mutex15try_lock_sharedEv
AQc:_fuzzycmp
NYb:_luaK_exp2anyreg
ZHa:__ZNSt3__213__stable_sortIRPFbRKN16b2ParticleSystem5TriadES4_EPS2_EEvT0_S9_T_NS_15iterator_traitsIS9_E15difference_typeEPNSC_10value_typeEi
qtb:_deflate_rle
NAd:__ZNSt3__215recursive_mutex8try_lockEv
zuc:_cf2_hint_init
aXa:__ZN11GGGyroscope5startEv
VJa:__ZZN16b2ParticleSystem18UpdateBodyContactsEvEN26UpdateBodyContactsCallbackC2EPS_P7b2WorldP15b2ContactFilterP17b2ContactListenerPN12_GLOBAL__N_118FixtureParticleSetE
GRa:__ZNSt3__26__treeINS_12__value_typeINS_12basic_stringIcNS_11char_traitsIcEENS_9allocatorIcEEEEdEENS_19__map_value_compareIS7_S8_NS_4lessIS7_EELb1EEENS5_IS8_EEE25__emplace_unique_key_argsIS7_JRKNS_21piecewise_construct_tENS_5tupleIJRKS7_EEENSJ_IJEEEEEENS_4pairINS_15__tree_iteratorIS8_PNS_11__tree_nodeIS8_PvEEiEEbEERKT_DpOT0_
ngd:__ZNSt3__213basic_ostreamIwNS_11char_traitsIwEEEC1EPNS_15basic_streambufIwS2_EE
gC:_llvm_cttz_i64
lMc:_memcmp
pid:__ZNSt3__26__clocEv
Qp:_emscripten_get_deviceorientation_status
DDa:__ZNK7b2World8IsLockedEv
on:_alcCloseDevice
ghd:___cxx_global_var_init_2782
Gec:_buffered_forget
NYc:_accept
Eab:__ZN8LuaEventC2ERK9EventTypeIS_E
lud:__ZNKSt3__28time_getIcNS_19istreambuf_iteratorIcNS_11char_traitsIcEEEEE11get_weekdayES4_S4_RNS_8ios_baseERjP2tm
KPb:__ZNK11CPVRTString17find_first_not_ofEPKcjj
Z9c:__ZNSt3__26futureIvED2Ev
mBb:_png_init_rgb_transformations
sIc:__ZN10emscripten8internal11LightTypeIDINS_11memory_viewImEEE3getEv
Vw:_glBufferData
$Lc:___crypt_sha256
Ip:_emscripten_get_battery_status
zbd:__ZNSt3__219__iostream_categoryD0Ev
AAb:_png_set_text_2
fob:_gaudio_ChannelSetPosition
Aed:__ZNSt3__213basic_istreamIcNS_11char_traitsIcEEE3getEPci
w9:__ZNSt3__26vectorIPNS_5stackINS_4pairIP6SpritebEENS_5dequeIS5_NS_9allocatorIS5_EEEEEENS7_ISB_EEE21__push_back_slow_pathIRKSB_EEvOT_
kOb:__ZN10ByteBuffer6appendEt
jOb:__ZN10ByteBuffer6appendEs
k0c:___tre_mem_alloc_impl
RZa:__ZNSt3__2lsINS_11char_traitsIcEEEERNS_13basic_ostreamIcT_EES6_PKc
ird:__ZNKSt3__214__codecvt_utf8IwE10do_unshiftER11__mbstate_tPcS4_RS4_
yLb:_flush_bits_e
NLc:_csinl
Fhb:_gtexture_set_engine
dqb:__ZNKSt3__26__treeINS_12__value_typeIPKciEENS_19__map_value_compareIS3_S4_N8StringId5ltstrELb1EEENS_9allocatorIS4_EEE10__root_ptrEv
Z0a:__ZN12Box2DBinder227b2WheelJoint_getMotorTorqueEP9lua_State
dV:__ZN3DibC2EP11Applicationiib
fIa:__ZNSt3__215__inplace_mergeIRPFbRKN16b2ParticleSystem5TriadES4_EPS2_EEvT0_S9_S9_T_NS_15iterator_traitsIS9_E15difference_typeESD_PNSC_10value_typeEi
fOb:__ZN10ByteBuffer6appendEc
ey:_glGetAttachedShaders
hAc:_hash_str_compare
NPd:__ZNSt3__26vectorIN10__cxxabiv112_GLOBAL__N_111string_pairENS2_11short_allocIS3_Lj4096EEEE21__push_back_slow_pathIS3_EEvOT_
kG:extendError
vib:_gtexture_create
lQc:_evalbinop
qLb:_flush_bits_s
lOb:__ZN10ByteBuffer6appendEi
hOb:__ZN10ByteBuffer6appendEh
y6c:_ttyname_r
xLc:_cpow
Ck:__embind_register_function
Z5b:__ZL10gmatch_auxP9lua_State
Tsb:_gpath_getDriveFlags
RFc:_get_envelope
Zwb:_png_icc_check_tag_table
y6:__ZNSt3__212__deque_baseINS_4pairIP5TimeriEENS_9allocatorIS4_EEED2Ev
Ioa:__ZNSt3__26__treeINS_12__value_typeImPN12_GLOBAL__N_121GGStreamOpenALManager5SoundEEENS_19__map_value_compareImS6_NS_4lessImEELb1EEENS_9allocatorIS6_EEE16__insert_node_atEPNS_15__tree_end_nodeIPNS_16__tree_node_baseIPvEEEERSI_SI_
whc:_Convert_Glyph
Rg:_XInternAtom
yXc:_twoway_strstr
B4a:__ZN7b2World4StepEfii
I0:__ZNSt3__26__treeINS_12__value_typeIiNS_6vectorIPN9MovieClip5FrameENS_9allocatorIS5_EEEEEENS_19__map_value_compareIiS9_NS_4lessIiEELb1EEENS6_IS9_EEE13__lower_boundIiEENS_15__tree_iteratorIS9_PNS_11__tree_nodeIS9_PvEEiEERKT_SL_PNS_15__tree_end_nodeIPNS_16__tree_node_baseISJ_EEEE
Xdd:__ZNSt3__213basic_istreamIcNS_11char_traitsIcEEEC2EOS3_
$cb:__ZN14LuaApplication14setOrientationE11Orientation
yvc:_cff_parse_font_matrix
BFa:__ZN15b2TypedFreeListI16b2ParticleHandleEC2Ev
lnd:__ZNKSt3__217moneypunct_bynameIcLb0EE14do_curr_symbolEv
uGb:_alloc_funny_pointers
Rma:__ZN6ginput12InputManager10mouseHoverEiiii
Hzb:_png_do_encode_alpha
$Ab:_png_default_read_data
x8a:__ZN6Sprite8setRefXYEff
Hjb:__ZNSt3__26__treeINS_12__value_typeImPN9g_private14TextureManager18TempTextureElementEEENS_19__map_value_compareImS6_NS_4lessImEELb1EEENS_9allocatorIS6_EEE12__find_equalImEERPNS_16__tree_node_baseIPvEERPNS_15__tree_end_nodeISI_EERKT_
P6a:__ZN12SpriteBinder6createEP9lua_State
Cua:_serverDataReceived
U0a:__ZN12Box2DBinder230b2WheelJoint_getMaxMotorTorqueEP9lua_State
Kyb:_png_get_sCAL_s
xdc:_synth_stereo_wrap
Xb:invoke_viidii
Czb:_png_do_strip_channel
IUa:__ZN11AudioBinder22SoundChannel_setPausedEP9lua_State
HJc:_malloc_usable_size
xua:__ZNK10emscripten8internal12WithPoliciesIJEE11ArgTypeListIJvNS_11memory_viewIhEEEE8getCountEv
eRa:__ZL16lzlib_decompressP9lua_State
Vb:invoke_viidid
gx:_glCopyTexSubImage2D
qsd:__ZNKSt3__215__codecvt_utf16IDsLb1EE16do_always_noconvEv
U6:__ZNKSt3__26__treeIP5TimerNS_4lessIS2_EENS_9allocatorIS2_EEE10__root_ptrEv
y_a:__ZN12Box2DBinder216b2Shape_destructEP9lua_State
fib:__ZNSt3__26__treeINS_12__value_typeImPN9g_private19RenderTargetElementEEENS_19__map_value_compareImS5_NS_4lessImEELb1EEENS_9allocatorIS5_EEE7destroyEPNS_11__tree_nodeIS5_PvEE
Qw:_glBlendColor
Zxa:__ZN6b2Vec37SetZeroEv
Y0:__ZNKSt3__26vectorIP8SlotBaseNS_9allocatorIS2_EEE8max_sizeEv
vac:_INT123_bytes_to_samples
X1b:__ZL8settabsiP9lua_StatePKci
QMc:_frexp
GMc:_fmt_x
fS:__ZNSt3__214__split_bufferI4RectRNS_9allocatorIS1_EEEC2EjjS4_
yMd:__ZNSt3__26thread20hardware_concurrencyEv
K0b:__ZL7l_allocPvS_jj_1804
lJd:__ZNSt3__212basic_stringIwNS_11char_traitsIwEENS_9allocatorIwEEE19__move_assign_allocERS5_NS_17integral_constantIbLb1EEE
mHb:_jpeg_idct_6x12
j1a:__ZN12Box2DBinder224b2MouseJoint_getMaxForceEP9lua_State
IMc:_fmt_u
e$a:__ZN18b2DistanceJointDefC2Ev
RQb:___gl_noVertexData
OBc:_FT_Get_CMap_Language_ID
stc:_ft_synthesize_vertical_metrics
_9:__ZNSt3__214__split_bufferIPPK6SpriteRNS_9allocatorIS4_EEEC2EjjS7_
L3b:__ZL14Lutf8_ncasecmpP9lua_State
v9b:__ZN6snappy23IsValidCompressedBufferEPKcj
XJ:__ZN9Particles11getPositionEiPfS0_
Gma:_ginput_removeCallbackWithGid
csd:__ZNKSt3__215__codecvt_utf16IDsLb0EE5do_inER11__mbstate_tPKcS5_RS5_PDsS7_RS7_
qSc:_erff
WHd:__ZNSt3__212basic_stringIwNS_11char_traitsIwEENS_9allocatorIwEEE5eraseENS_11__wrap_iterIPKwEE
alb:__ZN6gevent12EventManagerD2Ev
Xmc:_FT_Lookup_Renderer
jka:__ZN14NetworkManager20setResourceDirectoryEPKc
m0b:_luaL_optnumber
Zxd:__ZNSt3__212_GLOBAL__N_14makeINS_9money_getIwNS_19istreambuf_iteratorIwNS_11char_traitsIwEEEEEEjEERT_T0_
Mmc:_af_shaper_buf_destroy
lVd:mftCall_viiii
Bcc:_INT123_getbits
lrb:_g_p_read
gVd:mftCall_viiid
UVc:_vdprintf
dnd:__ZNKSt3__210moneypunctIwLb1EE14do_frac_digitsEv
_9c:__ZNSt3__26futureIvE3getEv
E_:__ZL12easeOutQuintd
Kea:__ZNSt3__214__split_bufferIPN12ShaderEngine12DepthStencilENS_9allocatorIS3_EEED2Ev
gjd:__ZNKSt3__27num_getIwNS_19istreambuf_iteratorIwNS_11char_traitsIwEEEEE6do_getES4_S4_RNS_8ios_baseERjRPv
_Ta:__ZN12Path2DBinder12setFillColorEP9lua_State
DAd:__ZNSt3__221__undeclare_reachableEPv
cfa:__Z15pathShadersInitb
W3:__ZN5Shape6doDrawERK7Matrix4ffff
X7b:__ZN8pystring2os4path7join_ntERKNSt3__212basic_stringIcNS2_11char_traitsIcEENS2_9allocatorIcEEEESA_
eEa:__ZNK15b2SlabAllocatorI16b2ParticleHandleE4Slab12GetFirstItemEv
q5b:__ZL8str_byteP9lua_State
wA:_glfwGetProcAddress
gkc:_tt_face_free_sbit
Qzb:_png_do_bgr
jf:_SDL_JoystickNumBalls
rkb:__ZNSt3__26vectorIN19gevent_CallbackList8CallbackENS_9allocatorIS2_EEE26__swap_out_circular_bufferERNS_14__split_bufferIS2_RS4_EE
Mp:_emscripten_get_canvas_size
rFb:_get_dri
Csc:_TT_Load_Simple_Glyph
Gd:_Mix_SetPanning
l7:__ZN14TimerContainer15queueTimerEventEP5Timer
l2:__ZN6TTFontC2EP11ApplicationNSt3__26vectorIN8FontBase8FontSpecENS2_9allocatorIS5_EEEEffP7GStatus
ohb:_gimage_saveJpg
n5c:_tcflow
DRb:_allocVertex
Ubb:__ZN14EventBinderMap9push_backEiP12CppLuaBridge
jgd:__ZNSt3__213basic_ostreamIcNS_11char_traitsIcEEE5seekpExNS_8ios_base7seekdirE
_Vb:__ZL9currentpcP9lua_StateP8CallInfo
Djc:_FT_Stream_Read
pB:_glutCreateWindow
Dda:__ZN13ShaderProgramD0Ev
J6c:__ZNSt3__27__sort3IRNS_6__lessIwwEEPwEEjT0_S5_S5_T_
QZb:_luaK_setlist
S0c:_utimensat
WQc:_iswalpha_l
Nb:invoke_viidddd
Vv:_execve
KJ:__ZNKSt3__26vectorIhNS_9allocatorIhEEE8max_sizeEv
fha:__ZNSt3__26__treeINS_12__value_typeINS_12basic_stringIcNS_11char_traitsIcEENS_9allocatorIcEEEES7_EENS_19__map_value_compareIS7_S8_NS_4lessIS7_EELb1EEENS5_IS8_EEE25__emplace_unique_key_argsIS7_JRKNS_21piecewise_construct_tENS_5tupleIJOS7_EEENSJ_IJEEEEEENS_4pairINS_15__tree_iteratorIS8_PNS_11__tree_nodeIS8_PvEEiEEbEERKT_DpOT0_
zCa:__ZNK12b2BroadPhase11TestOverlapEii
IRa:__ZNSt3__26__treeINS_12__value_typeINS_12basic_stringIcNS_11char_traitsIcEENS_9allocatorIcEEEEdEENS_19__map_value_compareIS7_S8_NS_4lessIS7_EELb1EEENS5_IS8_EEE16__construct_nodeIJRKNS_21piecewise_construct_tENS_5tupleIJRKS7_EEENSJ_IJEEEEEENS_10unique_ptrINS_11__tree_nodeIS8_PvEENS_22__tree_node_destructorINS5_ISR_EEEEEEDpOT_
oId:__ZNKSt3__212basic_stringIwNS_11char_traitsIwEENS_9allocatorIwEEE4findERKS5_j
Wv:_execvp
pob:_gaudio_ChannelSetLooping
Dab:__ZN9EventTypeI8LuaEventEC2EPKc
bSa:__ZNSt3__26__treeINS_12__value_typeIP7ClosureP11ProfileInfoEENS_19__map_value_compareIS3_S6_NS_4lessIS3_EELb1EEENS_9allocatorIS6_EEE25__emplace_unique_key_argsIS3_JRKNS_21piecewise_construct_tENS_5tupleIJRKS3_EEENSI_IJEEEEEENS_4pairINS_15__tree_iteratorIS6_PNS_11__tree_nodeIS6_PvEEiEEbEERKT_DpOT0_
XQb:_RenderFan
eh:___assert_func
KE:_sem_init
Ndd:__ZNKSt3__215basic_streambufIwNS_11char_traitsIwEEE5egptrEv
l$b:__ZL9findindexP9lua_StateP5TableP10lua_TValue
Jbc:_INT123_ntom_val
i$c:_jrand48
tFb:_jpeg_alloc_quant_table
Nda:__ZN12ShaderEngine10setFrustumEffffff
SBb:_png_image_format
tx:_glDepthFunc
cMc:__crypt_extended_r_uut
eSd:runPostSets1
LTb:_unzGetCurrentFileZStreamPos64
gud:__ZNSt3__28time_getIcNS_19istreambuf_iteratorIcNS_11char_traitsIcEEEEEC2Ej
YTa:__ZN12Path2DBinder8destructEP9lua_State
Mdd:__ZNKSt3__215basic_streambufIwNS_11char_traitsIwEEE4gptrEv
Ueb:__ZN21GEventDispatcherProxyD0Ev
Wud:__ZNSt3__220__get_up_to_n_digitsIwPwEEiRT0_S2_RjRKNS_5ctypeIT_EEi
qId:__ZNSt3__211char_traitsIwE4findEPKwjRS2_
RJ:__ZNKSt3__26vectorIfNS_9allocatorIfEEE8max_sizeEv
H7:__ZN14TimerContainer15resumeAllTimersEv
e9:__ZN18GridBagConstraintsC2Ev
IRc:_towctrans_l
Wic:_tt_cmap14_char_var_index
wfa:__ZNSt3__213__vector_baseIN13ShaderProgram8DataDescENS_9allocatorIS2_EEED2Ev
ezd:__ZNSt3__26vectorIPNS_6locale5facetENS_15__sso_allocatorIS3_Lj28EEEE18__construct_at_endIPS3_EENS_9enable_ifIXsr21__is_forward_iteratorIT_EE5valueEvE4typeESA_SA_j
cSa:__ZNSt3__26__treeINS_12__value_typeIP7ClosureP11ProfileInfoEENS_19__map_value_compareIS3_S6_NS_4lessIS3_EELb1EEENS_9allocatorIS6_EEE12__find_equalIS3_EERPNS_16__tree_node_baseIPvEERPNS_15__tree_end_nodeISI_EERKT_
XEb:_reset_input_controller
h8a:__ZN6Sprite11ShaderParamC2ERKS0_
yyc:_psh_globals_new
neb:__GLOBAL__sub_I_eventdispatcher_cpp
cZa:__ZN17ApplicationBinder15getLogicalWidthEP9lua_State
QZc:_ntohl
w_c:_getnetbyname
k6b:__ZL12os_setlocaleP9lua_State
eEb:_png_do_write_interlace
dJd:__ZNKSt3__212basic_stringIwNS_11char_traitsIwEENS_9allocatorIwEEE7compareEjjPKw
eLa:__ZNK12_GLOBAL__N_124ExpirationTimeComparatorclEii
nrb:__GLOBAL__sub_I_gpath_cpp
Zed:__ZNSt3__213basic_ostreamIwNS_11char_traitsIwEEE6sentryD2Ev
Mfd:__ZNSt3__213basic_ostreamIcNS_11char_traitsIcEEEC1EOS3_
yLa:__ZNK16b2ParticleSystem9GetRadiusEv
S_a:__ZN12Box2DBinder216getWheelJointDefEP9lua_State
Xxa:__ZmiRK6b2Vec3S1_
VVa:__ZN10MeshBinder9getVertexEP9lua_State
FMa:__ZN16b2PrismaticJoint9SetLimitsEff
HZb:__ZL11pushclosureP8LexStateP9FuncStateP7expdesc
PUd:mftCall_viddddddddd
tEc:_virt_mapchannel
ipd:__ZNKSt3__27codecvtIcc11__mbstate_tE13do_max_lengthEv
mxa:__ZN12b2MouseJoint11ShiftOriginERK6b2Vec2
CE:_putenv
peb:___cxx_global_var_init_104_227
RAb:_png_set_unknown_chunks
XMa:__ZN15b2RevoluteJoint13SetMotorSpeedEf
ipa:__ZN12_GLOBAL__N_121GGStreamOpenALManager5SoundD2Ev
ceb:_block_trim_free_leading
Pob:_gaudio_unregisterType
sEd:__ZNSt3__212basic_stringIcNS_11char_traitsIcEENS_9allocatorIcEEE6insertEjjc
Io:_eglReleaseThread
w0c:_parse_dup_count
JTd:_llvm_round_f64
JEb:_png_image_write_to_stdio
Lwb:_png_XYZ_from_xy
Wyb:_png_get_user_height_max
rHb:_jpeg_idct_6x3
Lsc:_tt_check_trickyness_family
Wra:__ZN10emscripten8internal9SignatureIiJNS_3valES2_RS2_S2_S2_S2_iiiEE17get_method_callerEv
GHb:_jpeg_idct_6x6
C9b:__ZN6snappy28SnappyDecompressionValidator13TryFastAppendEPKcjj
uob:_gaudio_ChannelRemoveCallbackWithGid
Kza:__ZN24b2TypedIntrusiveListNodeI14b2TrackedBlockED2Ev
Y1a:__ZN12Box2DBinder230b2RevoluteJoint_isMotorEnabledEP9lua_State
bPc:_open
Vkb:__ZN19gevent_CallbackListD2Ev
aMa:__ZN6b2Body7SetTypeE10b2BodyType
PXc:_setrlimit
Rha:__ZL11calculatepqddddddddPdS_
Gwd:__ZNKSt3__29money_getIwNS_19istreambuf_iteratorIwNS_11char_traitsIwEEEEE3getES4_S4_bRNS_8ios_baseERjRNS_12basic_stringIwS3_NS_9allocatorIwEEEE
kDd:__ZNSt3__212basic_stringIcNS_11char_traitsIcEENS_9allocatorIcEEE13__get_pointerEv
A$a:__ZN12Box2DBinder221b2Contact_getManifoldEP9lua_State
w$a:__ZN12Box2DBinder232b2ParticleGroup_getParticleCountEP9lua_State
e4:__ZN5Shape19setTextureFillStyleEP11TextureBasePK7Matrix4
XOb:__ZN21CPVRTMemoryFileSystem7GetFileEPKcPPKvPj
a9:__ZN6Sprite9setShaderEP13ShaderProgram
Hqc:_Ins_FLIPON
tub:_z_inflateResetKeep
HYb:__ZL13adjust_assignP8LexStateiiP7expdesc
aC:_llvm_ceil_f32
SE:_setprotoent
Xxd:__ZNSt3__212_GLOBAL__N_14makeINS_9money_getIcNS_19istreambuf_iteratorIcNS_11char_traitsIcEEEEEEjEERT_T0_
YHc:__ZN10emscripten8internal6TypeIDINSt3__212basic_stringIhNS2_11char_traitsIhEENS2_9allocatorIhEEEEE3getEv
Erd:__ZNKSt3__214__codecvt_utf8IDiE9do_lengthER11__mbstate_tPKcS5_j
XSb:_fwrite_file_func
iyd:__ZNSt3__26locale5__imp7installINS_8time_putIcNS_19ostreambuf_iteratorIcNS_11char_traitsIcEEEEEEEEvPT_
j5b:__ZL15math_randomseedP9lua_State
L_a:__ZN12Box2DBinder210b2SetScaleEP9lua_State
_dd:__ZNSt3__213basic_istreamIcNS_11char_traitsIcEEE4swapERS3_
qs:_emscripten_glLineWidth
_P:__ZN7TileMap10setTextureEP11TextureBaseiiiiii
xsb:_gpath_cleanup
LPb:__ZNK11CPVRTString17find_first_not_ofERKS_j
cu:_emscripten_resume_main_loop
tya:__ZNK11b2WeldJoint16GetReactionForceEf
w0b:_luaL_buffinit
$rc:_Project_y
vsa:__ZN10emscripten8internal11BindingTypeImE10toWireTypeERKm
XTd:_llvm_ctlz_i16
TQd:__ZNSt3__26vectorIN10__cxxabiv112_GLOBAL__N_111string_pairENS2_11short_allocIS3_Lj4096EEEE24__emplace_back_slow_pathIJEEEvDpOT_
$Ud:mftCall_viidddddd
CIa:__ZN12b2StackQueueIN16b2VoronoiDiagram20b2VoronoiDiagramTaskEED2Ev
Dyb:_png_get_sPLT
bPd:__ZNSt3__213__vector_baseINS_6vectorIN10__cxxabiv112_GLOBAL__N_111string_pairENS3_11short_allocIS4_Lj4096EEEEENS5_IS7_Lj4096EEEED2Ev
bya:__ZNK15b2FrictionJoint17GetReactionTorqueEf
hzb:_png_process_some_data
HQc:_put_16
Gm:_alGetSourceiv
LXd:b62
$tc:_cf2_glyphpath_moveTo
FXd:b60
RXd:b67
y1:__ZN13GRenderTarget4drawEPK6Sprite7Matrix4
PXd:b65
OXd:b64
UXd:b69
Yyc:_FT_Glyph_To_Bitmap
qqa:__ZNSt3__26__treeIPN21GGSampleOpenALManager7ChannelENS_4lessIS3_EENS_9allocatorIS3_EEE13__lower_boundIS3_EENS_15__tree_iteratorIS3_PNS_11__tree_nodeIS3_PvEEiEERKT_SE_PNS_15__tree_end_nodeIPNS_16__tree_node_baseISC_EEEE
HG:registerInheritedInstance
l0b:_luaL_checknumber
Z0c:_mkfifoat
$pc:_Ins_CLEAR
Bha:__ZL22add_stroke_line_dashedP4pathddddPd
dTa:__ZN15ParticlesBinder12clearTextureEP9lua_State
RZc:___bswap_32_492
zU:__ZNSt3__211char_traitsIcE7not_eofEi
Cdc:_INT123_synth_2to1_m2s
bfa:__ZN12ShaderBufferD0Ev
m3:__ZNSt3__26vectorIP11TextureDataNS_9allocatorIS2_EEE21__push_back_slow_pathIS2_EEvOT_
k0a:__ZN11b2DebugDraw13DrawTransformERK11b2Transform
yPc:_fegetexceptflag
yX:__ZN11Application19createAutounrefPoolEv
GVd:b8
gub:_z_inflate_table
ajb:__ZNSt3__23setIPN9g_private14TextureElementENS_4lessIS3_EENS_9allocatorIS3_EEED2Ev
Lo:_eglTerminate
Yld:__ZThn8_NKSt3__215time_get_bynameIwNS_19istreambuf_iteratorIwNS_11char_traitsIwEEEEE3__rEv
Dic:_tt_cmap10_get_info
Uwb:_png_icc_tag_name
bQ:__ZN7TileMap5shiftEii
oBc:_FT_New_Memory_Face
lbb:__ZNK5Event4typeEv
Cgb:__ZNKSt3__26__treeINS_12__value_typeIdNS_6vectorIiNS_9allocatorIiEEEEEENS_19__map_value_compareIdS6_NS_4lessIdEELb1EEENS3_IS6_EEE10__root_ptrEv
x5a:__ZN15TextFieldBinder12getTextColorEP9lua_State
Gwc:_cff_index_load_offsets
GY:__ZNSt3__26__treeIP6ScreenNS_4lessIS2_EENS_9allocatorIS2_EEE5eraseENS_21__tree_const_iteratorIS2_PNS_11__tree_nodeIS2_PvEEiEE
s3c:___stdio_exit
KM:__ZN8Viewport10lookAnglesEffffff
QTa:__ZN14ViewportBinder13getProjectionEP9lua_State
WGd:__ZNKSt3__212basic_stringIwNS_11char_traitsIwEENS_9allocatorIwEEE6lengthEv
xvd:__ZNKSt3__210moneypunctIcLb0EE13negative_signEv
Cr:_emscripten_glGenerateMipmap
os:_emscripten_glIsTexture
I7b:__ZN8pystring5sliceERKNSt3__212basic_stringIcNS0_11char_traitsIcEENS0_9allocatorIcEEEEii
mWc:_fputs
x4:__ZNSt3__26vectorI6Point2IfENS_9allocatorIS2_EEE21__push_back_slow_pathIRKS2_EEvOT_
QVd:_atexit__wrapper
gs:_emscripten_glHint
YIa:__ZNK16b2ParticleSystem16ConnectionFilter17ShouldCreateTriadEiii
X_b:__ZL10DumpHeaderP9DumpState
iJc:___getTypeName
kQc:_evalexpr
Brb:_g_fread
dJ:__ZN12VertexBufferItEC2Ev
drb:__ZN21GEventDispatcherProxyC2EN6GProxy5GTypeE
CDa:__ZN16b2ContactManagerD2Ev
sud:__ZNKSt3__28time_getIwNS_19istreambuf_iteratorIwNS_11char_traitsIwEEEEE8get_timeES4_S4_RNS_8ios_baseERjP2tm
H5b:__ZL8lmemfindPKcjS0_j
fqb:__ZN8StringIdD2Ev
lxb:_png_reciprocal2
lJa:__ZNK12_GLOBAL__N_117FixedSetAllocator14GetValidBufferEv
G0:__ZNSt3__26vectorIPN9MovieClip5FrameENS_9allocatorIS3_EEE26__swap_out_circular_bufferERNS_14__split_bufferIS3_RS5_EE
EM:__ZNK7Vector3miERKS_
zW:__ZNSt3__26vectorIP15EventDispatcherNS_9allocatorIS2_EEE8allocateEj
hg:_SDL_UpperBlit
zcb:__ZN14LuaApplication12fileNameFuncEPKc
ej:___syscall221
dj:___syscall220
dwc:_cff_charset_free_cids
BPa:__ZN16b2ParticleSystem18ApplyLinearImpulseEiiRK6b2Vec2
xl:__inet_ntop6_raw
g$:__ZL13easeOutBouncedd
eFc:_next_row
IEc:_virt_setpatch
hxa:__ZNK12b2MouseJoint10GetAnchorAEv
fVa:__ZN12_GLOBAL__N_114GGSoundChannelC2EP9lua_StatePNS_7GGSoundEjbb
aAa:__ZN10b2FreeList13AddToFreeListEP19b2IntrusiveListNode
mDb:_png_write_info_before_PLTE
wOd:__ZNK10__cxxabiv117__array_type_info9can_catchEPKNS_16__shim_type_infoERPv
CUd:mftCall_iiiiiiiiii
jXb:_lua_pushlightuserdata
p0:__ZN13CompleteEventC2ERK9EventTypeIS_E
jxb:_png_fixed_error
VKd:__ZNSt3__212_GLOBAL__N_19as_stringINS_12basic_stringIwNS_11char_traitsIwEENS_9allocatorIwEEEEPFiPwjPKwzEmEET_T0_SD_PKNSD_10value_typeET1_
YAa:__ZNK9b2Simplex10WriteCacheEP14b2SimplexCache
Abc:_buffy_del_chain
Hxa:__ZN16b2PrismaticJoint23InitVelocityConstraintsERK12b2SolverData
lNc:_BF_crypt
Dlb:_glog_setLevel
Pvb:_png_malloc_base
uAa:__ZNK16b2BlockAllocator22GetNumGiantAllocationsEv
w4:__ZN5Shape9closePathEv
R1:__ZN11TTTextField9setSampleEPKc
A8:__ZNSt3__26__treeIP6SpriteNS_4lessIS2_EENS_9allocatorIS2_EEE13__lower_boundIS2_EENS_15__tree_iteratorIS2_PNS_11__tree_nodeIS2_PvEEiEERKT_SD_PNS_15__tree_end_nodeIPNS_16__tree_node_baseISB_EEEE
nnd:__ZNKSt3__217moneypunct_bynameIcLb0EE16do_negative_signEv
Hkb:__ZNSt3__29remove_ifINS_16__deque_iteratorIN6gevent12EventManager17EventQueueElementEPS4_RS4_PS5_iLi0EEENS3_9equal_gidIS4_EEEET_SB_SB_T0_
Z7a:__ZN12SpriteBinder9getBoundsEP9lua_State
S7c:__ZNSt3__218__insertion_sort_3IRNS_6__lessIyyEEPyEEvT0_S5_T_
YEa:__ZN12b2MotorJointC2EPK15b2MotorJointDef
p1c:___fsetlocking
yac:_INT123_frame_init
Qs:_emscripten_glUniform1f
Je:_SDL_GetRGB
rS:__ZNSt3__214__split_bufferI8RectSizeRNS_9allocatorIS1_EEE18__construct_at_endEj
mJd:__ZNSt3__212basic_stringIwNS_11char_traitsIwEENS_9allocatorIwEEE19__move_assign_allocERS5_NS_17integral_constantIbLb0EEE
Hec:_buffered_fullread
Ss:_emscripten_glUniform1i
zH:FUNCTION_TABLE_iiiiiiiiiiiii
zGd:__ZNSt3__212basic_stringIwNS_11char_traitsIwEENS_9allocatorIwEEEaSEPKw
gTa:__ZN9Particles8isPausedEv
srd:__ZNKSt3__214__codecvt_utf8IDsE16do_always_noconvEv
zvb:_z_gzclearerr
Aca:__ZNK6Sprite5skewXEv
XWb:_lua_touserdata
kGc:_is_same_sid
vO:__ZN10TimerEventD0Ev
O0:__ZN15EventDispatcher16addEventListenerI15EnterFrameEvent9MovieClipS1_EEvRK9EventTypeIT_EPT0_MS8_FvPT1_E
eYb:_luaX_syntaxerror
C2b:__ZL7f_linesP9lua_State
QB:_gmtime_r
Zfb:__ZNSt3__26vectorINS_12basic_stringIcNS_11char_traitsIcEENS_9allocatorIcEEEENS4_IS6_EEE13__move_assignERS8_NS_17integral_constantIbLb1EEE
roa:__ZNSt3__25dequeINS_4pairIjjEENS_9allocatorIS2_EEE9push_backEOS2_
HEd:__ZNSt3__212basic_stringIcNS_11char_traitsIcEENS_9allocatorIcEEE7replaceENS_11__wrap_iterIPKcEES9_NS_17basic_string_viewIcS2_EE
Ikb:__ZNSt3__25dequeIN6gevent12EventManager17EventQueueElementENS_9allocatorIS3_EEE5eraseENS_16__deque_iteratorIS3_PKS3_RS8_PKS9_iLi0EEESD_
q2:__ZN8FontBase8FontSpecD2Ev
oua:_serverStart
lOd:__ZNSt10bad_typeidD2Ev
Bxc:_psh_hint_table_align_hints
fq:_emscripten_glAttachShader
g_b:_luaK_stringK
gJa:__ZN16b2ParticleSystem10AddContactEiiP15b2ContactFilterP17b2ContactListenerP17b2ParticlePairSet
xmd:__ZNKSt3__210moneypunctIcLb0EE16do_negative_signEv
NNd:__ZNKSt20bad_array_new_length4whatEv
HH:FUNCTION_TABLE_vidddddd
GVb:__ZL6resizeP9lua_StateP5Tableii
SUc:_remainderf
dua:_JSPlayer_stop
$$b:_luaL_error
ULa:__ZN9b2FixtureC2Ev
ar:_emscripten_glDrawArraysInstanced
bT:__ZNSt3__2plIcNS_11char_traitsIcEENS_9allocatorIcEEEENS_12basic_stringIT_T0_T1_EERKS9_PKS6_
qc:ftCall_viiiii
Oja:__ZN12NetworkEventD2Ev
Uxc:_psh_glyph_compute_inflections
dFa:__ZN12b2WheelJointC2EPK15b2WheelJointDef
k_c:___get_resolv_conf
kRa:__ZL14lzstream_closeP9lua_State
K5a:__ZN8FontBase8FontSpecC2Ev
K1c:___pthread_self_587
ILb:_encode_mcu
wga:__ZN17ogl2ShaderTexture9setNativeEPv
omd:__ZNSt3__215time_put_bynameIwNS_19ostreambuf_iteratorIwNS_11char_traitsIwEEEEED2Ev
eKd:__ZNSt3__212_GLOBAL__N_18as_floatIeNS_12basic_stringIcNS_11char_traitsIcEENS_9allocatorIcEEEEEET_RKS7_RKT0_Pj
aRd:__ZN10__cxxabiv112_GLOBAL__N_121parse_floating_numberIfNS0_2DbEEEPKcS4_S4_RT0_
_Kb:_start_iMCU_row_155
A6b:__ZL4sortP9lua_State
ayd:__ZNSt3__26locale5__imp7installINS_9money_putIcNS_19ostreambuf_iteratorIcNS_11char_traitsIcEEEEEEEEvPT_
$Rc:_acoshf
aLb:_compress_first_pass
nGc:_is_valid_note
uMa:__ZN19b2PrismaticJointDef10InitializeEP6b2BodyS1_RK6b2Vec2S4_
rNa:__ZNK13b2PulleyJoint10GetLengthAEv
hqc:_Ins_LOOPCALL
g$a:__ZN18b2RevoluteJointDefC2Ev
FMd:__ZNSt3__213__vector_baseINS_4pairIPNS_18condition_variableEPNS_5mutexEEENS_18__hidden_allocatorIS6_EEED2Ev
UKa:__ZNSt3__29remove_ifIPN16b2ParticleSystem5TriadEPFbRKS2_EEET_S8_S8_T0_
fec:_mpg123_getparam
ima:_ginput_stopGyroscope
fb:invoke_vid
bka:__ZNSt3__26vectorINS_4pairINS_12basic_stringIcNS_11char_traitsIcEENS_9allocatorIcEEEEfEENS5_IS8_EEE26__swap_out_circular_bufferERNS_14__split_bufferIS8_RS9_EE
rEd:__ZNSt3__212basic_stringIcNS_11char_traitsIcEENS_9allocatorIcEEE6insertEjPKc
IQd:__ZN10__cxxabiv112_GLOBAL__N_111string_pairC2ILj12EEERAT__Kc
Hb:invoke_vii
PU:__ZN4Font20readTextureGlyphsOldEPKc
aP:__ZNSt3__23mapINS_12basic_stringIcNS_11char_traitsIcEENS_9allocatorIcEEEEiNS_4lessIS6_EENS4_INS_4pairIKS6_iEEEEEixEOS6_
D0a:__ZN12Box2DBinder228b2FrictionJoint_setMaxTorqueEP9lua_State
ABc:_FT_Get_Charmap_Index
E8b:__ZN6snappy16UNALIGNED_LOAD32EPKv
jNc:_processblock_51
dyb:_png_get_pixel_aspect_ratio_fixed
$Fb:_jpeg_start_decompress
rZb:__ZL8codecompP9FuncState6OpCodeiP7expdescS3_
g2c:_a_store_607
K_c:___res_msend
ONb:__ZN11NetworkBase8sendDataEPKvjb
CHd:__ZNKSt3__212basic_stringIwNS_11char_traitsIwEENS_9allocatorIwEEE5frontEv
lKb:_jpeg_suppress_tables
ARb:___gl_meshSplice
Rac:_INT123_reset_icy
Mvc:_cf2_builder_cubeTo
iSc:_cbrt
PVa:__ZN10MeshBinder15clearColorArrayEP9lua_State
Ev:_emscripten_webgl_enable_extension
Xfa:__ZN20gl2ShaderBufferCache8recreateEv
HA:_glfwLoadTextureImage2D
K4:__ZN10Tesselator9tesselateERKNSt3__26vectorINS1_I6Point2IfENS0_9allocatorIS3_EEEENS4_IS6_EEEEb
Fzc:_ft_conic_is_small_enough
YT:__ZNSt3__23mapINS_4pairIiiEEiNS_4lessIS2_EENS_9allocatorINS1_IKS2_iEEEEED2Ev
Uvd:__ZNKSt3__210moneypunctIwLb0EE10neg_formatEv
P2:__Z10oglCleanupv
FPc:___fesetround
sva:__ZN19b2IntrusiveListNode12InsertBeforeEPS_
jj:___syscall29
Tab:__ZNK4SlotI12CppLuaBridge8LuaEventE2t1Ev
boc:_tt_size_done
QWa:__ZN13GGAlertDialog8callbackEiPv
Rmd:__ZNKSt3__210moneypunctIwLb0EE14do_curr_symbolEv
Oi:___syscall20
wKb:_write_tables_only
Mza:__ZN19b2IntrusiveListNode6RemoveEv
UA:_glfwSetMouseWheel
aL:__ZNSt3__214__split_bufferIPP6SpriteRNS_9allocatorIS3_EEED2Ev
hT:__ZN4Font11getAscenderEv
Q$a:__ZN9b2Contact16ResetRestitutionEv
fKc:_strtol_l
oZc:_copy_addr
i_c:_prefixmatch
ADa:__ZN9b2Fixture7DestroyEP16b2BlockAllocator
dKd:__ZNSt3__25stoldERKNS_12basic_stringIcNS_11char_traitsIcEENS_9allocatorIcEEEEPj
MXd:_glFramebufferTexture2D__wrapper
Vcc:_III_hybrid
AWa:__ZN17GGTextInputDialog4hideEv
Xed:__ZNSt3__213basic_ostreamIwNS_11char_traitsIwEEE5flushEv
ttd:__ZNKSt3__27num_getIcNS_19istreambuf_iteratorIcNS_11char_traitsIcEEEEE3getES4_S4_RNS_8ios_baseERjRb
Ax:_glDrawArrays
Btd:__ZNKSt3__27num_getIcNS_19istreambuf_iteratorIcNS_11char_traitsIcEEEEE3getES4_S4_RNS_8ios_baseERjRd
rCc:_FT_Stream_GetUOffset
j4:__ZNSt3__214__split_bufferIP11TextureBaseRNS_9allocatorIS2_EEED2Ev
utd:__ZNKSt3__27num_getIcNS_19istreambuf_iteratorIcNS_11char_traitsIcEEEEE3getES4_S4_RNS_8ios_baseERjRl
xWb:_lua_newthread
WUa:__ZN12_GLOBAL__N_114GGSoundChannel8getPitchEv
tXa:__ZN13GGGeolocation19stopUpdatingHeadingEv
wtd:__ZNKSt3__27num_getIcNS_19istreambuf_iteratorIcNS_11char_traitsIcEEEEE3getES4_S4_RNS_8ios_baseERjRt
Qsa:_ghttp_Delete
vtd:__ZNKSt3__27num_getIcNS_19istreambuf_iteratorIcNS_11char_traitsIcEEEEE3getES4_S4_RNS_8ios_baseERjRx
ztd:__ZNKSt3__27num_getIcNS_19istreambuf_iteratorIcNS_11char_traitsIcEEEEE3getES4_S4_RNS_8ios_baseERjRy
f$c:_lcong48
gmb:__ZNSt3__26__treeINS_12__value_typeINS_12basic_stringIcNS_11char_traitsIcEENS_9allocatorIcEEEE13GGAudioLoaderEENS_19__map_value_compareIS7_S9_NS_4lessIS7_EELb1EEENS5_IS9_EEE4findIS7_EENS_15__tree_iteratorIS9_PNS_11__tree_nodeIS9_PvEEiEERKT_
bxd:__ZNSt3__214codecvt_bynameIwc11__mbstate_tEC2EPKcj
jad:__ZNSt3__213shared_futureIvED2Ev
g2a:__ZN12Box2DBinder218b2Joint_getAnchorAEP9lua_State
O6b:__ZL8loader_CP9lua_State
tr:_emscripten_glFramebufferTexture2D
EX:__ZN11Application19deleteAutounrefPoolEPv
rHd:__ZNSt3__212basic_stringIwNS_11char_traitsIwEENS_9allocatorIwEEE6appendENS_17basic_string_viewIwS2_EE
aYc:_syslog
QUd:mftCall_vidddddddddddd
AA:_glfwGetWindowParam
jlb:_g_NextId
GT:__ZN12VertexBufferI6Point2IfEEC2ERKS2_
yed:__ZNSt3__213basic_istreamIcNS_11char_traitsIcEEE3getEv
jBd:__ZnajSt11align_val_t
ELc:_cprojl
n$c:___srandom
Crc:_Ins_GETVARIATION
Uh:___lock
Pta:_ggeolocation_removeCallback
jPb:__ZN11CPVRTStringC2Ejc
R7:__ZNK3Dib14originalHeightEv
cpa:__ZNSt3__26__treeIPN12_GLOBAL__N_121GGStreamOpenALManager7ChannelENS_4lessIS4_EENS_9allocatorIS4_EEE12__find_equalIS4_EERPNS_16__tree_node_baseIPvEERPNS_15__tree_end_nodeISE_EERKT_
SBc:_FT_List_Up
KSc:_finite
oS:__ZNSt3__26vectorI8RectSizeNS_9allocatorIS1_EEE6resizeEj
UGd:__ZNKSt3__212basic_stringIwNS_11char_traitsIwEENS_9allocatorIwEEE5crendEv
aX:__ZNK11Application14getImageScalesEv
tna:__ZN14GGAudioManager17beginInterruptionEv
CMa:__ZN16b2PrismaticJoint11EnableLimitEb
a1b:__ZL13luaB_newproxyP9lua_State
GBd:__ZNSt3__213__lower_boundIRNS_12_GLOBAL__N_110use_strcmpEPKNS1_14collationnamesEPKcEET0_S9_S9_RKT1_T_
Uyc:_FT_Done_Glyph
jJd:__ZNSt3__212basic_stringIwNS_11char_traitsIwEENS_9allocatorIwEEE13__move_assignERS5_NS_17integral_constantIbLb0EEE
Hjc:_FT_Stream_ReadChar
god:__ZNSt3__219__double_or_nothingIjEEvRNS_10unique_ptrIT_PFvPvEEERPS2_S9_
aQ:__ZNK7TileMap3getEiiPtS0_PiPjP7GStatus
vRd:__ZNKSt3__26vectorINS0_IN10__cxxabiv112_GLOBAL__N_111string_pairENS2_11short_allocIS3_Lj4096EEEEENS4_IS6_Lj4096EEEE8max_sizeEv
ntb:_z_adler32
JPc:_feupdateenv
H9c:__ZNSt3__212future_errorD2Ev
Foa:__ZNSt3__26__treeINS_12__value_typeImPN12_GLOBAL__N_121GGStreamOpenALManager5SoundEEENS_19__map_value_compareImS6_NS_4lessImEELb1EEENS_9allocatorIS6_EEE25__emplace_unique_key_argsImJRKNS_21piecewise_construct_tENS_5tupleIJRKmEEENSI_IJEEEEEENS_4pairINS_15__tree_iteratorIS6_PNS_11__tree_nodeIS6_PvEEiEEbEERKT_DpOT0_
_qd:__ZNKSt3__25ctypeIwE9do_narrowEwc
EO:__ZN11TexturePackC2EP11ApplicationPKcS3_6Filter4Wrap6Formatbj
Wid:__ZNSt3__27num_getIwNS_19istreambuf_iteratorIwNS_11char_traitsIwEEEEED2Ev
E3c:_ecvt
fW:__ZN11Application10mouseWheelEiiii
XP:__ZNSt3__214__split_bufferIN7TileMap6TileIdERNS_9allocatorIS2_EEE18__construct_at_endEjRKS2_
uva:__ZNK14b2TrackedBlock9GetMemoryEv
GFc:_smix_stereo_16bit_linear_filter
CQd:__ZN10__cxxabiv112_GLOBAL__N_123parse_unnamed_type_nameINS0_2DbEEEPKcS4_S4_RT_
Ig:_TTF_Quit
wea:__ZNSt3__214__split_bufferIPN12ShaderEngine12DepthStencilERNS_9allocatorIS3_EEE18__construct_at_endINS_13move_iteratorIPS3_EEEENS_9enable_ifIXsr21__is_forward_iteratorIT_EE5valueEvE4typeESD_SD_
_Lc:___crypt_blowfish
lnc:_af_cjk_align_linked_edge
ula:_ginput_init
hUc:_log10
hQa:__ZN8MemCacheD0Ev
YGc:_xmp_set_player
eWa:__ZNKSt3__26vectorIjNS_9allocatorIjEEE8max_sizeEv
X9c:__ZNSt3__217__assoc_sub_state4waitEv
CBd:__ZNSt3__211regex_errorD0Ev
FTd:_saveSetjmp
kW:__ZN11Application12touchesBeginEP17ginput_TouchEvent
KNb:__ZNSt3__214__split_bufferIPP12QueueElementNS_9allocatorIS3_EEE9push_backEOS3_
Kma:__ZN6ginput12InputManager13newMouseEventEiiii
Rpd:__ZNKSt3__214collate_bynameIwE10do_compareEPKwS3_S3_S3_
Z_a:__ZL6toBodyRK6Binderi
Fcd:__ZNSt3__29basic_iosIwNS_11char_traitsIwEEE7copyfmtERKS3_
phc:_Vertical_Sweep_Drop
$Ua:__ZN12_GLOBAL__N_114GGSoundChannel11setPositionEj
wjb:_gtexture_SaveRenderTargets
ieb:_block_prev
oEb:_png_do_write_swap_alpha
lub:_gf2_matrix_times
xxd:__ZNSt3__212_GLOBAL__N_14makeINS_7codecvtIwc11__mbstate_tEEjEERT_T0_
Bb:invoke_vidi
uId:__ZNKSt3__212basic_stringIwNS_11char_traitsIwEENS_9allocatorIwEEE4findEPKwj
nbc:_align_the_pointer
hb:invoke_vidd
mWa:__ZN21TextInputDialogBinder4showEP9lua_State
Iz:_glUseProgram
flc:_inflate_blocks
Gz:_glUniformMatrix3fv
kea:__ZNSt3__214__split_bufferIPN12ShaderEngine7ScissorERNS_9allocatorIS3_EEEC2EjjS6_
rDa:__ZN15b2GrowableStackIiLi256EE3PopEv
kYa:__ZNSt3__26vectorINS_4pairINS_12basic_stringIcNS_11char_traitsIcEENS_9allocatorIcEEEES7_EENS5_IS8_EEE26__swap_out_circular_bufferERNS_14__split_bufferIS8_RS9_EE
uBc:_FT_Select_Size
Qzd:__ZNSt3__26locale8__globalEv
KQ:__ZN5GMesh9setVertexEifff
WEc:_note_to_period
XCc:_xm_load
VNa:__ZN16b2ParticleSystem21RequestGrowableBufferINS_5ProxyEEEPT_S3_iPi
_0:__ZNSt3__26vectorIP8SlotBaseNS_9allocatorIS2_EEE26__swap_out_circular_bufferERNS_14__split_bufferIS2_RS4_EE
W0c:_mkdirat
jhc:_ft_black_render
Bba:__ZN6Sprite11setRotationEf
vcd:__ZNKSt3__29basic_iosIwNS_11char_traitsIwEEE3eofEv
fIb:_rgb_convert
WZa:__ZNK14LuaApplication11orientationEv
Qg:_XCreateWindow
Kw:_glBindBuffer
YM:__ZN9StopWatch5pauseEv
Htd:__ZNKSt3__27num_getIwNS_19istreambuf_iteratorIwNS_11char_traitsIwEEEEE3getES4_S4_RNS_8ios_baseERjRx
Ltd:__ZNKSt3__27num_getIwNS_19istreambuf_iteratorIwNS_11char_traitsIwEEEEE3getES4_S4_RNS_8ios_baseERjRy
D_a:__ZN12Box2DBinder218b2EdgeShape_createEP9lua_State
qoc:_tt_loader_init
zCb:_png_set_quantize
lec:_mpg123_open
Mtd:__ZNKSt3__27num_getIwNS_19istreambuf_iteratorIwNS_11char_traitsIwEEEEE3getES4_S4_RNS_8ios_baseERjRf
KU:__ZN10BMFontBaseD0Ev
tQd:__ZN10__cxxabiv112_GLOBAL__N_116parse_throw_exprINS0_2DbEEEPKcS4_S4_RT_
LVb:__ZL7hashnumPK5Tabled
xY:__ZN6Screen7setSizeEii
Gtd:__ZNKSt3__27num_getIwNS_19istreambuf_iteratorIwNS_11char_traitsIwEEEEE3getES4_S4_RNS_8ios_baseERjRl
Ktd:__ZNKSt3__27num_getIwNS_19istreambuf_iteratorIwNS_11char_traitsIwEEEEE3getES4_S4_RNS_8ios_baseERjRm
eu:_emscripten_run_preload_plugins_data
sB:_glutFullScreen
cnd:__ZNKSt3__210moneypunctIwLb1EE16do_negative_signEv
Jdb:_tlsf_remove_pool
V6c:__ZNSt3__27__sort3IRNS_6__lessIhhEEPhEEjT0_S5_S5_T_
Eha:__ZL10corner_endP12kvec_float_tff
Hr:_emscripten_glGetBooleanv
dya:__ZN15b2FrictionJointD0Ev
s2:__ZL4readP13FT_StreamRec_mPhm
leb:__GLOBAL__sub_I_drawinfo_cpp
eT:__ZN4FontD0Ev
xM:__ZN8ViewportC2EP11Application
Xuc:_cf2_glyphpath_pushMove
MU:__ZN4Font11constructorEPKcS1_b
Z6:__ZNSt3__26__treeIP5TimerNS_4lessIS2_EENS_9allocatorIS2_EEE4findIS2_EENS_15__tree_iteratorIS2_PNS_11__tree_nodeIS2_PvEEiEERKT_
W$a:__ZL5getb2P9lua_StatePv
Qrb:_g__srget
Dld:__ZThn8_NKSt3__215time_get_bynameIcNS_19istreambuf_iteratorIcNS_11char_traitsIcEEEEE7__am_pmEv
OJc:___stdio_read
W5:__ZN15EventDispatcherD0Ev
g8b:__ZN8pystring2os4path7abspathERKNSt3__212basic_stringIcNS2_11char_traitsIcEENS2_9allocatorIcEEEESA_
ywb:_png_app_warning
e1:__ZNSt3__26__treeINS_12__value_typeIiNS_6vectorIPN9MovieClip5FrameENS_9allocatorIS5_EEEEEENS_19__map_value_compareIiS9_NS_4lessIiEELb1EEENS6_IS9_EEE16__insert_node_atEPNS_15__tree_end_nodeIPNS_16__tree_node_baseIPvEEEERSK_SK_
LS:__ZN15MaxRectsBinPack9PlaceRectERK4Rect
kRd:__ZN10__cxxabiv112_GLOBAL__N_111short_allocINSt3__26vectorINS0_11string_pairENS1_IS4_Lj4096EEEEELj4096EEC2IS4_EERKNS1_IT_Lj4096EEE
fNa:__ZNK12b2MotorJoint11GetMaxForceEv
Ctd:__ZNKSt3__27num_getIcNS_19istreambuf_iteratorIcNS_11char_traitsIcEEEEE3getES4_S4_RNS_8ios_baseERjRe
pta:__ZNSt3__26__treeINS_12__value_typeIm8UiDialogEENS_19__map_value_compareImS3_NS_4lessImEELb1EEENS_9allocatorIS3_EEE13__lower_boundImEENS_15__tree_iteratorIS3_PNS_11__tree_nodeIS3_PvEEiEERKT_SG_PNS_15__tree_end_nodeIPNS_16__tree_node_baseISE_EEEE
IQ:__ZN5GMeshC2EP11Applicationb
pnd:__ZNKSt3__217moneypunct_bynameIcLb0EE13do_pos_formatEv
tNc:_md5_update_2444
VNc:_iswdigit
O8b:__ZN6snappy17UNALIGNED_STORE16EPvt
btb:__Z20getResourceDirectoryv
mfa:__ZN17ogl2ShaderProgram14compilationLogEv
fSa:__ZNKSt3__26__treeINS_12__value_typeIP7ClosureP11ProfileInfoEENS_19__map_value_compareIS3_S6_NS_4lessIS3_EELb1EEENS_9allocatorIS6_EEE10__root_ptrEv
rg:_SDL_WaitThread
zkd:__ZNKSt3__28time_getIcNS_19istreambuf_iteratorIcNS_11char_traitsIcEEEEE12__get_minuteERiRS4_S4_RjRKNS_5ctypeIcEE
Atd:__ZNKSt3__27num_getIcNS_19istreambuf_iteratorIcNS_11char_traitsIcEEEEE3getES4_S4_RNS_8ios_baseERjRf
Hmb:__ZNSt3__26__treeIPN14GGSoundManager7ChannelENS_4lessIS3_EENS_9allocatorIS3_EEE4findIS3_EENS_15__tree_iteratorIS3_PNS_11__tree_nodeIS3_PvEEiEERKT_
y5c:_getuid
g0a:__ZN11b2DebugDraw16DrawSolidPolygonEPK6b2Vec2iRK7b2Color
aGc:_check_envelope_end
Shb:__ZN9g_private14TextureManagerD2Ev
_zd:__ZNSt3__26locale14__install_ctorERKS0_PNS0_5facetEl
lUc:_log2
rB:_glutDisplayFunc
iKb:_jpeg_CreateCompress
rHc:_xmp_load_module_from_file
UYc:_getoffs
lkb:__ZN19gevent_CallbackList9equal_gidC2Em
h5b:__ZL8math_radP9lua_State
ZBb:_png_image_read_direct
Xkb:__ZNSt3__212__deque_baseIN6gevent12EventManager17EventQueueElementENS_9allocatorIS3_EEE5clearEv
jAd:__ZNSt3__214__shared_countD2Ev
Bh:___cxa_find_matching_catch
WJc:_strtox_767
d6c:_rmdir
B7:__ZNSt3__24moveIPNS_4pairIP5TimeriEES4_S5_RS4_PS5_iLi0EEENS_16__deque_iteratorIT0_T1_T2_T3_T4_XT5_EEET_SF_SE_PNS_9enable_ifIXsr27__is_random_access_iteratorISF_EE5valueEvE4typeE
Xmd:__ZNSt3__210moneypunctIwLb1EED2Ev
ut:_emscripten_glVertexAttribDivisorEXT
KTa:__ZN14ViewportBinder8destructEP9lua_State
eMa:__ZN6b2Body13CreateFixtureEPK12b2FixtureDef
Sec:_bc_fill_pool
mCb:_make_gray_colormap
UNd:__ZNSt11logic_errorD2Ev
jIb:_start_pass_merged_upsample
Yrc:_Round_To_Half_Grid
sla:___cxx_global_var_init_503
nAc:_hash_bucket
c8a:__ZN12SpriteBinder19setStencilOperationEP9lua_State
TSa:__ZN15ParticlesBinder16getParticleSpeedEP9lua_State
kJ:__ZNSt3__26vectorItNS_9allocatorItEEE6resizeEj
UQa:__ZN17PrintStackCheckerD2Ev
rw:_gethostbyaddr
$mb:__ZN14GGSoundManager16unregisterLoaderEPKc
_bd:__ZNSt3__28ios_base7copyfmtERKS0_
r4b:__ZL12utf8_ispunctj
ioa:__ZN12_GLOBAL__N_121GGStreamOpenALManager7preTickEv
WB:_kill
dD:_logl
jGc:_reset_envelopes_carry
u6:__ZNSt3__26__treeINS_12__value_typeIdNS_6vectorIP5TimerNS_9allocatorIS4_EEEEEENS_19__map_value_compareIdS8_NS_4lessIdEELb1EEENS5_IS8_EEE7destroyEPNS_11__tree_nodeIS8_PvEE
cD:_logf
Mu:_emscripten_set_mouseup_callback
d1:__ZNSt3__26__treeINS_12__value_typeIiNS_6vectorIPN9MovieClip5FrameENS_9allocatorIS5_EEEEEENS_19__map_value_compareIiS9_NS_4lessIiEELb1EEENS6_IS9_EEE16__construct_nodeIJRKNS_21piecewise_construct_tENS_5tupleIJRKiEEENSK_IJEEEEEENS_10unique_ptrINS_11__tree_nodeIS9_PvEENS_22__tree_node_destructorINS6_ISS_EEEEEEDpOT_
uNc:_md5_sum
oUc:_logb
iEc:_mread16b
Xra:__ZN10emscripten8internal12WireTypePackIJNS_3valES2_RS2_S2_S2_S2_iiiEEC2EOS2_S5_S3_S5_S5_S5_OiS6_S6_
_Hd:__ZNSt3__212basic_stringIwNS_11char_traitsIwEENS_9allocatorIwEEE7replaceEjjNS_17basic_string_viewIwS2_EE
UUa:__ZN12_GLOBAL__N_114GGSoundChannel9isPlayingEv
lcb:__ZL11instance_ofP9lua_State
GDc:_mread16l
Tfb:_utf8_to_wchar
rEc:_virt_off
Akb:__ZNSt3__214__split_bufferIPN6gevent12EventManager17EventQueueElementENS_9allocatorIS4_EEE9push_backEOS4_
_db:_search_suitable_block
SDb:_png_write_iTXt
Qu:_emscripten_set_resize_callback
U8c:__ZNSt3__224__libcpp_debug_exception28__libcpp_debug_exception_impC2ERKS1_
Sab:__ZN4SlotI12CppLuaBridge8LuaEventE4callEP5Event
$l:_alDopplerFactor
nqa:__ZNSt3__26__treeINS_12__value_typeImPN21GGSampleOpenALManager7ChannelEEENS_19__map_value_compareImS5_NS_4lessImEELb1EEENS_9allocatorIS5_EEE5eraseENS_21__tree_const_iteratorIS5_PNS_11__tree_nodeIS5_PvEEiEE
yCc:_FT_List_Iterate
VEb:_jinit_input_controller
IAd:__ZNSt3__25mutex6unlockEv
wuc:_cf2_hintmask_getMaskPtr
b9a:__ZN12MatrixBinder9getMatrixEP9lua_State
Wc:_IMG_Load
gYc:_getdelim
yCb:_convert_gamma_value
ttb:_copy_block
Yob:__ZL13mpg123cleanupPv
$6a:__ZN12SpriteBinder13getChildIndexEP9lua_State
ZRa:__ZNKSt3__26__treeINS_12__value_typeINS_12basic_stringIcNS_11char_traitsIcEENS_9allocatorIcEEEEP11ProfileInfoEENS_19__map_value_compareIS7_SA_NS_4lessIS7_EELb1EEENS5_ISA_EEE10__root_ptrEv
v7b:__ZN8pystring7isspaceERKNSt3__212basic_stringIcNS0_11char_traitsIcEENS0_9allocatorIcEEEE
sTa:__ZN11PixelBinder16setTextureMatrixEP9lua_State
frd:__ZNSt3__214__codecvt_utf8IwED0Ev
AUd:mftCall_iiiiiiii
qwc:_cff_cmap_unicode_init
Tka:__ZL6_mkdirPKc
TWb:_lua_toboolean
Uk:__emscripten_sample_gamepad_data
OY:__ZNSt3__26__treeIP6ScreenNS_4lessIS2_EENS_9allocatorIS2_EEE12__find_equalIS2_EERPNS_16__tree_node_baseIPvEERPNS_15__tree_end_nodeISC_EERKT_
q7c:__ZNSt3__26__sortIRNS_6__lessIjjEEPjEEvT0_S5_T_
Zbb:__ZNSt3__214__split_bufferIP12CppLuaBridgeRNS_9allocatorIS2_EEEC2EjjS5_
n$:__Z4qMaxdd
bYa:__ZNKSt3__26vectorI12ghttp_HeaderNS_9allocatorIS1_EEE8max_sizeEv
NHa:__ZNSt3__220get_temporary_bufferIN16b2ParticleSystem4PairEEENS_4pairIPT_iEEi
JPb:__ZNK11CPVRTString17find_first_not_ofEPKcj
tib:__ZNSt3__225__lexicographical_compareIRNS_6__lessIccEENS_11__wrap_iterIPKcEES7_EEbT0_S8_T1_S9_T_
Tva:__ZNK12b2ChainShape7RayCastEP15b2RayCastOutputRK14b2RayCastInputRK11b2Transformi
m$c:_srandom
G5c:_fdatasync
kBc:_new_memory_stream
jwa:__ZN15b2ContactFilter13ShouldCollideEP9b2FixtureS1_
gf:_SDL_JoystickName
Wzb:_png_init_filter_functions
IUd:mftCall_vi
AHc:_mtell
eY:__GLOBAL__sub_I_pixel_cpp
gdc:_INT123_synth_1to1_8bit_wrap_mono
Meb:__ZNSt3__26__treeINS_12__value_typeIPvP11GReferencedEENS_19__map_value_compareIS2_S5_NS_4lessIS2_EELb1EEENS_9allocatorIS5_EEE25__emplace_unique_key_argsIS2_JRKNS_21piecewise_construct_tENS_5tupleIJRKS2_EEENSH_IJEEEEEENS_4pairINS_15__tree_iteratorIS5_PNS_11__tree_nodeIS5_S2_EEiEEbEERKT_DpOT0_
SWc:_fopen
FG:nonConstNoSmartPtrRawPointerToWireType
iE:_pthread_rwlock_init
Y7c:__ZNSt3__218__insertion_sort_3IRNS_6__lessIffEEPfEEvT0_S5_T_
Ggb:__ZNSt3__26__treeINS_12__value_typeIiN9g_private12TimerManager12TimerElementEEENS_19__map_value_compareIiS5_NS_4lessIiEELb1EEENS_9allocatorIS5_EEE16__insert_node_atEPNS_15__tree_end_nodeIPNS_16__tree_node_baseIPvEEEERSH_SH_
uIb:_pass2_fs_dither
XDb:_png_write_IEND
$Ha:__ZNSt3__26uniqueIPN16b2ParticleSystem5TriadEPFbRKS2_S5_EEET_S8_S8_T0_
J_b:__ZL10LoadStringP9LoadState
$2c:_setbuf
kQd:__ZN10__cxxabiv112_GLOBAL__N_127parse_reinterpret_cast_exprINS0_2DbEEEPKcS4_S4_RT_
xS:__ZN15MaxRectsBinPack4InitEii
NN:__ZNSt3__26vectorItNS_9allocatorItEEE18__construct_at_endIPtEENS_9enable_ifIXsr21__is_forward_iteratorIT_EE5valueEvE4typeES7_S7_j
nba:__ZNK6Sprite12hitTestPointEffb
NFb:_jpeg_mem_available
Fdb:_block_set_used
WGb:_jpeg_huff_decode
iXc:_vfscanf
Xfd:__ZNSt3__213basic_ostreamIcNS_11char_traitsIcEEElsEj
tIc:__ZN10emscripten8internal6TypeIDINS_11memory_viewIlEEE3getEv
cfb:_xtime
mnc:_af_hint_normal_stem
Wfd:__ZNSt3__213basic_ostreamIcNS_11char_traitsIcEEElsEi
nrd:__ZNSt3__214__codecvt_utf8IDsED0Ev
Akd:__ZNKSt3__28time_getIcNS_19istreambuf_iteratorIcNS_11char_traitsIcEEEEE17__get_white_spaceERS4_S4_RjRKNS_5ctypeIcEE
Se:_SDL_Has3DNowExt
twb:_png_colorspace_set_gamma
KPc:___flt_rounds
Xca:__ZNK7Matrix414transformPointEffPfS0_
YCa:__ZN23b2EdgeAndPolygonContact7DestroyEP9b2ContactP16b2BlockAllocator
dRc:_iswspace_l
ETd:_bitshift64Shl
wsa:__ZN10emscripten8internal20writeGenericWireTypeImEEvRPNS0_15GenericWireTypeET_
euc:_cf2_initGlobalRegionBuffer
tJ:__ZNSt3__214__split_bufferINS_12basic_stringIcNS_11char_traitsIcEENS_9allocatorIcEEEERNS4_IS6_EEED2Ev
V3:__ZNK5Shape11extraBoundsEPfS0_S0_S0_
jdd:__ZNKSt3__215basic_streambufIcNS_11char_traitsIcEEE4gptrEv
C_c:_ns_initparse
ezb:_png_get_mem_ptr
iAb:_png_handle_sBIT
lha:__ZL13stencilopToGlN12ShaderEngine9StencilOpE
gGb:_prepare_range_limit_table
nka:__ZNSt3__23mapINS_12basic_stringIcNS_11char_traitsIcEENS_9allocatorIcEEEENS_6vectorIhNS4_IhEEEENS_4lessIS6_EENS4_INS_4pairIKS6_S9_EEEEEixERSD_
SCb:_png_set_sRGB_gAMA_and_cHRM
hea:__ZN12ShaderEngine7ScissorC2ERKS0_iiii
XZb:__ZL16read_long_stringP8LexStateP7SemInfoi
bRa:__ZL13lzlib_deflateP9lua_State
Qac:_INT123_reset_id3
wnc:_af_cjk_metrics_check_digits
azd:__ZNSt3__26locale5__imp7installINS_15messages_bynameIcEEEEvPT_
iPb:__ZN11CPVRTStringC2EPKcj
lpc:_tt_glyphzone_done
bXc:_fgets
DH:FUNCTION_TABLE_vid
P2b:_luaopen_table
VQa:__Z13register_zlibP9lua_State
RH:FUNCTION_TABLE_vii
xN:__ZN9Transform5setXYEff
mh:___atomic_is_lock_free
Zwc:_ps_unicodes_init
pxb:_png_destroy_gamma_table
$sb:__Z21getDocumentsDirectoryv
Nt:_emscripten_idb_store
Gib:__ZNKSt3__26__treeINS_12__value_typeImPN9g_private14TextureElementEEENS_19__map_value_compareImS5_NS_4lessImEELb1EEENS_9allocatorIS5_EEE10__root_ptrEv
Uea:__ZN16ogl2ShaderBufferD0Ev
aXd:_glDeleteFramebuffers__wrapper
Nu:_emscripten_set_orientationchange_callback
h7:__ZNK9EventTypeI10TimerEventE4typeEv
n1c:_clearerr
kbc:_mpg123_new_pars
WW:__ZNSt3__214__split_bufferIN11Application10ImageScaleERNS_9allocatorIS2_EEED2Ev
tS:__Z30createProgressiveTexturePackerii
Kbd:__ZNSt3__217iostream_categoryEv
bV:__GLOBAL__sub_I_dib_cpp
wMc:_ror_64
Utc:_cff_blend_build_vector
XPd:__ZN10__cxxabiv112_GLOBAL__N_120parse_function_paramINS0_2DbEEEPKcS4_S4_RT_
nzb:_png_crc_finish
HAb:_png_set_pHYs
tPb:__ZNK11CPVRTStringltERKS_
Gvc:_cff_blend_doBlend
pec:_default_init
vob:_gaudio_BackgroundMusicIsAvailable
O5c:_getpgrp
qmd:__ZNSt3__210moneypunctIcLb0EED2Ev
mXd:b45
Ul:_alBufferfv
oXd:b47
nXd:b46
YWd:b41
XWd:b40
HF:_uuid_is_null
Mod:__ZNSt3__217__widen_from_utf8ILj32EED0Ev
gfa:__ZN17ogl2ShaderProgram10deactivateEv
$n:_clock_settime
fFc:_check_end_of_module
ZCc:_hio_read
tCc:_FT_Stream_ReadUShortLE
a3b:__ZL3LltP9lua_State
K3b:__ZL16Lutf8_widthindexP9lua_State
B2c:_getw
aga:__ZNKSt3__26vectorIP17ogl2ShaderProgramNS_9allocatorIS2_EEE8max_sizeEv
y$a:__ZNK15b2ParticleGroup16ContainsParticleEi
UMc:___pthread_self_107
cxd:__ZNSt3__27codecvtIwc11__mbstate_tEC2EPKcj
tBd:__ZNSt12experimental19bad_optional_accessD0Ev
hx:_glCreateProgram
q8b:__ZN8pystring2os4path13dirname_posixERKNSt3__212basic_stringIcNS2_11char_traitsIcEENS2_9allocatorIcEEEE
Wkd:__ZNKSt3__220__time_get_c_storageIwE3__xEv
s8:__ZNK9EventTypeI11LayoutEventE2idEv
rRc:_strfmon_l
bha:__ZNSt3__219basic_ostringstreamIcNS_11char_traitsIcEENS_9allocatorIcEEED2Ev
ku:_emscripten_set_beforeunload_callback
HTc:_jn
a3a:__ZN12Box2DBinder221b2Body_getWorldCenterEP9lua_State
ZGb:_decode_mcu_AC_first
pFc:_smix_stereo_8bit_nearest
Syd:__ZNSt3__215numpunct_bynameIwEC2ERKNS_12basic_stringIcNS_11char_traitsIcEENS_9allocatorIcEEEEj
Gj:___syscall337
noc:_TT_Get_HMetrics
ZEb:_finish_input_pass
SG:throwInstanceAlreadyDeleted
Zrb:_g_fclose
Tha:__ZL18evaluate_quadraticdddddddPdS_
t3b:__ZL11Lutf8_codesP9lua_State
XAa:__Z10b2DistanceRK6b2Vec2S1_
uTc:_pzerof
MHc:__ZN12_GLOBAL__N_1L16register_integerIcEEvPKc
G6a:__ZNSt3__214__split_bufferIPKcRNS_9allocatorIS2_EEED2Ev
itd:__ZNKSt3__220__codecvt_utf8_utf16IDsE9do_lengthER11__mbstate_tPKcS5_j
zZb:__ZL10invertjumpP9FuncStateP7expdesc
B9:__ZNSt3__25dequeINS_4pairIP6SpritebEENS_9allocatorIS4_EEE19__add_back_capacityEv
AY:__ZN6Screen11getPositionERiS0_
tUc:___DOUBLE_BITS_327
dAa:__ZN16b2StackAllocatorD2Ev
pUc:___DOUBLE_BITS_325
GO:__ZN11TexturePack15readTextureListEPKcRNSt3__26vectorINS_4RectENS2_9allocatorIS4_EEEERNS2_3mapINS2_12basic_stringIcNS2_11char_traitsIcEENS5_IcEEEEiNS2_4lessISE_EENS5_INS2_4pairIKSE_iEEEEEEPiSN_
ivb:_z_zlibCompileFlags
F9a:__ZN12MatrixBinder17getAnchorPositionEP9lua_State
QM:__ZN10BitmapDataC2EP11TextureBaseiiiiiiii
Nsa:__ZNK10emscripten8internal12WithPoliciesIJEE11ArgTypeListIJiNS_3valES4_RS4_NS_11memory_viewIhEES4_S4_iiiEE8getCountEv
Wx:_glGenBuffers
IH:FUNCTION_TABLE_vidddddddd
I6:__ZNKSt3__26vectorIP5TimerNS_9allocatorIS2_EEE8max_sizeEv
_Bd:__ZNSt3__218shared_timed_mutex13unlock_sharedEv
pKd:__ZNSt3__29to_stringEl
KLd:__ZNSt3__212strstreambufC2EPciS1_
Lza:__ZN19b2IntrusiveListNodeD2Ev
Np:_emscripten_get_compiler_setting
KS:__ZNK15MaxRectsBinPack9ScoreRectEiiNS_23FreeRectChoiceHeuristicERiS1_
Mka:__ZN18ApplicationManager14surfaceChangedEiii
ZR:__ZN15MyTexturePacker10addTextureEii
ib:ftCall_vidd
Cb:ftCall_vidi
QIa:__ZNSt3__220__half_inplace_mergeIPFbRKN16b2ParticleSystem4PairES4_EPS2_S7_S7_EEvT0_S8_T1_S9_T2_T_
aHb:_decode_mcu
RUd:mftCall_vidddiii
N8:__ZN13GridBagLayoutD2Ev
i9b:__ZNK6snappy18SnappyDecompressor3eofEv
AMa:__ZNK16b2PrismaticJoint13GetJointSpeedEv
L7:__ZN14TextureManager21createTextureFromFileEPKcRK17TextureParametersb
d3b:__ZL4LpowP9lua_State
Pqa:__ZNSt3__23mapImPN21GGSampleOpenALManager7ChannelENS_4lessImEENS_9allocatorINS_4pairIKmS3_EEEEED2Ev
zRd:__ZN10__cxxabiv112_GLOBAL__N_111short_allocINSt3__26vectorINS0_11string_pairENS1_IS4_Lj4096EEEEELj4096EE8allocateEj
MBd:__ZNKSt3__223__match_any_but_newlineIwE6__execERNS_7__stateIwEE
J_c:_res_init
rib:__ZNSt3__26__treeINS_12__value_typeINS_6vectorIcNS_9allocatorIcEEEEPN9g_private14TextureElementEEENS_19__map_value_compareIS5_S9_NS_4lessIS5_EELb1EEENS3_IS9_EEE5eraseENS_21__tree_const_iteratorIS9_PNS_11__tree_nodeIS9_PvEEiEE
kEc:_virt_getroot
KKb:_emit_jfif_app0
qRa:__ZL14lzstream_checkP9lua_Stateii
Toc:_FT_Vector_Length
xkc:_ft_glyphslot_free_bitmap
Pec:_bc_free
Orc:_Round_Down_To_Grid
TJb:_jpeg_fdct_16x16
jPa:__ZZN16b2ParticleSystem18JoinParticleGroupsEP15b2ParticleGroupS1_EN24JoinParticleGroupsFilterC2Ei
I_c:_recvmsg
NBb:_png_set_expand_gray_1_2_4_to_8
$1:__ZN6TTFont11getAscenderEv
lId:__ZNSt3__212basic_stringIwNS_11char_traitsIwEENS_9allocatorIwEEE4swapERS5_
iqa:__ZNSt3__26__treeINS_12__value_typeImPN21GGSampleOpenALManager5SoundEEENS_19__map_value_compareImS5_NS_4lessImEELb1EEENS_9allocatorIS5_EEE16__insert_node_atEPNS_15__tree_end_nodeIPNS_16__tree_node_baseIPvEEEERSH_SH_
qyc:_ps_hints_open
G5b:__ZL12str_find_auxP9lua_Statei
u2b:__ZL6g_readP9lua_StateP8g__sFILEi
q_c:_cleanup
kPc:_trinkle
JGd:__ZNKSt3__212basic_stringIwNS_11char_traitsIwEENS_9allocatorIwEEE5beginEv
pAd:__ZNSt3__214__shared_count16__release_sharedEv
ogc:_mpg123_add_substring
CVa:__ZN10MeshBinder9setColorsEP9lua_State
v6b:__ZL4getnP9lua_State
PB:_gmtime
_s:_emscripten_glUniform3i
DVb:__ZL10numusehashPK5TablePiS2_
r5a:__ZN15TextFieldBinderC2EP9lua_State
_Zc:_listen
iNd:___cxa_get_globals_fast
kva:__Z7b2Alloci
Npd:__ZNKSt3__214collate_bynameIcE10do_compareEPKcS3_S3_S3_
pXa:__ZN17GeolocationBinder21startUpdatingLocationEP9lua_State
jOd:__ZNSt8bad_castD0Ev
Wva:__ZNK12b2ChainShape12GetChildEdgeEP11b2EdgeShapei
nzd:__ZNSt3__26locale5__imp12install_fromINS_5ctypeIcEEEEvRKS1_
Gpa:__ZN21GGSampleOpenALManagerD0Ev
WE:_sigdelset
_Fc:_filter_setup
uw:_getitimer
Gl:__registerRestoreOldStyle
Wha:__ZN6Path2D11impressPathEi7Matrix4N12ShaderEngine12DepthStencilE
lCa:__ZN9b2Contact11GetFixtureAEv
n9:__ZN6GGPoolINSt3__25stackINS0_4pairIP6SpritebEENS0_5dequeIS5_NS0_9allocatorIS5_EEEEEEEC2Ev
qkb:__ZNSt3__214__split_bufferIN19gevent_CallbackList8CallbackERNS_9allocatorIS2_EEEC2EjjS5_
q$b:_lua_getupvalue
yDc:_CAN_READ_119
Hx:_glDrawBuffersEXT
Xi:___syscall209
Wi:___syscall208
Vi:___syscall207
wP:__ZN9Transform7composeEv
Ui:___syscall205
Ti:___syscall204
Si:___syscall203
Ri:___syscall202
Qi:___syscall201
Pi:___syscall200
S:Math_max
xb:invoke_viddid
lad:__ZNSt3__212__next_primeEj
ZXa:__ZN11GGUrlLoader10callback_sEiPvS0_
uB:_glutGetModifiers
HHd:__ZNSt3__212basic_stringIwNS_11char_traitsIwEENS_9allocatorIwEEE6assignEOS5_
V$c:_tre_expand_ast
flb:_gevent_RemoveEventsWithGid
zb:invoke_viddii
G1a:__ZN12Box2DBinder230b2PrismaticJoint_getJointSpeedEP9lua_State
Noc:_TT_Run_Context
ce:_SDL_Delay
LBb:_png_set_expand_16
NWc:_initgroups
VTc:___lgammaf_r
hr:_emscripten_glDrawElements
BRc:_strxfrm
Eeb:__ZNSt3__23mapIPvP11GReferencedNS_4lessIS1_EENS_9allocatorINS_4pairIKS1_S3_EEEEED2Ev
NAc:_destroy_charmaps
gVa:__ZNK14LuaApplication11getLuaStateEv
Ezd:__ZNSt3__26locale5__imp12install_fromINS_7num_getIwNS_19istreambuf_iteratorIwNS_11char_traitsIwEEEEEEEEvRKS1_
Kqc:_Ins_LT
xgd:__ZNSt3__213basic_ostreamIwNS_11char_traitsIwEEElsEs
j2a:__ZN12Box2DBinder224b2Joint_getReactionForceEP9lua_State
Hvc:_FT_RoundFix
FId:__ZNKSt3__212basic_stringIwNS_11char_traitsIwEENS_9allocatorIwEEE13find_first_ofEPKwjj
ygd:__ZNSt3__213basic_ostreamIwNS_11char_traitsIwEEElsEt
D8:__ZNSt3__26__treeIP6SpriteNS_4lessIS2_EENS_9allocatorIS2_EEE16__insert_node_atEPNS_15__tree_end_nodeIPNS_16__tree_node_baseIPvEEEERSC_SC_
Agd:__ZNSt3__213basic_ostreamIwNS_11char_traitsIwEEElsEj
zgd:__ZNSt3__213basic_ostreamIwNS_11char_traitsIwEEElsEi
Xpb:__ZNSt3__213__vector_baseIPcNS_9allocatorIS1_EEED2Ev
Cgd:__ZNSt3__213basic_ostreamIwNS_11char_traitsIwEEElsEm
Bgd:__ZNSt3__213basic_ostreamIwNS_11char_traitsIwEEElsEl
PA:_glfwSetCharCallback
wgd:__ZNSt3__213basic_ostreamIwNS_11char_traitsIwEEElsEb
Fgd:__ZNSt3__213basic_ostreamIwNS_11char_traitsIwEEElsEf
Hgd:__ZNSt3__213basic_ostreamIwNS_11char_traitsIwEEElsEe
$0b:__ZL9luaB_nextP9lua_State
Xsa:__ZNSt3__26__treeINS_12__value_typeIm8UiDialogEENS_19__map_value_compareImS3_NS_4lessImEELb1EEENS_9allocatorIS3_EEE7destroyEPNS_11__tree_nodeIS3_PvEE
tN:__ZN12GraphicsBaseaSEOS_
zQa:__ZL7bindAllP9lua_State
Z6b:__ZL10ll_loadlibP9lua_State
tmd:__ZNKSt3__210moneypunctIcLb0EE16do_thousands_sepEv
Vf:_SDL_SetGammaRamp
LU:__ZN4FontC2EP11ApplicationPKcS3_bP7GStatus
pEb:_png_do_write_invert_alpha
vgc:_mpg123_strerror
Wb:ftCall_viidid
IIa:__ZNSt3__219__merge_move_assignIRPFbRKN16b2ParticleSystem4PairES4_EPS2_S8_S8_EEvT0_S9_T1_SA_T2_T_
B_a:__ZN12Box2DBinder221b2PolygonShape_createEP9lua_State
_C:_llvm_va_end
ssb:_g_fscanf
_S:__ZNSt3__26vectorIN8FontBase11ChunkLayoutENS_9allocatorIS2_EEE26__swap_out_circular_bufferERNS_14__split_bufferIS2_RS4_EE
gAa:__ZN16b2StackAllocator10ReallocateEPvi
Yb:ftCall_viidii
BP:__ZNK8Matrix2D3m21Ev
Vkc:_FT_Stream_OpenMemory
OX:__ZN9TextField16setLetterSpacingEf
a8b:__ZNSt3__2plIcNS_11char_traitsIcEENS_9allocatorIcEEEENS_12basic_stringIT_T0_T1_EEPKS6_RKS9_
Dxa:__ZNK16b2PrismaticJoint17GetReactionTorqueEf
LTa:__ZN14ViewportBinder10setContentEP9lua_State
R0a:__ZN12Box2DBinder226b2WheelJoint_setMotorSpeedEP9lua_State
Vhd:__ZNSt3__27collateIwED2Ev
DId:__ZNSt3__218__find_first_of_ceIPKwS2_PFbwwEEET_S5_S5_T0_S6_T1_
Ita:_ggeolocation_getAccuracy
oTc:_common
eva:__ZN11b2EdgeShapeC2Ev
j1:__ZNSt3__26__treeINS_12__value_typeIiiEENS_19__map_value_compareIiS2_NS_4lessIiEELb1EEENS_9allocatorIS2_EEE12__find_equalIiEERPNS_16__tree_node_baseIPvEERPNS_15__tree_end_nodeISE_EERKT_
SIc:__ZN10emscripten8internal11LightTypeIDImE3getEv
mK:__ZN5StageD0Ev
u2c:_store_int_702
iXa:__ZN17GeolocationBinder18isHeadingAvailableEP9lua_State
m7b:__ZN8pystring6rstripERKNSt3__212basic_stringIcNS0_11char_traitsIcEENS0_9allocatorIcEEEES8_
ay:_glGenVertexArraysOES
af:_SDL_JoystickEventState
toa:__ZNSt3__212__deque_baseINS_4pairIjjEENS_9allocatorIS2_EEE3endEv
o$a:__ZN22b2ParticleSystemSprite9GetSystemEv
Ol:_acosf
FRd:__ZN10__cxxabiv112_GLOBAL__N_111string_pairC2ILj9EEERAT__Kc
ZRc:_acosh
ms:_emscripten_glIsRenderbuffer
cod:__ZNSt3__212basic_stringIcNS_11char_traitsIcEENS_9allocatorIcEEE23__append_forward_unsafeIPcEERS5_T_S9_
Pl:_acosl
qka:__ZNSt3__26__treeINS_12__value_typeINS_12basic_stringIcNS_11char_traitsIcEENS_9allocatorIcEEEENS_6vectorIhNS5_IhEEEEEENS_19__map_value_compareIS7_SB_NS_4lessIS7_EELb1EEENS5_ISB_EEE16__construct_nodeIJRKNS_21piecewise_construct_tENS_5tupleIJRKS7_EEENSM_IJEEEEEENS_10unique_ptrINS_11__tree_nodeISB_PvEENS_22__tree_node_destructorINS5_ISU_EEEEEEDpOT_
Oj:___syscall40
Pj:___syscall41
m7:__ZNSt3__25dequeINS_4pairIP5TimeriEENS_9allocatorIS4_EEE9push_backEOS4_
pQ:__ZNSt3__214__split_bufferIP5ColorRNS_9allocatorIS2_EEE18__construct_at_endINS_13move_iteratorIPS2_EEEENS_9enable_ifIXsr21__is_forward_iteratorIT_EE5valueEvE4typeESC_SC_
IY:__ZNSt3__26__treeIP6ScreenNS_4lessIS2_EENS_9allocatorIS2_EEE13__lower_boundIS2_EENS_15__tree_iteratorIS2_PNS_11__tree_nodeIS2_PvEEiEERKT_SD_PNS_15__tree_end_nodeIPNS_16__tree_node_baseISB_EEEE
mc:ftCall_viiii
gLc:_sinhf
cc:ftCall_viiid
smc:_af_latin_align_linked_edge
OEa:__ZN7b2World10CreateBodyEPK9b2BodyDef
vEc:_virt_resetchannel
CBc:_FT_Get_First_Char
jjd:__ZNSt3__29__num_getIwE19__stage2_float_prepERNS_8ios_baseEPwRwS5_
OPc:_scanexp
Dqa:__ZNKSt3__26__treeINS_12__value_typeImPN21GGSampleOpenALManager7ChannelEEENS_19__map_value_compareImS5_NS_4lessImEELb1EEENS_9allocatorIS5_EEE10__root_ptrEv
CRb:___gl_meshAddEdgeVertex
sIa:__ZZN16b2ParticleSystem20UpdatePairsAndTriadsEiiRKNS_16ConnectionFilterEEN20UpdateTriadsCallbackclEiii
bDc:_set_type
cxb:_png_check_IHDR
Efd:__ZNSt3__213basic_istreamIwNS_11char_traitsIwEEE5ungetEv
jbb:__ZN12EventVisitor10visitOtherEP5EventPv
nxc:_ps_hints_init
_zc:_FT_FloorFix
F7b:__ZN8pystring5ljustERKNSt3__212basic_stringIcNS0_11char_traitsIcEENS0_9allocatorIcEEEEi
qAb:_png_handle_pHYs
Upb:__ZN8StringIdC2Ev
egd:__ZNSt3__213basic_ostreamIcNS_11char_traitsIcEEElsEPNS_15basic_streambufIcS2_EE
xhc:_Draw_Sweep
xbb:__ZN16EventTypeVisitor5visitEP18AccelerometerEvent
Qmc:_FT_Load_Glyph
hWa:__ZNSt3__26vectorIjNS_9allocatorIjEEE26__swap_out_circular_bufferERNS_14__split_bufferIjRS2_EE
SOd:__ZN10__cxxabiv112_GLOBAL__N_12DbC2ILj4096EEERNS0_5arenaIXT_EEE
ZSc:_fmax
Qpa:__ZN21GGSampleOpenALManager16ChannelIsPlayingEm
dWa:__ZNSt3__26vectorIjNS_9allocatorIjEEE18__construct_at_endEj
K9a:__ZN11TimerBinder8destructEP9lua_State
YTb:_lua_checkstack
jk:___unlock
Hyc:_BBox_Move_To
rAa:__ZN23b2TrackedBlockAllocatorC2Ev
Old:__ZNKSt3__215time_get_bynameIwNS_19istreambuf_iteratorIwNS_11char_traitsIwEEEEE8__monthsEv
Vob:_gaudio_Mp3Open
Hp:_emscripten_force_num_logical_cores
HNd:__ZSt13get_terminatev
iad:__ZNSt3__27promiseIvE28set_exception_at_thread_exitESt13exception_ptr
KFb:_jpeg_free_large
Cza:__ZNK12b2WheelJoint17GetReactionTorqueEf
Lqb:_g_registerPlugin
KMa:__ZNK16b2PrismaticJoint13GetMotorForceEf
H_a:__ZN12Box2DBinder216b2Joint_destructEP9lua_State
Web:_AES128_ECB_encrypt
Ntd:__ZNKSt3__27num_getIwNS_19istreambuf_iteratorIwNS_11char_traitsIwEEEEE3getES4_S4_RNS_8ios_baseERjRd
c9c:__ZNSt3__211__libcpp_db11__insert_icEPvPKv
Nxd:__ZNSt3__212_GLOBAL__N_14makeINS_7num_putIwNS_19ostreambuf_iteratorIwNS_11char_traitsIwEEEEEEjEERT_T0_
Sva:__ZNK12b2ChainShape15ComputeDistanceERK11b2TransformRK6b2Vec2PfPS3_i
JQd:__ZN10__cxxabiv112_GLOBAL__N_111string_pairC2ILj15EEERAT__Kc
st:_emscripten_glVertexAttribDivisorANGLE
CLd:__ZThn8_NSt3__29strstreamD1Ev
Apd:__ZNKSt3__27codecvtIDsc11__mbstate_tE16do_always_noconvEv
JPa:__ZN15b2ParticleColorC2ERK7b2Color
BQc:_iconv_close
xK:__ZNK5Event18propagationStoppedEv
N_:__ZL11easeInCubicd
Crd:__ZNKSt3__214__codecvt_utf8IDiE11do_encodingEv
eKb:_jpeg_fdct_4x8
wO:__ZN10TimerEvent5applyEP12EventVisitor
xTc:_j1
jaa:__ZN5EventC2ERK9EventTypeIS_E
d8c:__ZNSt3__227__insertion_sort_incompleteIRNS_6__lessIddEEPdEEbT0_S5_T_
M5a:__ZNSt3__214__split_bufferIN8FontBase8FontSpecERNS_9allocatorIS2_EEEC2EjjS5_
Qy:_glIsVertexArray
uub:_z_inflateReset
eWd:b16
JEd:__ZNSt3__212basic_stringIcNS_11char_traitsIcEENS_9allocatorIcEEE7replaceENS_11__wrap_iterIPKcEES9_S8_
eZc:_ether_hostton
bab:__ZN13TimerListenerC2EP9lua_StateP5Timer
yUb:_luaF_freeupval
jd:_Mix_HookMusicFinished
lXc:_mbsinit
qvc:_cff_blend_clear
ZEd:__ZNKSt3__212basic_stringIcNS_11char_traitsIcEENS_9allocatorIcEEE5rfindEPKcjj
FBa:__ZNK6b2AABB8ContainsERKS_
oqb:__ZNSt3__26__treeINS_12__value_typeIPKciEENS_19__map_value_compareIS3_S4_N8StringId5ltstrELb1EEENS_9allocatorIS4_EEE13__lower_boundIS3_EENS_15__tree_iteratorIS4_PNS_11__tree_nodeIS4_PvEEiEERKT_SH_PNS_15__tree_end_nodeIPNS_16__tree_node_baseISF_EEEE
GF:_uuid_generate
CFd:__ZNKSt3__212basic_stringIcNS_11char_traitsIcEENS_9allocatorIcEEE7compareEPKc
ncb:__ZL8get_baseP9lua_State
Imb:__ZNSt3__26__treeIPN14GGSoundManager7ChannelENS_4lessIS3_EENS_9allocatorIS3_EEE5eraseENS_21__tree_const_iteratorIS3_PNS_11__tree_nodeIS3_PvEEiEE
St:_emscripten_log
OLd:__ZNSt3__212strstreambufC2EPhiS1_
EBc:_find_variant_selector_charmap
D4b:__ZL9add_sUTF8P14MatchStateUTF8P11luaL_BufferPKcS4_
IVd:b10
b6:__ZNSt3__26__treeIP15EventDispatcherNS_4lessIS2_EENS_9allocatorIS2_EEE25__emplace_unique_key_argsIS2_JS2_EEENS_4pairINS_15__tree_iteratorIS2_PNS_11__tree_nodeIS2_PvEEiEEbEERKT_DpOT0_
Cqc:_Ins_GC
rhc:_Render_Single_Pass
paa:__ZN6Sprite13getChildIndexEPS_P7GStatus
pqd:__ZNKSt3__212ctype_bynameIwE10do_toupperEw
hMc:_ascii_is_unsafe
NJb:_jpeg_fdct_10x10
eIa:__ZNSt3__219__merge_move_assignIRPFbRKN16b2ParticleSystem5TriadES4_EPS2_S8_S8_EEvT0_S9_T1_SA_T2_T_
Pqc:_Ins_NEQ
Ks:_emscripten_glTexImage2D
qdb:_tlsf_check_pool
PTb:_unzeof
wRd:__ZNSt3__214__split_bufferINS_6vectorIN10__cxxabiv112_GLOBAL__N_111string_pairENS3_11short_allocIS4_Lj4096EEEEERNS5_IS7_Lj4096EEEEC2EjjS9_
Bl:__isLeapYear
q5a:__ZN15GGAccelerometerD0Ev
XSc:_fmaf
K5c:_gethostname
Qqa:__ZNSt3__23mapImPN21GGSampleOpenALManager5SoundENS_4lessImEENS_9allocatorINS_4pairIKmS3_EEEEED2Ev
xPd:__ZN10__cxxabiv112_GLOBAL__N_116parse_array_typeINS0_2DbEEEPKcS4_S4_RT_
POa:__ZN16b2ParticleSystem22CreateParticleForGroupERK18b2ParticleGroupDefRK11b2TransformRK6b2Vec2
hPc:_qsort
nJc:_try_realloc_chunk
SD:_pthread_detach
yE:_pthread_spin_init
yh:___cxa_current_primary_exception
mqd:__ZNKSt3__212ctype_bynameIwE5do_isEPKwS3_Pt
_1b:_luaopen_io
rVc:_sinpi
ICa:__ZNK13b2DynamicTree5QueryI12b2BroadPhaseEEvPT_RK6b2AABB
fmc:_af_latin_hints_init
kU:__ZNSt3__218basic_stringstreamIcNS_11char_traitsIcEENS_9allocatorIcEEED2Ev
Hjd:__ZNSt3__214__num_put_base14__format_floatEPcPKcj
rYc:_posix_madvise
URa:__ZNSt3__23mapINS_12basic_stringIcNS_11char_traitsIcEENS_9allocatorIcEEEEP11ProfileInfoNS_4lessIS6_EENS4_INS_4pairIKS6_S8_EEEEEixERSC_
cUc:_llrintl
Kn:_atan2
JYc:_wcsrtombs
D9a:__ZN12MatrixBinder11getPositionEP9lua_State
Boa:__ZNSt3__212__deque_baseINS_4pairIjjEENS_9allocatorIS2_EEE5clearEv
vkc:_FT_Bitmap_Convert
Iac:_INT123_fi_init
fKd:__ZNSt3__212_GLOBAL__N_115as_float_helperIeNS_12basic_stringIcNS_11char_traitsIcEENS_9allocatorIcEEEEPFePKcPPcEEET_RKS7_RKT0_PjT1_
Tkb:__ZN6gevent12EventManagerC2Ev
Xo:_emscripten_asm_const_i
Vic:_tt_cmap14_char_next
OFa:__ZN6b2Body7GetNextEv
tTb:_unzOpen64
Mzb:_png_do_invert
MWb:_lua_isstring
iq:_emscripten_glBindAttribLocation
xza:__ZN15b2DistanceJoint24SolveVelocityConstraintsERK12b2SolverData
Bra:__ZNSt3__24pairIKNS_12basic_stringIcNS_11char_traitsIcEENS_9allocatorIcEEEES6_ED2Ev
tEa:__ZN16b2ParticleSystem16ReallocateBufferIP15b2ParticleGroupEEPT_S4_iiib
wia:__ZN12VertexBufferI8vector4fEC2Ev
mbd:__ZNSt3__213basic_ostreamIcNS_11char_traitsIcEEED2Ev
Grd:__ZNSt3__215__codecvt_utf16IwLb0EED0Ev
oDb:_png_write_IHDR
oUd:mftCall_diiiiid
nMb:_validate_script
feb:_block_merge_next
Gpc:_Ins_GPV
Jbd:__ZNSt3__28ios_base5clearEj
Nn:_atanf
dSa:__ZNSt3__26__treeINS_12__value_typeIP7ClosureP11ProfileInfoEENS_19__map_value_compareIS3_S6_NS_4lessIS3_EELb1EEENS_9allocatorIS6_EEE16__construct_nodeIJRKNS_21piecewise_construct_tENS_5tupleIJRKS3_EEENSI_IJEEEEEENS_10unique_ptrINS_11__tree_nodeIS6_PvEENS_22__tree_node_destructorINSB_ISQ_EEEEEEDpOT_
Pab:__ZN4SlotI12CppLuaBridge8LuaEventE6equalsEPK8SlotBase
Lvb:_png_sig_cmp
hlb:__ZN6gevent12EventManager11addCallbackEPFviPvS1_ES1_
On:_atanl
vya:__ZN11b2WeldJoint4DumpEv
O2c:_printf
ts:_emscripten_glMatrixMode
TMb:__GLOBAL__sub_I_PVRTResourceFile_cpp
lpa:__ZNSt3__26__treeIPN12_GLOBAL__N_121GGStreamOpenALManager7ChannelENS_4lessIS4_EENS_9allocatorIS4_EEED2Ev
N3c:_lldiv
s8a:__ZNK6Sprite14colorTransformEv
fxc:_ft_get_adobe_glyph_index
HJa:__ZN12_GLOBAL__N_117FixedSetAllocator8AllocateEii
zkb:__ZNSt3__214__split_bufferIPN6gevent12EventManager17EventQueueElementERNS_9allocatorIS4_EEED2Ev
spd:__ZNSt3__27codecvtIwc11__mbstate_tED2Ev
Aoc:_TT_Vary_Apply_Glyph_Deltas
Led:__ZNSt3__213basic_istreamIcNS_11char_traitsIcEEE5ungetEv
_Pa:__ZNSt3__26__treeINS_12__value_typeINS_12basic_stringIcNS_11char_traitsIcEENS_9allocatorIcEEEEP11ProfileInfoEENS_19__map_value_compareIS7_SA_NS_4lessIS7_EELb1EEENS5_ISA_EEEC2ERKSE_
kq:_emscripten_glBindFramebuffer
S8a:__ZN12MatrixBinder5getTzEP9lua_State
T4a:__ZN20EventContactListener12BeginContactEP9b2Contact
_wa:__ZN15b2ReferenceFaceC2Ev
eUa:__ZN12Path2DBinder9setConvexEP9lua_State
LUc:_nexttowardf
D6a:__ZNKSt3__26vectorIPKcNS_9allocatorIS2_EEE8max_sizeEv
pIc:__ZN10emscripten8internal6TypeIDINS_11memory_viewIfEEE3getEv
llb:__ZNKSt3__26vectorIN19gevent_CallbackList15CallbackCommandENS_9allocatorIS2_EEE8max_sizeEv
ZB:_lineRGBA
LXb:_luaU_undump
s8b:__ZN8pystring2os4path8normpathERKNSt3__212basic_stringIcNS2_11char_traitsIcEENS2_9allocatorIcEEEE
TVb:_luaV_tostring
Lq:_emscripten_glDeleteBuffers
Szc:_FT_Stroker_GetCounts
ACa:__ZN9b2Contact6UpdateEP17b2ContactListener
wua:__ZN10emscripten8internal9SignatureIvJNS_11memory_viewIhEEEE18init_method_callerEv
kha:__ZN16ogl2ShaderEngine18blendFactor2GLenumEN12ShaderEngine11BlendFactorE
h_a:__ZN13TileMapBinder7getTileEP9lua_State
y$:__ZNSt3__26vectorI9ParameterNS_9allocatorIS1_EEE6assignIPS1_EENS_9enable_ifIXaasr21__is_forward_iteratorIT_EE5valuesr16is_constructibleIS1_NS_15iterator_traitsIS8_E9referenceEEE5valueEvE4typeES8_S8_
WFa:__ZN6b2Body20SynchronizeTransformEv
yH:FUNCTION_TABLE_iiiiiiiiiiii
VGc:_xmp_seek_time
Zkb:__ZNSt3__213__vector_baseIN19gevent_CallbackList15CallbackCommandENS_9allocatorIS2_EEED2Ev
ISc:___FLOAT_BITS_265
nhb:_gimage_savePng
yKd:__ZNSt3__29to_stringEy
Bbb:__ZN16EventTypeVisitor5visitEP13KeyboardEvent
ilc:_inflate_codes_new
_Vd:_pthread_mutex_init__wrapper
kv:_emscripten_vr_deinit
AI:__ZN9ParticlesD0Ev
jV:__ZL5checkiPKc
n:cttz_i8
BDc:_mread32l
w$:__ZN9MovieClip8addFrameEiiP6SpriteRKNSt3__26vectorI9ParameterNS2_9allocatorIS4_EEEEP7GStatus
Tgb:__ZN9g_private12TimerManager7stopAllEv
WT:__ZNSt3__214__split_bufferIiRNS_9allocatorIiEEE18__construct_at_endEj
ORc:_wcscmp
Nq:_emscripten_glDeleteProgram
pYa:__ZN15MovieClipBinderC2EP9lua_State
JUa:__ZN11AudioBinder21SoundChannel_isPausedEP9lua_State
uad:__ZNSt3__215basic_streambufIcNS_11char_traitsIcEEED2Ev
C2c:_getwchar
MEc:_set_sample_end
eUb:__ZL7addinfoP9lua_StatePKc
CSc:_exp10l
xEb:_png_set_compression_mem_level
avb:_gz_look
Ged:__ZNSt3__213basic_istreamIcNS_11char_traitsIcEEE6ignoreEii
p1a:__ZN12Box2DBinder230b2PulleyJoint_getGroundAnchorBEP9lua_State
mga:__ZNSt3__214__split_bufferIN13ShaderProgram8DataDescERNS_9allocatorIS2_EEED2Ev
zV:__ZNSt3__26__treeIP6TickerNS_4lessIS2_EENS_9allocatorIS2_EEEC2ERKS4_
OV:__ZN11Application11releaseViewEv
L5:__ZNSt3__26__treeINS_12__value_typeIiNS_6vectorIP8SlotBaseNS_9allocatorIS4_EEEEEENS_19__map_value_compareIiS8_NS_4lessIiEELb1EEENS5_IS8_EEE7destroyEPNS_11__tree_nodeIS8_PvEE
mkb:__ZNSt3__29remove_ifINS_11__wrap_iterIPN19gevent_CallbackList8CallbackEEENS2_9equal_gidEEET_S7_S7_T0_
Had:__ZNSt3__215basic_streambufIcNS_11char_traitsIcEEE8overflowEi
f_a:__ZN13TileMapBinder6createEP9lua_State
Naa:__ZNSt3__25stackI9_cliprectNS_5dequeIS1_NS_9allocatorIS1_EEEEED2Ev
Nfb:__Z11getLocalIPsv
RCb:_png_set_sRGB
NMc:_fmt_fp
DXb:_luaD_rawrunprotected
CD:_pthread_barrier_wait
zvc:_cff_parse_font_bbox
WRb:___gl_dictListDeleteDict
TOb:__ZN11CPVRTString6assignERKS_jj
zub:_z_inflate
O5b:__ZL8classendP10MatchStatePKc
_Cc:_hio_read8
Zg:__Unwind_Backtrace
xaa:__ZN6Sprite12replaceChildEPS_S0_
cAa:__ZN16b2StackAllocatorC2Ev
JCc:_af_shaper_get_coverage
Da:invoke_iiii
USc:_add_adjusted
aJb:_init_destination
FCd:__ZNSt3__212basic_stringIcNS_11char_traitsIcEENS_9allocatorIcEEEC2EPKcj
Y2:__ZN8TTBMFont9getBoundsEPKcfPfS2_S2_S2_
$lc:_af_direction_compute
LL:__ZN5Stage7keyCharEPKc
wn:_alcGetProcAddress
N9:__ZNSt3__26vectorIPNS_5stackIP6SpriteNS_5dequeIS3_NS_9allocatorIS3_EEEEEENS5_IS9_EEE26__swap_out_circular_bufferERNS_14__split_bufferIS9_RSA_EE
fMc:_ascii_to_bin
tU:__ZNSt3__215basic_stringbufIcNS_11char_traitsIcEENS_9allocatorIcEEE7seekposENS_4fposI11__mbstate_tEEj
rJa:__ZN12_GLOBAL__N_117FixedSetAllocator10InvalidateEi
OF:_vfork
d7a:__ZN12SpriteBinder19setLayoutParametersEP9lua_State
Dna:__ZNKSt3__26__treeINS_12__value_typeINS_12basic_stringIcNS_11char_traitsIcEENS_9allocatorIcEEEE13GGAudioLoaderEENS_19__map_value_compareIS7_S9_NS_4lessIS7_EELb1EEENS5_IS9_EEE10__root_ptrEv
Kia:__ZL18cubic_to_quadraticPKdPd
QU:__ZN4Font20readTextureGlyphsNewEPKc
MA:_glfwReadImage
j9:__ZN6GGPoolINSt3__25stackIP6SpriteNS0_5dequeIS3_NS0_9allocatorIS3_EEEEEEEC2Ev
lmb:__ZNSt3__26__treeINS_12__value_typeImPN14GGSoundManager5SoundEEENS_19__map_value_compareImS5_NS_4lessImEELb1EEENS_9allocatorIS5_EEE16__construct_nodeIJRKNS_21piecewise_construct_tENS_5tupleIJRKmEEENSH_IJEEEEEENS_10unique_ptrINS_11__tree_nodeIS5_PvEENS_22__tree_node_destructorINSA_ISP_EEEEEEDpOT_
Sob:_gaudio_WavSeek
Vqb:_g_createClass
ooa:__ZN12_GLOBAL__N_121GGStreamOpenALManager10callback_sEiPvS1_
cA:_glewIsSupported
YIc:__ZN10emscripten8internal11LightTypeIDIiE3getEv
myc:_ps_mask_table_merge_all
j0b:_luaL_checktype
Qlc:_ft_smooth_transform
GEd:__ZNSt3__212basic_stringIcNS_11char_traitsIcEENS_9allocatorIcEEE7replaceENS_11__wrap_iterIPKcEES9_RKS5_
As:_emscripten_glSampleCoverage
WXb:__ZL12anchor_tokenP8LexState
XNa:__ZN16b2ParticleSystem19SetParticleLifetimeEif
kNd:__ZN10__cxxabiv116__shim_type_infoD2Ev
Vla:__ZNSt3__214__split_bufferIP15ginput_KeyEventRNS_9allocatorIS2_EEEC2EjjS5_
$fc:_do_the_seek
Ye:_SDL_HasSSE2
wKa:__ZN12_GLOBAL__N_115LightweightPairIP9b2FixtureiE7CompareERKS3_S5_
PDc:_xlat_fx
Upd:__ZNSt3__25ctypeIcED0Ev
xUd:mftCall_iiiiii
h2a:__ZN12Box2DBinder218b2Joint_getAnchorBEP9lua_State
E0b:_luaL_ref
WWb:_lua_tocfunction
Ghc:_Line_To
ZK:__ZNSt3__212__deque_baseIP6SpriteNS_9allocatorIS2_EEE3endEv
Ukc:_FT_Gzip_Uncompress
kTd:runPostSets61
Ika:__ZN18ApplicationManager9playFilesEPKcS1_
GJc:_mallopt
A5b:__ZL9str_matchP9lua_State
xzb:_png_do_read_interlace
OAa:__ZN9b2Simplex6Solve3Ev
QTd:_pthread_mutex_unlock
O0b:__ZL13luaB_cocreateP9lua_State
vl:__hideEverythingExceptGivenElement
J0b:_luaL_newstate
Mua:__ZNK11b2EdgeShape11ComputeMassEP10b2MassDataf
sx:_glDeleteVertexArraysOES
iGc:_check_invalid_sample
Gh:___cxa_get_exception_ptr
aic:_tt_cmap0_char_next
Qtb:_crc32_little
kwa:__ZN15b2ContactFilter13ShouldCollideEP9b2FixtureP16b2ParticleSystemi
sOa:__ZNSt3__212__rotate_gcdIPP16b2ParticleHandleEET_S4_S4_S4_
zsb:__ZNSt3__23mapIi5DriveNS_4lessIiEENS_9allocatorINS_4pairIKiS1_EEEEEixERS6_
gLb:_encode_mcu_AC_first_161
qab:__ZN21EventDispatcherBinder6createEP9lua_State
qob:_gaudio_ChannelIsLooping
Gub:_syncsearch
Xma:__ZNSt3__23mapIj7PointerNS_4lessIjEENS_9allocatorINS_4pairIKjS1_EEEEEixEOj
oib:__ZNSt3__26__treeINS_12__value_typeImPN9g_private19RenderTargetElementEEENS_19__map_value_compareImS5_NS_4lessImEELb1EEENS_9allocatorIS5_EEE13__lower_boundImEENS_15__tree_iteratorIS5_PNS_11__tree_nodeIS5_PvEEiEERKT_SI_PNS_15__tree_end_nodeIPNS_16__tree_node_baseISG_EEEE
PCc:_ft_gzip_file_done
Vba:__ZN14ColorTransform18setGreenMultiplierEf
S5c:_lchown
jxc:_ps_dimension_done
UAd:__ZNSt3__221recursive_timed_mutexD2Ev
$Hb:_rgb_gray_convert
$6b:__ZN8pystring5splitERKNSt3__212basic_stringIcNS0_11char_traitsIcEENS0_9allocatorIcEEEERNS0_6vectorIS6_NS4_IS6_EEEES8_i
wLa:__ZNK13b2PulleyJoint16GetGroundAnchorBEv
Ogb:_gtimer_pauseAll
PFb:_out_of_memory
B2:__ZNSt3__26vectorIN8FontBase8FontSpecENS_9allocatorIS2_EEE8allocateEj
Ntc:_cf2_stack_init
$kb:_gevent_Cleanup
Zsa:__ZN8UiDialogD2Ev
L5a:__ZNSt3__26vectorIN8FontBase8FontSpecENS_9allocatorIS2_EEE21__push_back_slow_pathIRKS2_EEvOT_
EXa:__ZN15UrlLoaderBinderC2EP9lua_State
bBb:_png_create_read_struct
Rab:__ZN4SlotI12CppLuaBridge8LuaEventED0Ev
CZb:__ZL4bodyP8LexStateP7expdescii
$Ea:__ZN7b2JointD0Ev
X5b:__ZL9add_valueP10MatchStateP11luaL_BufferPKcS4_
YBb:_png_image_read_colormapped
PPa:__GLOBAL__sub_I_gyroscopebinder_cpp
xd:_Mix_PlayMusic
Fyb:_png_get_IHDR
_eb:_AddRoundKey
Swd:__ZNKSt3__28messagesIcE5closeEi
Jsb:__ZNSt3__26__treeINS_12basic_stringIcNS_11char_traitsIcEENS_9allocatorIcEEEENS_4lessIS6_EENS4_IS6_EEE25__emplace_unique_key_argsIS6_JS6_EEENS_4pairINS_15__tree_iteratorIS6_PNS_11__tree_nodeIS6_PvEEiEEbEERKT_DpOT0_
mwc:_cff_cmap_encoding_init
gad:__ZNSt3__27promiseIvE13set_exceptionESt13exception_ptr
jxd:__ZNKSt3__220__vector_base_commonILb1EE20__throw_length_errorEv
yO:__ZN11TexturePackD0Ev
B7c:__ZNSt3__227__insertion_sort_incompleteIRNS_6__lessIllEEPlEEbT0_S5_T_
HZa:__ZN17ApplicationBinder21getTextureMemoryUsageEP9lua_State
QQc:_islower_l
ks:_emscripten_glIsProgram
HK:__ZNSt3__25dequeIP6SpriteNS_9allocatorIS2_EEE9push_backEOS2_
sI:stackSave
K9c:__ZNSt3__217__assoc_sub_stateD0Ev
pNd:__ZNK10__cxxabiv117__class_type_info16search_above_dstEPNS_19__dynamic_cast_infoEPKvS4_ib
lyc:_ps_dimension_end
l9:__ZNSt3__25dequeIP6SpriteNS_9allocatorIS2_EEE9push_backERKS2_
aQd:__ZN10__cxxabiv112_GLOBAL__N_121parse_const_cast_exprINS0_2DbEEEPKcS4_S4_RT_
$2a:__ZN12Box2DBinder224b2Body_setAngularDampingEP9lua_State
Fqa:__ZNSt3__26__treeIPN21GGSampleOpenALManager7ChannelENS_4lessIS3_EENS_9allocatorIS3_EEE16__construct_nodeIJRKS3_EEENS_10unique_ptrINS_11__tree_nodeIS3_PvEENS_22__tree_node_destructorINS6_ISF_EEEEEEDpOT_
Scc:_III_dequantize_sample
sSa:__ZN12ScreenBinder8destructEP9lua_State
otb:_flush_pending
uCa:__ZNK9b2Contact14GetChildIndexAEv
_rc:_Ins_SxVTL
Oeb:__ZNSt3__26__treeINS_12__value_typeIPvP11GReferencedEENS_19__map_value_compareIS2_S5_NS_4lessIS2_EELb1EEENS_9allocatorIS5_EEE16__construct_nodeIJRKNS_21piecewise_construct_tENS_5tupleIJRKS2_EEENSH_IJEEEEEENS_10unique_ptrINS_11__tree_nodeIS5_S2_EENS_22__tree_node_destructorINSA_ISO_EEEEEEDpOT_
gY:__ZN5PixelC2EP11Application
SLd:__ZNSt3__212strstreambuf3strEv
tma:__ZN6ginput12InputManager5keyUpEPKcS2_
x7b:__ZN8pystring7isupperERKNSt3__212basic_stringIcNS0_11char_traitsIcEENS0_9allocatorIcEEEE
B6a:__ZNSt3__26vectorIPKcNS_9allocatorIS2_EEE21__push_back_slow_pathIS2_EEvOT_
Xp:_emscripten_get_now_is_monotonic
Zd:_SDL_CreateCond
Lfa:__ZNSt3__26__treeIP20gl2ShaderBufferCacheNS_4lessIS2_EENS_9allocatorIS2_EEE14__erase_uniqueIS2_EEjRKT_
BWd:b27
AWd:b26
zWd:b25
yWd:b24
xWd:b23
wWd:b22
vWd:b21
Wcd:__ZNSt3__215basic_streambufIcNS_11char_traitsIcEEE7pubsyncEv
NW:__ZNK11Application10ImageScaleltERKS0_
m2b:__ZL9io_outputP9lua_State
Ceb:__ZN11GReferencedD0Ev
Wsc:_cff_driver_init
myd:__ZNSt3__26locale5__imp7installINS_8messagesIcEEEEvPT_
dHd:__ZNSt3__212basic_stringIwNS_11char_traitsIwEENS_9allocatorIwEEE14__set_long_capEj
wEc:_virt_setvol
CC:_llvm_minnum_f32
Rl:_alBuffer3i
KOd:___cxa_bad_cast
tCd:__ZNKSt3__212basic_stringIcNS_11char_traitsIcEENS_9allocatorIcEEE7__allocEv
Fjb:__ZNSt3__23mapImPN9g_private14TextureManager18TempTextureElementENS_4lessImEENS_9allocatorINS_4pairIKmS4_EEEEEixERS9_
rKd:__ZNSt3__212_GLOBAL__N_19as_stringINS_12basic_stringIcNS_11char_traitsIcEENS_9allocatorIcEEEEPFiPcjPKczElEET_T0_SD_PKNSD_10value_typeET1_
H4c:_wcscpy
unc:_af_cjk_metrics_init_widths
gRd:__ZN10__cxxabiv112_GLOBAL__N_119parse_unscoped_nameINS0_2DbEEEPKcS4_S4_RT_
mGc:_sustain_check
Ql:_alBuffer3f
VZb:_luaZ_fill
Sfd:__ZNSt3__213basic_ostreamIcNS_11char_traitsIcEEElsEPFRNS_8ios_baseES5_E
uid:__ZNSt3__26locale2id6__initEv
SKa:__ZNSt3__29remove_ifIPN16b2ParticleSystem4PairEPFbRKS2_EEET_S8_S8_T0_
Xia:__ZN6Path2D16setLineThicknessEff
Afc:_INT123_make_decode_tables
AVb:_luaH_get
nHa:__ZN15b2QueryCallback14ReportParticleEPK16b2ParticleSystemi
Htb:_init_block
KLa:__ZNK12b2BroadPhase13GetTreeHeightEv
Lna:__ZNSt3__26__treeINS_12__value_typeImPN12_GLOBAL__N_121GGStreamOpenALManager7ChannelEEENS_19__map_value_compareImS6_NS_4lessImEELb1EEENS_9allocatorIS6_EEEC2ERKSA_
UEa:__ZN7b2Joint7DestroyEPS_P16b2BlockAllocator
ZF:createNamedFunction
$ec:_wetwork
tzb:_png_process_IDAT_data
T3c:_strtoimax
yjb:__ZNSt3__26vectorIcNS_9allocatorIcEEE6assignIPcEENS_9enable_ifIXaasr21__is_forward_iteratorIT_EE5valuesr16is_constructibleIcNS_15iterator_traitsIS7_E9referenceEEE5valueEvE4typeES7_S7_
rCb:_png_colormap_compose
Roc:_FT_GlyphLoader_Rewind
oSb:_FloatUp
k$c:_srand
OVb:_luaD_callhook
vwc:_ft_mem_strdup
RUc:___DOUBLE_BITS_340
IV:__ZNSt3__26__treeIP6TickerNS_4lessIS2_EENS_9allocatorIS2_EEE7destroyEPNS_11__tree_nodeIS2_PvEE
GFb:_access_virt_barray
ZUc:___DOUBLE_BITS_348
lM:__ZNK7GStatus4typeEv
ddb:_block_is_free
e_c:_name_from_dns_search
BCd:__ZNSt3__212basic_stringIcNS_11char_traitsIcEENS_9allocatorIcEEE7__allocEv
$ob:_gaudio_Mp3Read
SUb:__ZL13traverseprotoP12global_StateP5Proto
Bga:__ZN13ShaderTextureC2Ev
ONc:_isprint
tod:__ZNKSt3__29money_putIcNS_19ostreambuf_iteratorIcNS_11char_traitsIcEEEEE6do_putES4_bRNS_8ios_baseEcRKNS_12basic_stringIcS3_NS_9allocatorIcEEEE
gq:_emscripten_glBegin
ryd:__ZNSt3__212_GLOBAL__N_17releaseclEPNS_6locale5facetE
FOd:__ZNK10__cxxabiv122__base_class_type_info27has_unambiguous_public_baseEPNS_19__dynamic_cast_infoEPvi
Bsa:__ZNSt3__26__treeINS_12__value_typeIm12GHttpContextEENS_19__map_value_compareImS3_NS_4lessImEELb1EEENS_9allocatorIS3_EEE16__insert_node_atEPNS_15__tree_end_nodeIPNS_16__tree_node_baseIPvEEEERSF_SF_
Isd:__ZNKSt3__215__codecvt_utf16IDiLb1EE11do_encodingEv
JQa:__ZL8os_timerP9lua_State
v1a:__ZN12Box2DBinder228b2DistanceJoint_setFrequencyEP9lua_State
_Ea:__ZN7b2Joint4DumpEv
XGa:__ZNK16b2ParticleSystem15GetParticleMassEv
Kvd:__ZNKSt3__210moneypunctIcLb1EE10neg_formatEv
ko:_dlerror
ADb:_png_save_uint_32
Qyb:_png_get_tRNS
CCb:_png_set_palette_to_rgb
RQa:__ZN14LuaApplication11Core_randomEP9lua_State
Dcb:__ZN18LuaApplicationBaseD0Ev
eI:FUNCTION_TABLE_viiididi
wkc:_ft_glyphslot_set_bitmap
i3a:__ZN12Box2DBinder220b2Body_getLocalPointEP9lua_State
fT:__ZN4Font9getBoundsEPKcfPfS2_S2_S2_
Opd:__ZNKSt3__214collate_bynameIcE12do_transformEPKcS3_
J2a:__ZN12Box2DBinder224b2Body_SetLinearVelocityEP9lua_State
vma:__ZN6ginput12InputManager7keyCharEPKc
y3:__ZN8TTBMFont17staticCharsetInitEv
V9a:__ZN11TimerBinder14pauseAllTimersEP9lua_State
vJa:__ZNSt3__213__lower_boundIRPFbRKN12_GLOBAL__N_115LightweightPairIiiEES5_EPS4_S3_EET0_SA_SA_RKT1_T_
AEd:__ZNSt3__212basic_stringIcNS_11char_traitsIcEENS_9allocatorIcEEE7replaceEjjRKS5_
LQd:__ZNSt3__212basic_stringIcNS_11char_traitsIcEEN10__cxxabiv112_GLOBAL__N_112malloc_allocIcEEE23__append_forward_unsafeIPKcEERS7_T_SC_
phb:__ZL16jpeg_gstdio_destP20jpeg_compress_structP8g__sFILE
D_c:_ns_name_uncompress
nQd:__ZN10__cxxabiv112_GLOBAL__N_122parse_sizeof_type_exprINS0_2DbEEEPKcS4_S4_RT_
Cid:__ZNSt3__216__check_groupingERKNS_12basic_stringIcNS_11char_traitsIcEENS_9allocatorIcEEEEPjS8_Rj
Ukd:__ZNKSt3__220__time_get_c_storageIwE3__cEv
Vjd:__ZNKSt3__27num_putIwNS_19ostreambuf_iteratorIwNS_11char_traitsIwEEEEE6do_putES4_RNS_8ios_baseEwPKv
f1:__ZNKSt3__26__treeINS_12__value_typeIiNS_6vectorIPN9MovieClip5FrameENS_9allocatorIS5_EEEEEENS_19__map_value_compareIiS9_NS_4lessIiEELb1EEENS6_IS9_EEE10__root_ptrEv
Fjd:__ZNSt3__219__libcpp_snprintf_lEPcjP15__locale_structPKcz
H$:__ZNSt3__26vectorI9ParameterNS_9allocatorIS1_EEE8allocateEj
OGd:__ZNKSt3__212basic_stringIwNS_11char_traitsIwEENS_9allocatorIwEEE6rbeginEv
ZO:__ZN11TexturePackC2EP11ApplicationPPKci6Filter4Wrap6Formatbj
ALd:__ZNSt3__29strstreamD1Ev
Zw:_glClearColor
wpb:__ZNSt3__26__treeINS_12__value_typeIi8FileInfoEENS_19__map_value_compareIiS3_NS_4lessIiEELb1EEENS_9allocatorIS3_EEE12__find_equalIiEERPNS_16__tree_node_baseIPvEERPNS_15__tree_end_nodeISF_EERKT_
LRc:___uselocale
$O:__ZNSt3__26vectorI3DibNS_9allocatorIS1_EEE21__push_back_slow_pathIS1_EEvOT_
maa:__ZNSt3__26vectorIP6SpriteNS_9allocatorIS2_EEE12__move_rangeEPS2_S6_S6_
Jud:__ZNSt3__212_GLOBAL__N_1L21__throw_runtime_errorERKNS_12basic_stringIcNS_11char_traitsIcEENS_9allocatorIcEEEE
crb:__ZN6ObjectD0Ev
ll:__emval_new_object
C6b:__ZL9sort_compP9lua_Stateii
MZb:__ZL9listfieldP8LexStateP11ConsControl
Dwa:__ZN11b2TransformC2Ev
xEa:__ZN16b2ParticleSystem16ReallocateBufferIP15b2ParticleGroupEEPT_S4_ii
M4b:__ZL7convertP9lua_StatePFjjE
eba:__ZNSt3__214__split_bufferIP7Matrix4RNS_9allocatorIS2_EEE18__construct_at_endINS_13move_iteratorIPS2_EEEENS_9enable_ifIXsr21__is_forward_iteratorIT_EE5valueEvE4typeESC_SC_
HDd:__ZNSt3__212basic_stringIcNS_11char_traitsIcEENS_9allocatorIcEEE14__set_long_capEj
Ex:_glDrawArraysInstancedEXT
sm:_alGetInteger
Xbb:__ZNSt3__26vectorIP12CppLuaBridgeNS_9allocatorIS2_EEE21__push_back_slow_pathIRKS2_EEvOT_
VZc:_inet_ntoa
PJd:__ZNSt3__212_GLOBAL__N_117as_integer_helperIyNS_12basic_stringIcNS_11char_traitsIcEENS_9allocatorIcEEEEPFyPKcPPciEEET_RKS7_RKT0_PjiT1_
$Ic:__ZN10emscripten8internal6TypeIDIsE3getEv
_U:__ZNSt3__218__search_substringIcNS_11char_traitsIcEEEEPKT_S5_S5_S5_S5_
ueb:__ZNSt3__26__treeINS_12__value_typeINS_12basic_stringIcNS_11char_traitsIcEENS_9allocatorIcEEEE8FileInfoEENS_19__map_value_compareIS7_S9_NS_4lessIS7_EELb1EEENS5_IS9_EEEC2ERKSD_
rQb:__Z21PVRTStringGetFileNameRK11CPVRTString
Gq:_emscripten_glCopyTexImage2D
Nva:__ZN12b2ChainShapeD2Ev
XUc:_rintl
Irb:__fwalk
xha:__ZL11stroke_pathjPK7Matrix4
fIc:__ZN12_GLOBAL__N_1L20register_memory_viewIjEEvPKc
UN:__ZNSt3__26vectorI6Point2IfENS_9allocatorIS2_EEE18__construct_at_endEj
Woa:__ZN12_GLOBAL__N_121GGStreamOpenALManager7ChannelC2EmmPNS0_5SoundEj
itc:_cff_size_get_globals_funcs
MPc:_hexfloat
Bea:__ZNSt3__214__split_bufferIPN12ShaderEngine12DepthStencilERNS_9allocatorIS3_EEE10push_frontERKS3_
wic:_tt_cmap8_char_index
r6:__ZNSt3__26__treeIP5TimerNS_4lessIS2_EENS_9allocatorIS2_EEED2Ev
ZMd:__ZNSt3__215__thread_structC2Ev
lg:_SDL_VideoQuit
Lrc:_TT_MulFix14
S2b:_luaopen_math
Gqa:__ZNSt3__26__treeIPN21GGSampleOpenALManager7ChannelENS_4lessIS3_EENS_9allocatorIS3_EEE16__insert_node_atEPNS_15__tree_end_nodeIPNS_16__tree_node_baseIPvEEEERSD_SD_
nf:_SDL_JoystickOpened
QS:__ZN8FontBase10TextLayoutC2Ev
fkd:__ZNKSt3__28time_getIcNS_19istreambuf_iteratorIcNS_11char_traitsIcEEEEE11do_get_yearES4_S4_RNS_8ios_baseERjP2tm
Wkb:__ZNSt3__212__deque_baseIN6gevent12EventManager17EventQueueElementENS_9allocatorIS3_EEED2Ev
hh:___atomic_fetch_add_8
zu:_emscripten_set_keydown_callback
PEb:_png_unpremultiply
U7a:__ZN12SpriteBinder7getSizeEP9lua_State
Cxb:_png_read_destroy
$$a:__ZN12Box2DBinder223b2DebugDraw_appendFlagsEP9lua_State
Ey:_glGetVertexAttribPointerv
eX:__ZNSt3__26__treeIP6TickerNS_4lessIS2_EENS_9allocatorIS2_EEE25__emplace_unique_key_argsIS2_JRKS2_EEENS_4pairINS_15__tree_iteratorIS2_PNS_11__tree_nodeIS2_PvEEiEEbEERKT_DpOT0_
f7a:__ZN12SpriteBinder4getXEP9lua_State
xR:__ZN5GMesh12clearTextureEi
hmd:__ZNSt3__28time_putIwNS_19ostreambuf_iteratorIwNS_11char_traitsIwEEEEED0Ev
evb:_z_gzgets
Lad:__ZNSt3__215basic_streambufIwNS_11char_traitsIwEEE6setbufEPwi
Ct:_emscripten_gluProject
$bd:__ZNKSt3__29basic_iosIcNS_11char_traitsIcEEE4fillEv
w6a:__ZN16BitmapDataBinder9getRegionEP9lua_State
Xyb:_png_get_chunk_cache_max
Puc:_cf2_hintmask_setCounts
Wua:__Z6b2MulTRK5b2RotRK6b2Vec2
bvb:_z_gzgetc
XC:_llvm_trunc_f32
Nxb:_png_set_longjmp_fn
DXa:__ZN13GGGeolocationD0Ev
qWd:_emscripten_set_keypress_callback__wrapper
YDb:_png_convert_from_struct_tm
Ocb:__ZN14LuaApplication12setPrintFuncEPFvPKciPvES2_
olb:__ZNSt3__214__split_bufferIN19gevent_CallbackList15CallbackCommandERNS_9allocatorIS2_EEED2Ev
v9c:__ZNSt16nested_exceptionD2Ev
Zvd:__ZNKSt3__210moneypunctIwLb1EE11curr_symbolEv
wGb:_make_funny_pointers
Cwd:__ZNKSt3__29money_getIcNS_19istreambuf_iteratorIcNS_11char_traitsIcEEEEE3getES4_S4_bRNS_8ios_baseERjRNS_12basic_stringIcS3_NS_9allocatorIcEEEE
atc:_cff_size_done
Uhc:_FT_Add64
onc:_af_cjk_compute_stem_width
H_b:__ZL12LoadFunctionP9LoadStateP7TString
CJb:_jpeg_fdct_float
wgc:_mpg123_current_decoder
Dub:_z_inflateSetDictionary
e2:__ZNSt3__26__treeINS_12__value_typeIiN6TTFont9GlyphDataEEENS_19__map_value_compareIiS4_NS_4lessIiEELb1EEENS_9allocatorIS4_EEE7destroyEPNS_11__tree_nodeIS4_PvEE
BJb:_reset_error_mgr
fXd:_glDeleteBuffers__wrapper
IX:__ZN9TextField6doDrawERK7Matrix4ffff
puc:_cf2_hintmap_init
PDd:__ZNKSt3__212basic_stringIcNS_11char_traitsIcEENS_9allocatorIcEEE2atEj
zxc:_psh_glyph_load_points
kvb:_z_gzopen
il:__emval_new
H_:__ZL14easeInOutQuartd
t0c:_parse_atom
Sbb:__ZL17eventCheckClosureP9lua_State
v0a:__ZNK5b2Rot8GetXAxisEv
$ka:__ZN18ApplicationManager10backgroundEv
CY:__ZN6Screen8setStateEi
klb:__ZNSt3__26vectorIN19gevent_CallbackList15CallbackCommandENS_9allocatorIS2_EEE21__push_back_slow_pathIRKS2_EEvOT_
IQc:_put_32
$rd:__ZNSt3__2L15ucs4_to_utf16leEPKjS1_RS1_PhS3_RS3_mNS_12codecvt_modeE
Vs:_emscripten_glUniform2fv
ndb:_default_walker
Vvd:__ZNSt3__210moneypunctIwLb1EEC2Ej
U$a:__ZNK9b2Contact11GetFrictionEv
xU:__ZNSt3__211char_traitsIcE11eq_int_typeEii
W3b:__ZL9get_indexPKcS0_S0_Pi
Nhd:__ZNSt3__210__stdinbufIcE9__getcharEb
C6c:__ZNSt3__26__sortIRNS_6__lessIccEEPcEEvT0_S5_T_
vwb:_png_chunk_report
b8c:__ZNSt3__27__sort5IRNS_6__lessIddEEPdEEjT0_S5_S5_S5_S5_T_
Drd:__ZNKSt3__214__codecvt_utf8IDiE16do_always_noconvEv
_j:___syscall66
uca:__ZNK6Sprite4refYEv
Yj:___syscall64
Zj:___syscall65
kia:__ZL18kh_resize_vector4fP13kh_vector4f_tj
Xj:___syscall63
Wj:___syscall60
Kec:_bc_need_more
mhb:_gimage_saveImage
kta:_gui_createTextInputDialog
Mpc:_Ins_SRP2
fQa:___cxx_global_var_init_87
Lpc:_Ins_SRP1
xCc:_FT_List_Insert
s3a:__ZNK5b2Rot8GetAngleEv
$hb:__ZNSt3__26__treeINS_12__value_typeImPN9g_private14TextureElementEEENS_19__map_value_compareImS5_NS_4lessImEELb1EEENS_9allocatorIS5_EEED2Ev
DBd:__ZNSt3__211regex_errorC2ENS_15regex_constants10error_typeE
QBb:_png_image_read_header
oca:__ZNK6Sprite9rotationXEv
sNc:_md5_init
Ngd:__ZNSt3__213basic_ostreamIwNS_11char_traitsIwEEE5seekpENS_4fposI11__mbstate_tEE
Kpa:__ZN21GGSampleOpenALManager9SoundPlayEmb
pKb:_jpeg_write_m_byte
YBd:__ZNSt3__218shared_timed_mutex11lock_sharedEv
Q$c:_tre_stack_new
d0b:_luaL_optlstring
j7c:__ZNSt3__227__insertion_sort_incompleteIRNS_6__lessIttEEPtEEbT0_S5_T_
Rwa:__ZN15b2CircleContactD0Ev
GVc:_l64a
Mid:__ZNSt3__227__num_get_unsigned_integralImEET_PKcS3_Rji
z$a:__ZNK15b2ParticleGroup16GetParticleCountEv
cU:__ZN4FontC2EP11Application
yYb:__ZL7retstatP8LexState
h0:__ZN4SlotI9MovieClip15EnterFrameEventED0Ev
Hfd:__ZNSt3__213basic_istreamIwNS_11char_traitsIwEEE5seekgENS_4fposI11__mbstate_tEE
yRc:___strxfrm_l
rF:_tanf
HKc:_cacoshl
y2c:_getchar_unlocked
M3b:__ZL10Lutf8_findP9lua_State
sF:_tanl
Fqc:_Ins_MPPEM
S6c:__ZNSt3__218__insertion_sort_3IRNS_6__lessIaaEEPaEEvT0_S5_T_
mVc:_tanh
GKc:_cacoshf
FHd:__ZNSt3__212basic_stringIwNS_11char_traitsIwEENS_9allocatorIwEEE6assignENS_17basic_string_viewIwS2_EE
sy:_glGetQueryivEXT
Hrc:_Ins_PUSHB
wt:_emscripten_glVertexAttribPointer
P_:__ZL13easeInOutQuadd
Kl:__write_sockaddr
c4b:__ZL16matchbalanceUTF8P14MatchStateUTF8PKcPS2_
dnb:__ZN14GGSoundManager8postTickEv
Vn:_chroot
SC:_llvm_sqrt_f32
qSa:__ZN6BinderC2EP9lua_State
qBc:_FT_Attach_File
Fza:__ZN12b2WheelJoint23InitVelocityConstraintsERK12b2SolverData
Mdb:_control_construct
GHa:__ZN6b2Body18ApplyLinearImpulseERK6b2Vec2S2_b
tec:_generic_head_shift
GD:_pthread_cond_destroy
O8:__ZN11SpriteProxyD2Ev
xHb:_jpeg_idct_16x16
gEa:__ZN24b2TypedIntrusiveListNodeI16b2ParticleHandleED2Ev
fJ:__ZN9Particles14clearParticlesEv
Ypd:__ZNKSt3__25ctypeIcE10do_tolowerEPcPKc
$Eb:_latch_quant_tables
ZZa:__ZNK14LuaApplication16getHardwareWidthEv
H$b:_lua_resume
Mnc:_FT_Vector_NormLen
ow:_getdate
sLb:_emit_restart_e
KYb:__ZL8init_expP7expdesc7expkindi
Z4:__ZNSt3__26vectorIPdNS_9allocatorIS1_EEE26__swap_out_circular_bufferERNS_14__split_bufferIS1_RS3_EE
sac:_INT123_invalidate_format
fCa:__ZNK14b2PolygonShape8ValidateEv
sR:__ZNK5GMesh8getColorEiPjPf
YN:__ZNSt3__214__split_bufferI6Point2IfERNS_9allocatorIS2_EEED2Ev
Q3:__ZNSt3__26vectorIN8TTBMFont8FontFaceENS_9allocatorIS2_EEE26__swap_out_circular_bufferERNS_14__split_bufferIS2_RS4_EE
_N:__ZN3Dib8setPixelEiiPKh
Xd:_SDL_CondWaitTimeout
nmb:__ZNKSt3__26__treeINS_12__value_typeImPN14GGSoundManager5SoundEEENS_19__map_value_compareImS5_NS_4lessImEELb1EEENS_9allocatorIS5_EEE10__root_ptrEv
rkc:_check_table_dir
c0a:__ZN11b2DebugDrawD2Ev
hQd:__ZN10__cxxabiv112_GLOBAL__N_114parse_new_exprINS0_2DbEEEPKcS4_S4_RT_
To:_emscripten_alcDevicePauseSOFT
Kvc:_cf2_builder_moveTo
QGd:__ZNKSt3__212basic_stringIwNS_11char_traitsIwEENS_9allocatorIwEEE4rendEv
hib:__ZNSt3__26__treeINS_12__value_typeINS_6vectorIcNS_9allocatorIcEEEEPN9g_private14TextureElementEEENS_19__map_value_compareIS5_S9_NS_4lessIS5_EELb1EEENS3_IS9_EEE14__erase_uniqueIS5_EEjRKT_
MLc:_csinhl
VQc:_iswalnum_l
Jo:_eglSwapBuffers
Cf:_SDL_OpenAudio
sGc:_set_effect_defaults
ILc:_csin
ssa:__ZN10emscripten8internal6TypeIDIRmE3getEv
N3b:__ZL12Lutf8_gmatchP9lua_State
uq:_emscripten_glBufferData
mMd:__ZNKSt3__210error_code7messageEv
Dya:__ZplRK6b2Vec3S1_
Ldc:_INT123_synth_ntom_8bit_m2s
c7b:__ZN8pystring12_GLOBAL__N_117rsplit_whitespaceERKNSt3__212basic_stringIcNS1_11char_traitsIcEENS1_9allocatorIcEEEERNS1_6vectorIS7_NS5_IS7_EEEEi
ggc:_mpg123_meta_free
jdb:_block_is_last
bwc:_cff_vstore_done
hDc:_convert_signal
Az:_glUniform3iv
T7a:__ZN12SpriteBinder9getHeightEP9lua_State
hDa:__ZN9b2ContactD0Ev
Tbb:__ZL25eventCheckClosureWithDataP9lua_State
vEa:__ZN16b2ParticleSystem16ReallocateBufferIPvEEPT_S3_iiib
bDd:__ZNSt3__212basic_stringIcNS_11char_traitsIcEENS_9allocatorIcEEEaSEPKc
oyb:_png_get_y_offset_inches_fixed
VJ:__ZNSt3__214__split_bufferIfRNS_9allocatorIfEEED2Ev
cZ:__ZNSt3__26vectorIdNS_9allocatorIdEEE6resizeEj
zq:_emscripten_glClearDepth
VH:FUNCTION_TABLE_viidddddd
Qnd:__ZNKSt3__217moneypunct_bynameIwLb1EE16do_thousands_sepEv
XPa:___cxx_global_var_init_9_86
nWc:_fwrite
XId:__ZNKSt3__212basic_stringIwNS_11char_traitsIwEENS_9allocatorIwEEE7compareERKS5_
HHa:__ZNK16b2ParticleSystem19GetCriticalPressureERK10b2TimeStep
Fnd:__ZNKSt3__217moneypunct_bynameIwLb0EE16do_thousands_sepEv
wb:ftCall_vidddiii
_F:downcastPointer
Gta:_ggeolocation_isHeadingAvailable
Onb:__ZN14GGAudioManager25BackgroundChannelIsPausedEm
Oxa:__ZN6b2Vec33SetEfff
Kub:_z_inflateMark
vGd:__ZNSt3__212basic_stringIwNS_11char_traitsIwEENS_9allocatorIwEEE19__copy_assign_allocERKS5_
yKa:__ZNK12_GLOBAL__N_122TypedFixedSetAllocatorINS_15LightweightPairIP9b2FixtureiEEE8GetIndexEPKS4_
pxd:__ZNSt3__212_GLOBAL__N_14makeINS_7collateIwEEjEERT_T0_
j6a:__ZN12BitmapBinderC2EP9lua_State
Ec:ftCall_viiiiiiiiiii
kAd:__ZNSt3__214__shared_countD0Ev
dWc:_pipe
kvd:__ZNKSt3__28time_putIwNS_19ostreambuf_iteratorIwNS_11char_traitsIwEEEEE3putES4_RNS_8ios_baseEwPK2tmcc
Omc:__ft_face_scale_advances
nqb:__ZNSt3__214__split_bufferIPcRNS_9allocatorIS1_EEED2Ev
uxc:_ps_hints_t2mask
Gn:_asin
tBb:_png_read_rows
Hya:__ZNK12b2MotorJoint10GetAnchorBEv
ftd:__ZNKSt3__220__codecvt_utf8_utf16IDsE10do_unshiftER11__mbstate_tPcS4_RS4_
vaa:__ZN6Sprite11removeChildEPS_P7GStatus
Dhd:__ZNSt3__210__stdinbufIwE9underflowEv
lfa:__ZN17ogl2ShaderProgram7isValidEv
rUa:__ZN18RenderTargetBinder5clearEP9lua_State
cLd:__ZNSt3__212_GLOBAL__N_19as_stringINS_12basic_stringIwNS_11char_traitsIwEENS_9allocatorIwEEEEPFiPwjPKwzEfEET_T0_SD_PKNSD_10value_typeET1_
Wjc:_tt_face_load_name
zpb:__ZNKSt3__26__treeINS_12__value_typeIi8FileInfoEENS_19__map_value_compareIiS3_NS_4lessIiEELb1EEENS_9allocatorIS3_EEE10__root_ptrEv
Umc:_ft_lookup_glyph_renderer
G6c:__ZNSt3__218__insertion_sort_3IRNS_6__lessIccEEPcEEvT0_S5_T_
V9c:__ZNSt3__217__assoc_sub_state10__sub_waitERNS_11unique_lockINS_5mutexEEE
xZc:___fclose_ca
Ood:__ZNKSt3__27codecvtIDic11__mbstate_tE5do_inERS1_PKcS5_RS5_PDiS7_RS7_
Q5a:__ZN10FontBinderC2EP9lua_State
eGc:_read_event_ft2
jsa:__ZNK10emscripten8internal12WithPoliciesIJEE11ArgTypeListIJiNS_3valES4_RS4_S4_S4_S4_iiiEE8getTypesEv
wMa:__ZNK6b2Body14GetLocalVectorERK6b2Vec2
mpb:__ZL7s_writeiPKvj
HSa:__ZN15ParticlesBinder6createEP9lua_State
Yha:__ZL13add_fill_lineP4pathffffff
mHd:__ZNSt3__212basic_stringIwNS_11char_traitsIwEENS_9allocatorIwEEE2atEj
OBb:_png_image_begin_read_from_stdio
fhd:__GLOBAL__sub_I_iostream_cpp
YLa:__ZN9b2Fixture13SetFilterDataERK8b2Filter
MEb:_png_image_set_PLTE
c4c:_wcstoul
Utb:_z_deflateReset
yCd:__ZNSt3__212basic_stringIcNS_11char_traitsIcEENS_9allocatorIcEEEC2ERKS5_RKS4_
GMb:_fill_dc_scans
BGd:__ZNSt3__212basic_stringIwNS_11char_traitsIwEENS_9allocatorIwEEEaSEw
F8:__ZNK6Sprite6parentEv
W9b:_tpdf_noise
csc:_Dual_Project
PWb:_lua_equal
Tla:__ZNKSt3__26__treeINS_12__value_typeIjNS_6vectorIP17ginput_TouchEventNS_9allocatorIS4_EEEEEENS_19__map_value_compareIjS8_NS_4lessIjEELb1EEENS5_IS8_EEE10__root_ptrEv
jR:__ZN5GMesh16clearVertexArrayEv
F$:__ZN9MovieClip5FrameC2EOS0_
Neb:__ZNSt3__26__treeINS_12__value_typeIPvP11GReferencedEENS_19__map_value_compareIS2_S5_NS_4lessIS2_EELb1EEENS_9allocatorIS5_EEE12__find_equalIS2_EERPNS_16__tree_node_baseIS2_EERPNS_15__tree_end_nodeISG_EERKT_
MSc:_finitef
gyd:__ZNSt3__26locale5__imp7installINS_8time_getIwNS_19istreambuf_iteratorIwNS_11char_traitsIwEEEEEEEEvPT_
afc:_do_readahead
AXa:__ZN13GGGeolocation10callback_sEiPvS0_
tjb:__ZNKSt3__26__treeINS_12__value_typeImPN9g_private19RenderTargetElementEEENS_19__map_value_compareImS5_NS_4lessImEELb1EEENS_9allocatorIS5_EEE10__root_ptrEv
qDd:__ZNKSt3__212basic_stringIcNS_11char_traitsIcEENS_9allocatorIcEEE6rbeginEv
Mic:_tt_cmap13_char_index
kIa:__ZNSt3__214__rotate_rightIPN16b2ParticleSystem5TriadEEET_S4_S4_
Xkc:_FT_Stream_Free
BFb:_alloc_barray
Tta:__ZL8errorLuaPKc
PLa:__ZN7b2World11ShiftOriginERK6b2Vec2
Daa:__ZNK6Sprite12boundsHelperERK7Matrix4PfS3_S3_S3_NSt3__25stackIS0_NS4_5dequeIS0_NS4_9allocatorIS0_EEEEEEb
hEc:_read16b
bsd:__ZNKSt3__215__codecvt_utf16IDsLb0EE6do_outER11__mbstate_tPKDsS5_RS5_PcS7_RS7_
m2a:__ZN12Box2DBinder224b2ChainShape_createChainEP9lua_State
NVc:_a_ctz_l_385
kxb:_png_muldiv_warn
cMd:__ZNKSt3__223__system_error_category4nameEv
skc:_tt_sbit_decoder_init
pRc:_strcasecmp_l
fjb:__ZNSt3__26__treeIPN9g_private14TextureElementENS_4lessIS3_EENS_9allocatorIS3_EEE16__insert_node_atEPNS_15__tree_end_nodeIPNS_16__tree_node_baseIPvEEEERSD_SD_
M0b:_luaopen_base
Rq:_emscripten_glDeleteTextures
Hja:__ZN14NetworkManager10createFileERKNSt3__26vectorIcNS0_9allocatorIcEEEE
mia:__ZL12delete_pathsji
JSb:___gl_pqHeapNewPriorityQ
ZA:_glfwSetWindowRefreshCallback
OWa:__ZN13GGAlertDialogC2EP9lua_StatePKcS3_S3_S3_S3_
MTc:_ldexpf
bPb:__ZNK17CPVRTResourceFile4SizeEv
Heb:__ZN11GReferenced3refEv
tXb:_lua_setfield
VGb:_jpeg_fill_bit_buffer
sfb:__Z7fileAgePKc
fXc:_sscanf
eLd:__ZNKSt3__212_GLOBAL__N_114initial_stringINS_12basic_stringIwNS_11char_traitsIwEENS_9allocatorIwEEEEdLb1EEclEv
bjb:__ZNSt3__26__treeIPN9g_private14TextureElementENS_4lessIS3_EENS_9allocatorIS3_EEED2Ev
Dja:__ZN14NetworkManager4tickEv
cca:__ZN9Transform12setRotationYEf
vp:_emscripten_coroutine_create
sBd:__ZNSt12experimental19bad_optional_accessD2Ev
Xmb:__ZN14GGSoundManager18ChannelAddCallbackEmPFviPvS0_ES0_
jLc:_expm1f
vzb:_png_read_filter_row
Ydc:_INT123_synth_4to1_real_mono
ESc:_expm1l
Ky:_glIsFramebuffer
IJa:__ZN12_GLOBAL__N_122TypedFixedSetAllocatorINS_15LightweightPairIiiEEEC2EP16b2StackAllocator
V6b:__ZL7ll_loadP9lua_StatePKc
yLd:__ZTv0_n12_NSt3__210ostrstreamD0Ev
xca:__ZNK6Sprite18getGreenMultiplierEv
WZ:__ZNSt3__26__treeINS_12__value_typeIiiEENS_19__map_value_compareIiS2_NS_4lessIiEELb1EEENS_9allocatorIS2_EEED2Ev
oQ:__ZNSt3__214__split_bufferIP5ColorRNS_9allocatorIS2_EEEC2EjjS5_
szb:_png_get_uint_31
eMd:__ZNKSt3__223__system_error_category7messageEi
P7:__ZN11TextureDataC2Ev
Wga:__ZN16ogl2ShaderEngine12setBlendFuncEN12ShaderEngine11BlendFactorES1_
E0a:__ZN12Box2DBinder228b2FrictionJoint_getMaxTorqueEP9lua_State
Gmb:__ZNSt3__26__treeIPN14GGSoundManager7ChannelENS_4lessIS3_EENS_9allocatorIS3_EEE14__erase_uniqueIS3_EEjRKT_
U4:__ZN10Tesselator9DoCleanupEv
AM:__ZN8Viewport12setTransformEPK7Matrix4
mpd:__ZNKSt3__27codecvtIwc11__mbstate_tE5do_inERS1_PKcS5_RS5_PwS7_RS7_
jza:__ZNK11b2RopeJoint16GetReactionForceEf
b3c:_setbuffer
hXa:__ZN17GeolocationBinder11isAvailableEP9lua_State
qT:__ZNK4Font7kerningEii
gMc:_des_cipher
_pa:__ZN21GGSampleOpenALManager14ChannelIsValidEm
cQc:_a_cas_p
mo:_dlsym
bbd:__ZTv0_n12_NSt3__213basic_istreamIcNS_11char_traitsIcEEED0Ev
lac:_mpg123_fmt_all
jLa:__ZNSt3__227__insertion_sort_incompleteIRN12_GLOBAL__N_124ExpirationTimeComparatorEPiEEbT0_S5_T_
kuc:_cf2_glyphpath_closeOpenPath
yPa:__ZN16b2ParticleSystem24SetUserOverridableBufferIPvEEvPNS_21UserOverridableBufferIT_EEPS3_i
oVa:__ZN12_GLOBAL__N_17GGSound17setSoundInterfaceEv
nla:__ZN20GGApplicationManager16getScreenDensityEv
uib:__ZNSt3__26__treeINS_12__value_typeImPN9g_private14TextureElementEEENS_19__map_value_compareImS5_NS_4lessImEELb1EEENS_9allocatorIS5_EEE13__lower_boundImEENS_15__tree_iteratorIS5_PNS_11__tree_nodeIS5_PvEEiEERKT_SI_PNS_15__tree_end_nodeIPNS_16__tree_node_baseISG_EEEE
w_b:__ZL10enterblockP9FuncStateP8BlockCnth
Dsc:_TT_Load_Composite_Glyph
BUd:mftCall_iiiiiiiii
vLc:_conjf
t6b:__ZL7foreachP9lua_State
yzc:_ft_stroke_border_arcto
Ord:__ZNSt3__2L22utf16be_to_ucs4_lengthEPKhS1_jmNS_12codecvt_modeE
o1c:__flushlbf
mcb:__ZL9get_classP9lua_State
KX:__ZN9TextField7setTextEPKc
cOb:__ZN10ByteBufferC2EPKci
ww:_getnameinfo
OQd:__ZNSt3__212basic_stringIcNS_11char_traitsIcEEN10__cxxabiv112_GLOBAL__N_112malloc_allocIcEEE9__grow_byEjjjjjj
M_a:__ZN12Box2DBinder219getRevoluteJointDefEP9lua_State
Y2c:_rewind
NSb:___gl_meshUnion
T_b:__ZL10LoadNumberP9LoadState
Hfc:_zero_byte
icd:__ZNSt3__29basic_iosIcNS_11char_traitsIcEEE4moveERS3_
dic:_ft_validator_error
v6c:_tcsetpgrp
F4a:__ZN20EventContactListenerC2EP9b2WorldED
Q1b:__ZL10db_errorfbP9lua_State_1891
Qxd:__ZNSt3__26locale5__imp7installINS_10moneypunctIcLb0EEEEEvPT_
Tcc:_III_i_stereo
qqd:__ZNKSt3__212ctype_bynameIwE10do_toupperEPwPKw
FJ:__ZNSt3__214__split_bufferIN9Particles5ColorERNS_9allocatorIS2_EEE18__construct_at_endEj
$va:__ZNK13b2CircleShape13GetChildCountEv
nH:FUNCTION_TABLE_iii
xZ:__ZN6Sprite9setBoundsEffff
zDa:__ZN7b2WorldD2Ev
zMa:__ZNK6b2Body14GetWorldVectorERK6b2Vec2
O4b:__ZL12utf8_toupperj
jga:__ZNKSt3__26vectorIN13ShaderProgram8DataDescENS_9allocatorIS2_EEE8max_sizeEv
wda:__ZN7Matrix45scaleEfff
kda:__ZN7Matrix416invertProjectiveEv
U1b:__ZL5hookfP9lua_StateP9lua_Debug
_Mb:__ZN6snappy4SinkD2Ev
Pg:_XChangeWindowAttributes
nNd:__ZNK10__cxxabiv116__shim_type_info5noop2Ev
gbd:__ZTv0_n12_NSt3__213basic_istreamIwNS_11char_traitsIwEEED0Ev
eOa:__ZNSt3__214__rotate_rightIP6b2Vec2EET_S3_S3_
mDa:__ZN25b2PolygonAndCircleContactC2EP9b2FixtureS1_
aWc:_setsid
hk:___syscall97
Xz:_glVertexAttribPointer
ZRd:__ZSt12__unexpectedPFvvE
wxd:__ZNSt3__26locale5__imp7installINS_7codecvtIcc11__mbstate_tEEEEvPT_
QUb:__ZL15traverseclosureP12global_StateP7Closure
Jka:__ZN18ApplicationManagerC2EbPKcS1_
Tod:__ZNKSt3__27codecvtIDic11__mbstate_tE13do_max_lengthEv
fk:___syscall94
Zuc:_cf2_stack_setReal
tDa:__ZNSt3__27__sort3IRPFbRK6b2PairS3_EPS1_EEjT0_S8_S8_T_
zT:__ZNKSt3__26vectorI12GraphicsBaseNS_9allocatorIS1_EEE8max_sizeEv
XMb:__ZN11CPVRTStringD2Ev
eta:__ZN8UiDialogaSERKS_
VBd:__ZNSt3__218shared_timed_mutex4lockEv
LTc:_ldexp
G9:__ZNSt3__214__split_bufferIPNS_4pairIP6SpritebEENS_9allocatorIS5_EEE9push_backEOS5_
DTb:_unzGetFilePos
wfb:__ZNSt3__25dequeINS_12basic_stringIcNS_11char_traitsIcEENS_9allocatorIcEEEENS4_IS6_EEE9push_backEOS6_
NVb:__ZL12callrethooksP9lua_StateP10lua_TValue
kZb:_luaK_prefix
FUd:mftCall_iiiiiiiiiiiii
dDd:__ZNSt3__212basic_stringIcNS_11char_traitsIcEENS_9allocatorIcEEEaSEc
Pcc:_III_get_side_info
KBd:__ZNSt3__212_GLOBAL__N_110use_strcmpclERKNS0_10classnamesEPKc
rld:__ZNSt3__215time_get_bynameIcNS_19istreambuf_iteratorIcNS_11char_traitsIcEEEEED2Ev
Cyb:_png_get_iCCP
Ztc:_cf2_stack_getReal
Rsa:_ghttp_Put
c6c:_renameat
t6:__ZNSt3__26__treeINS_12__value_typeIdNS_6vectorIP5TimerNS_9allocatorIS4_EEEEEENS_19__map_value_compareIdS8_NS_4lessIdEELb1EEENS5_IS8_EEED2Ev
Ucc:_III_antialias
c:HEAP32
u1:__ZN13GRenderTargetD0Ev
bI:FUNCTION_TABLE_viiiddddidi
jvc:_cf2_getBlueValues
KSa:__ZN15ParticlesBinder15removeParticlesEP9lua_State
Kzc:_ft_cubic_split
z_c:_ns_put16
vGa:__ZN16b2ParticleSystem14UpdateContactsEb
ykb:__ZNSt3__214__split_bufferIPN6gevent12EventManager17EventQueueElementERNS_9allocatorIS4_EEE18__construct_at_endINS_13move_iteratorIPS4_EEEENS_9enable_ifIXsr21__is_forward_iteratorIT_EE5valueEvE4typeESE_SE_
tda:__ZN7Matrix49translateERK7Vector3
d8:__ZN3DibC2ERKS_
pq:_emscripten_glBlendColor
Ukb:__ZN19gevent_CallbackListC2Ev
h1c:___lxstat
Cuc:_cf2_hintmap_adjustHints
CFa:__ZN10b2FreeListC2Ev
pGd:__ZNKSt3__212basic_stringIwNS_11char_traitsIwEENS_9allocatorIwEEE14__get_long_capEv
d7:__ZNSt3__26__treeINS_12__value_typeIdNS_6vectorIP5TimerNS_9allocatorIS4_EEEEEENS_19__map_value_compareIdS8_NS_4lessIdEELb1EEENS5_IS8_EEE5eraseENS_21__tree_const_iteratorIS8_PNS_11__tree_nodeIS8_PvEEiEE
lAa:__ZN6b2DrawD0Ev
aq:_emscripten_get_preloaded_image_data
cS:__ZNSt3__26vectorI4RectNS_9allocatorIS1_EEE21__push_back_slow_pathIRKS1_EEvOT_
UId:__ZNKSt3__212basic_stringIwNS_11char_traitsIwEENS_9allocatorIwEEE16find_last_not_ofEPKwjj
zm:_alGetListeneriv
vfc:_INT123_decode_update
GPb:__ZN11CPVRTString5eraseEjj
Qwb:_png_XYZ_normalize
Ayd:__ZNSt3__28numpunctIcEC2Ej
kC:_llvm_exp2_f32
dcd:__ZNSt3__29basic_iosIcNS_11char_traitsIcEEE5imbueERKNS_6localeE
uDd:__ZNKSt3__212basic_stringIcNS_11char_traitsIcEENS_9allocatorIcEEE4cendEv
hwd:__ZNSt3__213__rotate_leftINS_11__wrap_iterIPcEEEET_S4_S4_
OLb:_start_pass_prep
EDc:_read8
YX:__ZN13TextFieldBaseC2EP11Application
hSa:__ZNSt3__25dequeIN14LuaApplication12AsyncLuaTaskENS_9allocatorIS2_EEE19__add_back_capacityEv
gZ:__ZNSt3__214__split_bufferIdRNS_9allocatorIdEEEC2EjjS3_
mfc:_get_fileinfo
nNa:__ZNK12b2MotorJoint16GetAngularOffsetEv
rpc:_Current_Ppem
OBa:__ZNK20b2SeparationFunction17FindMinSeparationEPiS0_f
dLa:__ZN16b2ParticleSystem13RequestBufferI15b2ParticleColorEEPT_S3_
v5a:__ZN15TextFieldBinder7getTextEP9lua_State
W3a:__ZN12Box2DBinder218b2World_setGravityEP9lua_State
sUa:__ZN18RenderTargetBinder4drawEP9lua_State
NC:_llvm_powi_f32
ynd:__ZNKSt3__217moneypunct_bynameIcLb1EE16do_negative_signEv
$Fd:__ZNSt3__212basic_stringIwNS_11char_traitsIwEENS_9allocatorIwEEEC2EPKw
Ncd:__ZNSt3__29basic_iosIwNS_11char_traitsIwEEEC2Ev
Syb:_png_get_rgb_to_gray_status
T1a:__ZN12Box2DBinder229b2RevoluteJoint_getJointSpeedEP9lua_State
I4c:_wcpncpy
eHa:__ZNSt3__213__upper_boundIRNS_6__lessIjN16b2ParticleSystem5ProxyEEEPS3_jEET0_S7_S7_RKT1_T_
o8b:__ZN8pystring2os4path8basenameERKNSt3__212basic_stringIcNS2_11char_traitsIcEENS2_9allocatorIcEEEE
pkc:_FT_Stream_ReadULong
ESb:_AddSentinel
LZa:__ZN17ApplicationBinder13setWindowSizeEP9lua_State
EEd:__ZNSt3__212basic_stringIcNS_11char_traitsIcEENS_9allocatorIcEEE7replaceEjjPKc
_wb:_png_icc_set_sRGB
SN:__ZN12VertexBufferI6Point2IfEE6UpdateEv
PYb:_luaK_exp2RK
erd:__ZNSt3__217__widen_from_utf8ILj16EED0Ev
STc:___sin
N7a:__ZN12SpriteBinder9isVisibleEP9lua_State
BBc:_FT_CMap_Done
BK:__ZNSt3__26__treeINS_12__value_typeIiNS_6vectorIP8SlotBaseNS_9allocatorIS4_EEEEEENS_19__map_value_compareIiS8_NS_4lessIiEELb1EEENS5_IS8_EEE4findIiEENS_15__tree_iteratorIS8_PNS_11__tree_nodeIS8_PvEEiEERKT_
Duc:_cf2_hint_isSynthetic
Hxd:__ZNSt3__212_GLOBAL__N_14makeINS_7num_getIcNS_19istreambuf_iteratorIcNS_11char_traitsIcEEEEEEjEERT_T0_
Cfc:_mpg123_safe_buffer
KCd:__ZNSt3__212basic_stringIcNS_11char_traitsIcEENS_9allocatorIcEEEC2ERKS5_jjRKS4_
S7b:__ZN8pystring2os4path10splitdriveERNSt3__212basic_stringIcNS2_11char_traitsIcEENS2_9allocatorIcEEEES9_RKS8_
Smb:__ZN14GGSoundManager15ChannelSetPitchEmf
vP:__ZL8multiplyPA2_KfS1_PA2_f
DDc:_readmem32l
F2b:__ZL9aux_closeP9lua_State
qOb:__ZN10ByteBuffer6appendEPKhi
Wvb:_png_user_version_check
wjc:_tt_face_get_ps_name
dob:_gaudio_SoundListener
Mub:_z_gzputc
o$:__Z4qMindd
Pya:__ZNK6b2Body11GetPositionEv
$1c:___pthread_self_599
LJa:__ZNSt3__27__sort3IRNS_6__lessIN16b2ParticleSystem5ProxyES3_EEPS3_EEjT0_S7_S7_T_
XLa:__ZN9b2Fixture13CreateProxiesEP12b2BroadPhaseRK11b2Transform
Wd:_SDL_CondWait
N:Math_exp
Trd:__ZNKSt3__215__codecvt_utf16IwLb1EE5do_inER11__mbstate_tPKcS5_RS5_PwS7_RS7_
Xt:_emscripten_num_logical_cores
Joc:_Update_Max
Nub:_z_gzputs
EDa:__ZN16b2ParticleSystemD2Ev
gTc:_fminl
nm:_alGetDoublev
C8b:__ZN6snappy4Bits9Log2FloorEj
uRb:_internal_gluTessCallback
Fsb:__ZNSt3__26__treeINS_12basic_stringIcNS_11char_traitsIcEENS_9allocatorIcEEEENS_4lessIS6_EENS4_IS6_EEEC2ERKS8_
Uud:__ZNSt3__218__time_get_storageIwE9__analyzeEcRKNS_5ctypeIwEE
_ec:_decode_header
wIa:__ZN12b2StackQueueIN16b2VoronoiDiagram20b2VoronoiDiagramTaskEEC2EP16b2StackAllocatori
eTc:_fminf
imd:__ZNKSt3__28time_putIwNS_19ostreambuf_iteratorIwNS_11char_traitsIwEEEEE6do_putES4_RNS_8ios_baseEwPK2tmcc
KVc:_ffs
CKb:_emit_dqt
c8c:__ZNSt3__218__insertion_sort_3IRNS_6__lessIddEEPdEEvT0_S5_T_
wTc:_y0f
Jed:__ZNSt3__213basic_istreamIcNS_11char_traitsIcEEE8readsomeEPci
Oyd:__ZNSt3__26locale5__imp7installINS_14codecvt_bynameIDsc11__mbstate_tEEEEvPT_
dUa:__ZN12Path2DBinder16setLineThicknessEP9lua_State
y9:__ZNSt3__214__split_bufferIPNS_5stackINS_4pairIP6SpritebEENS_5dequeIS5_NS_9allocatorIS5_EEEEEERNS7_ISB_EEEC2EjjSD_
hXd:_glDeleteTextures__wrapper
urc:_Ins_SDPVTL
KD:_pthread_cond_wait
Hsb:_gpath_setDriveFlags
Mma:__ZN6ginput12InputManager16deleteMouseEventEP17ginput_MouseEvent
fSb:_CheckForLeftSplice
A0:__ZNSt3__26__treeINS_12__value_typeIP6SpriteiEENS_19__map_value_compareIS3_S4_NS_4lessIS3_EELb1EEENS_9allocatorIS4_EEE16__construct_nodeIJRKNS_21piecewise_construct_tENS_5tupleIJRKS3_EEENSG_IJEEEEEENS_10unique_ptrINS_11__tree_nodeIS4_PvEENS_22__tree_node_destructorINS9_ISO_EEEEEEDpOT_
VDb:_png_save_uint_16
T6:__ZNSt3__26__treeIP5TimerNS_4lessIS2_EENS_9allocatorIS2_EEE16__insert_node_atEPNS_15__tree_end_nodeIPNS_16__tree_node_baseIPvEEEERSC_SC_
uH:FUNCTION_TABLE_iiiiiiii
Zac:_bad_init
jzd:__ZNSt3__26locale5__impC2ERKS1_RKNS_12basic_stringIcNS_11char_traitsIcEENS_9allocatorIcEEEEi
T9c:__ZNSt3__217__assoc_sub_state12__make_readyEv
V1c:_mclose_2627
Lvd:__ZNSt3__210moneypunctIwLb0EEC2Ej
Al:__inet_pton6_raw
vyb:_png_get_cHRM
uha:__ZN6Path2D8fillPathEi7Matrix4PfP11TextureDatabP13ShaderProgramPKS0_
bLb:_compress_output
xW:__ZNSt3__26vectorIP15EventDispatcherNS_9allocatorIS2_EEEC2INS_21__tree_const_iteratorIS2_PNS_11__tree_nodeIS2_PvEEiEEEET_NS_9enable_ifIXaasr21__is_forward_iteratorISD_EE5valuesr16is_constructibleIS2_NS_15iterator_traitsISD_E9referenceEEE5valueESD_E4typeE
Jkc:_tt_face_build_cmaps
jPd:__ZN10__cxxabiv112_GLOBAL__N_112malloc_allocIcE10deallocateEPcj
jpa:__ZNSt3__26__treeINS_12__value_typeImPN12_GLOBAL__N_121GGStreamOpenALManager5SoundEEENS_19__map_value_compareImS6_NS_4lessImEELb1EEENS_9allocatorIS6_EEE5eraseENS_21__tree_const_iteratorIS6_PNS_11__tree_nodeIS6_PvEEiEE
e_:__ZL15easeOutInBounced
q9:__ZNSt3__25dequeINS_4pairIP6SpritebEENS_9allocatorIS4_EEE8pop_backEv
Y7b:__ZN8pystring2os4path11normpath_ntERKNSt3__212basic_stringIcNS2_11char_traitsIcEENS2_9allocatorIcEEEE
h6c:_seteuid
q9c:__ZNKSt3__211__libcpp_db9__addableEPKvi
Zl:_alDisable
tG:getStringOrSymbol
Fqd:__ZNSt3__28numpunctIwED2Ev
BX:__ZNSt3__214__split_bufferIPNS_6vectorIP11GReferencedNS_9allocatorIS3_EEEERNS4_IS7_EEEC2EjjS9_
WPb:__ZNK11CPVRTString12find_last_ofEPKcj
R5:__ZNSt3__26__treeIP15EventDispatcherNS_4lessIS2_EENS_9allocatorIS2_EEE5eraseENS_21__tree_const_iteratorIS2_PNS_11__tree_nodeIS2_PvEEiEE
sib:__ZNSt3__26__treeINS_12__value_typeINS_6vectorIcNS_9allocatorIcEEEEPN9g_private14TextureElementEEENS_19__map_value_compareIS5_S9_NS_4lessIS5_EELb1EEENS3_IS9_EEE13__lower_boundIS5_EENS_15__tree_iteratorIS9_PNS_11__tree_nodeIS9_PvEEiEERKT_SL_PNS_15__tree_end_nodeIPNS_16__tree_node_baseISJ_EEEE
O6a:__ZN12SpriteBinderC2EP9lua_State
Jn:_atan
kDb:_png_default_flush
swc:_cff_cmap_unicode_char_index
sea:__ZNSt3__25dequeIN12ShaderEngine12DepthStencilENS_9allocatorIS2_EEE9push_backERKS2_
jgc:_mpg123_icy2utf8
VCb:_png_set_unknown_chunk_location
cda:__ZN7Matrix413invertGeneralEv
ee:_SDL_DestroyMutex
VHd:__ZNSt3__212basic_stringIwNS_11char_traitsIwEENS_9allocatorIwEEE5eraseEjj
CKd:__ZNKSt3__212_GLOBAL__N_114initial_stringINS_12basic_stringIcNS_11char_traitsIcEENS_9allocatorIcEEEEfLb1EEclEv
Gbb:__ZNSt3__26__treeINS_12__value_typeIiNS_6vectorIP12CppLuaBridgeNS_9allocatorIS4_EEEEEENS_19__map_value_compareIiS8_NS_4lessIiEELb1EEENS5_IS8_EEEC2ERKSC_
EJa:__ZNSt3__27__sort5IRPFbRKN12_GLOBAL__N_115LightweightPairIiiEES5_EPS3_EEjT0_SA_SA_SA_SA_T_
EKc:_copysignf
rGb:_jinit_d_coef_controller
SVc:_dprintf
L3:__ZNSt3__26vectorIN8TTBMFont8FontFaceENS_9allocatorIS2_EEE8__appendEj
Q6a:__ZN12SpriteBinder8destructEP9lua_State
Edd:__ZNSt3__215basic_streambufIwNS_11char_traitsIwEEE7sungetcEv
_sb:_g_pathForFile
QPc:_copysignl
Lm:_alIsSource
_mb:__ZN14GGSoundManager14registerLoaderEPKcR13GGAudioLoader
hzd:__ZNSt3__212_GLOBAL__N_14makeINS_6locale5__impEjEERT_T0_
br:_emscripten_glDrawArraysInstancedANGLE
YSa:__ZN15ParticlesBinder14getParticleTtlEP9lua_State
WVd:_sysconf__wrapper
T7b:__ZN8pystring2os4path8isabs_ntERKNSt3__212basic_stringIcNS2_11char_traitsIcEENS2_9allocatorIcEEEE
$3a:__ZN22b2ParticleSystemSpriteD2Ev
Ksd:__ZNKSt3__215__codecvt_utf16IDiLb1EE9do_lengthER11__mbstate_tPKcS5_j
ZQd:__ZN10__cxxabiv112_GLOBAL__N_15arenaILj4096EE8allocateEj
Iu:_emscripten_set_mouseleave_callback
UGc:_xmp_restart_module
yqb:_luaL_rawsetptr
rvd:__ZNSt3__210moneypunctIcLb0EEC2Ej
b8a:__ZN12SpriteBinder17setShaderConstantEP9lua_State
qtc:_cff_free_glyph_data
fwb:_png_get_io_ptr
naa:__ZNSt3__214__split_bufferIP6SpriteRNS_9allocatorIS2_EEE18__construct_at_endINS_13move_iteratorIPS2_EEEENS_9enable_ifIXsr21__is_forward_iteratorIT_EE5valueEvE4typeESC_SC_
Qeb:__ZNKSt3__26__treeINS_12__value_typeIPvP11GReferencedEENS_19__map_value_compareIS2_S5_NS_4lessIS2_EELb1EEENS_9allocatorIS5_EEE10__root_ptrEv
xJd:__ZNSt3__24stolERKNS_12basic_stringIcNS_11char_traitsIcEENS_9allocatorIcEEEEPji
LJc:___syscall_ret
cqd:__ZNSt3__25ctypeIcE21__classic_upper_tableEv
LPd:__ZN10__cxxabiv112_GLOBAL__N_111string_pairaSEOS1_
ODa:__ZN16b2ParticleSystem10FreeBufferIfEEvPPT_i
Q5c:_getsid
vnb:__ZN14GGAudioManager16ChannelGetVolumeEm
Mrd:__ZNKSt3__215__codecvt_utf16IwLb0EE9do_lengthER11__mbstate_tPKcS5_j
KId:__ZNKSt3__212basic_stringIwNS_11char_traitsIwEENS_9allocatorIwEEE12find_last_ofEPKwjj
cBc:_raccess_make_file_name
SR:__ZN15MaxRectsBinPackD2Ev
ZFd:__ZNSt3__212basic_stringIwNS_11char_traitsIwEENS_9allocatorIwEEE7__allocEv
uy:_glGetShaderInfoLog
xKd:__ZNSt3__212_GLOBAL__N_19as_stringINS_12basic_stringIcNS_11char_traitsIcEENS_9allocatorIcEEEEPFiPcjPKczExEET_T0_SD_PKNSD_10value_typeET1_
Wcc:_dct12
a8a:__ZN12SpriteBinder9setShaderEP9lua_State
jdc:_INT123_synth_1to1_real
Fu:_emscripten_set_main_loop_timing
l7b:__ZN8pystring6lstripERKNSt3__212basic_stringIcNS0_11char_traitsIcEENS0_9allocatorIcEEEES8_
W4a:__ZN20EventContactListener10EndContactEP9b2FixtureP16b2ParticleSystemi
B$a:__ZN12Box2DBinder226b2Contact_getWorldManifoldEP9lua_State
APd:__ZN10__cxxabiv112_GLOBAL__N_119parse_function_typeINS0_2DbEEEPKcS4_S4_RT_
Bcd:__ZNKSt3__29basic_iosIwNS_11char_traitsIwEEE3tieEv
g5a:__ZN19AccelerometerBinder8destructEP9lua_State
mlb:__ZNSt3__214__split_bufferIN19gevent_CallbackList15CallbackCommandERNS_9allocatorIS2_EEEC2EjjS5_
Lob:_gaudio_BackgroundChannelRemoveCallback
Zzd:__ZNKSt3__26locale5__imp4nameEv
fDd:__ZNSt3__212basic_stringIcNS_11char_traitsIcEENS_9allocatorIcEEE19__get_short_pointerEv
XOd:__ZNSt3__213__vector_baseIN10__cxxabiv112_GLOBAL__N_111string_pairENS2_11short_allocIS3_Lj4096EEEED2Ev
fkb:__ZN6gevent12EventManager15scope_exit_freeC2EbPv
aNc:_sn_write
n8c:__ZNSt3__212__rs_defaultclEv
VC:_llvm_stacksave
a6c:_readlinkat
UV:__ZNK11Application20getLogicalTranslateYEv
uSc:_erfl
T$:__ZN9MovieClip4stopEb
ls:_emscripten_glIsQueryEXT
EGb:_consume_data
oMd:__ZNSt3__212system_errorC2ENS_10error_codeERKNS_12basic_stringIcNS_11char_traitsIcEENS_9allocatorIcEEEE
T6b:__ZL9loaderrorP9lua_StatePKc
pSc:_erfc
gI:FUNCTION_TABLE_viiiiddi
Zr:_emscripten_glGetString
sId:__ZNKSt3__212basic_stringIwNS_11char_traitsIwEENS_9allocatorIwEEE4findENS_17basic_string_viewIwS2_EEj
Uhb:__ZNSt3__23mapImPN9g_private19RenderTargetElementENS_4lessImEENS_9allocatorINS_4pairIKmS3_EEEEED2Ev
Dfc:_mpg123_outblock
b$b:__ZL13DumpConstantsPK5ProtoP9DumpState
nCc:_FT_Get_Sfnt_Name_Count
Lxb:_png_warning_parameter_signed
HVa:__ZN10MeshBinder25setTextureCoordinateArrayEP9lua_State
sJa:__ZL23FindItemIndexInFixedSetIN12_GLOBAL__N_115LightweightPairIiiEEEiRKNS0_22TypedFixedSetAllocatorIT_EERKS4_
uEc:_map_virt_channel
oRc:_setlocale_one_unlocked
wrd:__ZNSt3__2L12utf8_to_ucs2EPKhS1_RS1_PtS3_RS3_mNS_12codecvt_modeE
HCb:_png_get_int_32
gBd:__ZdaPvj
A4:__ZN5Shape12extendBoundsEfff
YV:__ZNK11Application17getHardwareHeightEv
KSd:runPostSets33
mWb:__ZL10resetstackP9lua_Statei
ck:___syscall85
wT:__ZNSt3__212basic_stringIiNS_11char_traitsIiEENS_9allocatorIiEEE9__grow_byEjjjjjj
Ryd:__ZNSt3__26locale5__imp7installINS_15numpunct_bynameIcEEEEvPT_
bk:___syscall83
Pxb:_png_safe_error
VXb:_luaK_ret
i9c:__ZNSt3__211__libcpp_db16__invalidate_allEPv
E1:__ZN10MouseEvent5applyEP12EventVisitor
CVd:b4
DVd:b5
EVd:b6
FVd:b7
EDd:__ZNSt3__212basic_stringIcNS_11char_traitsIcEENS_9allocatorIcEEE14__erase_to_endEj
zVd:b1
AVd:b2
Nuc:_cf2_hint_isPairTop
E0:__ZNKSt3__26vectorIPN9MovieClip5FrameENS_9allocatorIS3_EEE8max_sizeEv
HVd:b9
qhb:__ZL16init_destinationP20jpeg_compress_struct
Kcd:__ZNSt3__29basic_iosIwNS_11char_traitsIwEEE5imbueERKNS_6localeE
RWa:__ZN13GGAlertDialogD2Ev
sMd:__ZNSt3__212system_errorC2EiRKNS_14error_categoryEPKc
iJ:__ZNSt3__26vectorIhNS_9allocatorIhEEE6resizeEj
m5a:__ZN15GGAccelerometer4stopEv
aYa:__ZL5ishexc
GH:FUNCTION_TABLE_vidddd
oea:__ZNSt3__214__split_bufferIPN12ShaderEngine7ScissorENS_9allocatorIS3_EEE10push_frontEOS3_
RB:_gnu_dev_major
qhc:_Vertical_Sweep_Step
vhb:_gimage_loadImage
wHb:_jpeg_idct_16x8
EOa:__ZN24b2TypedIntrusiveListNodeI16b2ParticleHandleE13GetNodeOffsetEP19b2IntrusiveListNode
Kcc:_INT123_init_layer3_gainpow2
hia:__ZNSt3__26vectorI8vector4fNS_9allocatorIS1_EEE8allocateEj
vva:__ZN24b2TypedIntrusiveListNodeI14b2TrackedBlockEC2Ev
rJ:__ZNSt3__214__split_bufferINS_12basic_stringIcNS_11char_traitsIcEENS_9allocatorIcEEEERNS4_IS6_EEE18__construct_at_endEj
Zbc:_mpg123_volume
Dpc:_Ins_SFVTL
s9c:__ZNKSt3__211__libcpp_db22__less_than_comparableEPKvS2_
u1b:__ZL13luaB_tostringP9lua_State
Sra:__ZN10emscripten3valC2IRmEEOT_
ibb:__ZN16PushEventVisitor5visitEP11LayoutEvent
CSd:runPostSets25
t9b:__ZN6snappy28STLStringResizeUninitializedEPNSt3__212basic_stringIcNS0_11char_traitsIcEENS0_9allocatorIcEEEEj
dAb:_png_push_have_end
DSd:runPostSets26
ySd:runPostSets21
xSd:runPostSets20
ASd:runPostSets23
zSd:runPostSets22
Kda:__ZN12ShaderEngineD0Ev
lda:__ZN7Matrix2C2Effff
GSd:runPostSets29
FSd:runPostSets28
u8b:__ZN8pystring2os4path11splitext_ntERNSt3__212basic_stringIcNS2_11char_traitsIcEENS2_9allocatorIcEEEES9_RKS8_
S5a:__ZN10FontBinder8destructEP9lua_State
CLc:_cprojf
fEb:_png_do_write_transformations
Hub:_z_inflateSyncPoint
bhc:_FT_Outline_Copy
U6b:__ZL11ll_registerP9lua_StatePKc
zic:_tt_cmap8_get_info
Oac:_INT123_open_bad
pfd:__ZNSt3__213basic_istreamIwNS_11char_traitsIwEEErsERPv
$Wb:_lua_pushnumber
X4b:__ZL8math_degP9lua_State
Moa:__ZN12_GLOBAL__N_121GGStreamOpenALManager7ChannelD2Ev
ZNb:__ZN6ClientD2Ev
xPc:_posix_fallocate
yba:__ZN6Sprite4setXEf
nBa:__ZN12b2BroadPhaseD2Ev
SXa:__ZN11GGUrlLoader3getEPKcP12ghttp_Header
d_c:_name_from_hosts
WBa:__ZNK13b2DynamicTree15ValidateMetricsEi
OUd:mftCall_vidddddddd
MNa:__ZN6b2Rope7SolveC3Ev
ecb:__ZNK9EventTypeI21StageOrientationEventE4typeEv
_Od:__ZN10__cxxabiv112_GLOBAL__N_12DbD2Ev
iva:__ZN7b2ShapeD0Ev
hfd:__ZNSt3__213basic_istreamIwNS_11char_traitsIwEEErsERj
HHb:_jpeg_idct_5x5
mW:__ZN11Application10touchesEndEP17ginput_TouchEvent
Bpb:_gvfs_cleanup
LAc:_destroy_face
Fac:_frame_default_pars
knd:__ZNKSt3__217moneypunct_bynameIcLb0EE11do_groupingEv
ync:_af_indic_metrics_scale
ru:_emscripten_set_deviceorientation_callback
tRa:__ZL12lz_read_lineP9lua_StateP9lz_stream
v4a:__ZN15MyQueryCallback13ReportFixtureEP9b2Fixture
M6b:__ZL14loader_preloadP9lua_State
Udc:_INT123_synth_2to1_real_mono
I9:__ZNSt3__214__split_bufferIPNS_4pairIP6SpritebEERNS_9allocatorIS5_EEE9push_backEOS5_
zNa:__ZN15b2WheelJointDef10InitializeEP6b2BodyS1_RK6b2Vec2S4_
kod:__ZNKSt3__29money_getIwNS_19istreambuf_iteratorIwNS_11char_traitsIwEEEEE6do_getES4_S4_bRNS_8ios_baseERjRNS_12basic_stringIwS3_NS_9allocatorIwEEEE
HW:__ZNK11Application16getLogicalHeightEv
pJb:_fill_mem_input_buffer
FXb:__ZL7f_CcallP9lua_StatePv
Ps:_emscripten_glTexSubImage2D
ila:__ZN20GGApplicationManager14removeCallbackEPFviPvS0_ES0_
Yfd:__ZNSt3__213basic_ostreamIcNS_11char_traitsIcEEElsEl
Ybc:_mpg123_volume_change
p5c:_tcgetattr
agd:__ZNSt3__213basic_ostreamIcNS_11char_traitsIcEEElsEf
cgd:__ZNSt3__213basic_ostreamIcNS_11char_traitsIcEEElsEe
bgd:__ZNSt3__213basic_ostreamIcNS_11char_traitsIcEEElsEd
_$b:_luaL_argerror
r8a:__ZNK6Sprite9transformEv
$fd:__ZNSt3__213basic_ostreamIcNS_11char_traitsIcEEElsEy
_fd:__ZNSt3__213basic_ostreamIcNS_11char_traitsIcEEElsEx
sSb:___gl_pqSortDelete
oEa:__ZN16b2ParticleSystem16ReallocateBufferIiEEPT_PNS_21UserOverridableBufferIS1_EEiib
XBc:_Destroy_Module
Ufd:__ZNSt3__213basic_ostreamIcNS_11char_traitsIcEEElsEs
f9:__ZN10GridInsetsC2Ev
O7c:__ZNSt3__26__sortIRNS_6__lessIyyEEPyEEvT0_S5_T_
w3:__ZNKSt3__26__treeINS_12__value_typeIiN8TTBMFont12TextureGlyphEEENS_19__map_value_compareIiS4_NS_4lessIiEELb1EEENS_9allocatorIS4_EEE10__root_ptrEv
Vfd:__ZNSt3__213basic_ostreamIcNS_11char_traitsIcEEElsEt
qKd:__ZNKSt3__212_GLOBAL__N_114initial_stringINS_12basic_stringIcNS_11char_traitsIcEENS_9allocatorIcEEEElLb0EEclEv
L9a:__ZN11TimerBinder5startEP9lua_State
MEa:__ZN7b2World18SetContactListenerEP17b2ContactListener
TU:__ZL6getArgRKNSt3__212basic_stringIcNS_11char_traitsIcEENS_9allocatorIcEEEEPKcPi
uKd:__ZNSt3__212_GLOBAL__N_19as_stringINS_12basic_stringIcNS_11char_traitsIcEENS_9allocatorIcEEEEPFiPcjPKczEmEET_T0_SD_PKNSD_10value_typeET1_
qt:_emscripten_glVertexAttrib4fv
g_c:_scopeof
Xvd:__ZNKSt3__210moneypunctIwLb1EE13thousands_sepEv
ZIa:__ZN16b2ParticleSystem16ConnectionFilterD0Ev
qxc:_t2_hints_funcs_init
uO:__ZN20FT_Library_Singleton8instanceEv
Ahc:_DelOld
KHd:__ZNSt3__212basic_stringIwNS_11char_traitsIwEENS_9allocatorIwEEE6assignESt16initializer_listIwE
Fya:__ZNK7b2Mat3315GetSymInverse33EPS_
cRd:__ZN10__cxxabiv112_GLOBAL__N_121parse_floating_numberIeNS0_2DbEEEPKcS4_S4_RT0_
Mxa:__Z7b2ClampIfET_S0_S0_S0_
LTd:_memmove
ebd:__ZNSt3__213basic_istreamIwNS_11char_traitsIwEEED0Ev
Jvd:__ZNKSt3__210moneypunctIcLb1EE10pos_formatEv
QNd:__ZNSt9exceptionD0Ev
lv:_emscripten_vr_display_connected
jBa:__ZN15b2DistanceProxyC2Ev
rIc:__ZN10emscripten8internal6TypeIDINS_11memory_viewImEEE3getEv
i5c:_cfgetispeed
BKc:_clogf
oga:__ZNKSt3__26vectorIN13ShaderProgram12ConstantDescENS_9allocatorIS2_EEE8max_sizeEv
hvc:_cf2_blues_init
s2a:__ZNSt3__214__split_bufferI6b2Vec2RNS_9allocatorIS1_EEED2Ev
LQc:_isalpha_l
Gra:_ghttp_onerror
r8c:__ZNSt12bad_any_castD0Ev
Pcd:__ZNSt3__29basic_iosIwNS_11char_traitsIwEEE4moveEOS3_
efc:_INT123_getbits_256
MT:__ZNSt3__26vectorIN8FontBase11ChunkLayoutENS_9allocatorIS2_EEE10deallocateEv
GWa:__ZN17GGTextInputDialogD0Ev
Nsd:__ZNKSt3__220__codecvt_utf8_utf16IwE6do_outER11__mbstate_tPKwS5_RS5_PcS7_RS7_
P8a:__ZN12MatrixBinder6getM22EP9lua_State
qNb:__ZNSt3__212__deque_baseIP12QueueElementNS_9allocatorIS2_EEE3endEv
Jxb:_png_warning_parameter
Sp:_emscripten_get_fullscreen_status
bFd:__ZNSt3__218__find_first_of_ceIPKcS2_PFbccEEET_S5_S5_T0_S6_T1_
SJd:__ZNSt3__212_GLOBAL__N_117as_integer_helperIyNS_12basic_stringIwNS_11char_traitsIwEENS_9allocatorIwEEEEPFyPKwPPwiEEET_RKNS2_IcNS3_IcEENS5_IcEEEERKT0_PjiT1_
UQd:__ZNKSt3__26vectorIN10__cxxabiv112_GLOBAL__N_111string_pairENS2_11short_allocIS3_Lj4096EEEE8max_sizeEv
XPb:__ZNK11CPVRTString12find_last_ofEPKcjj
xxc:_psh_glyph_init
ZQa:__ZL18crypto_aes_decryptP9lua_State
IVa:__ZN10MeshBinder15setGenericArrayEP9lua_State
s1:__ZN9MovieClip8getFrameEv
L2c:_pclose
eb:ftCall_vi
MBa:__ZN20b2SeparationFunctionC2Ev
lwc:_remove_style
ktb:_z_deflateEnd
mud:__ZNKSt3__28time_getIcNS_19istreambuf_iteratorIcNS_11char_traitsIcEEEEE13get_monthnameES4_S4_RNS_8ios_baseERjP2tm
SHc:__ZN12_GLOBAL__N_1L16register_integerIjEEvPKc
LGc:_scan_module
_ca:__ZNK7Matrix421inverseTransformPointEffPfS0_
rZ:__ZN13GridBagLayout16AdjustForGravityEP18GridBagConstraintsRNS_9RectangleE
sk:__embind_register_class_class_function
XLc:_crypt
ynb:__ZN14GGAudioManager15ChannelGetPitchEm
_W:__ZNSt3__26vectorINS_4pairINS_12basic_stringIcNS_11char_traitsIcEENS_9allocatorIcEEEEfEENS5_IS8_EEE8allocateEj
zza:__ZNK12b2WheelJoint10GetAnchorAEv
dOa:__ZNSt3__213__rotate_leftIP6b2Vec2EET_S3_S3_
Bnc:_af_indic_hints_apply
kub:_gf2_matrix_square
fHa:__ZltjRKN16b2ParticleSystem5ProxyE
b1b:__ZL11luaB_assertP9lua_State
jod:__ZNKSt3__29money_getIwNS_19istreambuf_iteratorIwNS_11char_traitsIwEEEEE6do_getES4_S4_bRNS_8ios_baseERjRe
_Ec:_mixer_on
n7:__ZNSt3__25dequeINS_4pairIP5TimeriEENS_9allocatorIS4_EEE19__add_back_capacityEv
$Ec:_update_from_ord_info
BSb:___gl_pqHeapExtractMin
bX:__ZNK11Application14getImageSuffixEPf
JSc:_fdiml
Br:_emscripten_glGenVertexArraysOES
rb:invoke_viddddddddd
rYb:__ZL5blockP8LexState
EAc:_FT_New_Face
y2:__ZNSt3__214__split_bufferIN6TTFont8FontFaceERNS_9allocatorIS2_EEE18__construct_at_endEj
qLc:_cimag
fz:_glStencilMask
cpc:_tt_delta_shift
Fzd:__ZNSt3__26locale5__imp12install_fromINS_7num_putIcNS_19ostreambuf_iteratorIcNS_11char_traitsIcEEEEEEEEvRKS1_
Yxc:_psh_hint_overlap
Zcd:__ZNSt3__215basic_streambufIcNS_11char_traitsIcEEE6sbumpcEv
CCa:__ZNK13b2DynamicTree10GetFatAABBEi
mUc:_log2f
Rtc:_cf2_buf_readByte
Vjc:_tt_face_load_post
XMd:__ZNSt3__218__hidden_allocatorIPNS_17__assoc_sub_stateEE8allocateEj
Mea:__GLOBAL__sub_I_Shaders_cpp
Mr:_emscripten_glGetIntegerv
HSc:_fdimf
pTb:_unz64local_DosDateToTmuDate
MOd:___cxa_bad_typeid
and:__ZNKSt3__210moneypunctIwLb1EE14do_curr_symbolEv
Z$b:_lua_isjit
Vrb:___sfp
bHc:_xmp_set_instrument_path
Fmb:__ZN14GGSoundManager11ChannelStopEm
s3b:__ZL12Lutf8_offsetP9lua_State
g7a:__ZN12SpriteBinder4getYEP9lua_State
gOc:_iswspace
NBc:_FT_Sfnt_Table_Info
n3:__ZN3Dib8setAlphaEiih
DXc:_strrchr
bLc:___expo2
KVa:__ZN10MeshBinder16resizeIndexArrayEP9lua_State
cGa:__ZN7b2Mat227SetZeroEv
STd:_rintf
$gb:_gtimer_getCurrentCount
GB:_glutPositionWindow
$ac:_bad_fullread
gNd:__ZNKSt18bad_variant_access4whatEv
G1b:__ZL11db_getlocalP9lua_State
Q7a:__ZN12SpriteBinder17setColorTransformEP9lua_State
bG:emscriptenWebGLComputeImageSize
pNb:__ZNSt3__212__deque_baseIP12QueueElementNS_9allocatorIS2_EEE5beginEv
eDc:_load_sample
mZc:_recvfrom
lOa:__ZNSt3__212__rotate_gcdIPfEET_S2_S2_S2_
W4b:__ZL8math_cosP9lua_State
Auc:_cf2_hint_isLocked
zsa:__ZNSt3__26__treeINS_12__value_typeIm12GHttpContextEENS_19__map_value_compareImS3_NS_4lessImEELb1EEENS_9allocatorIS3_EEE12__find_equalImEERPNS_16__tree_node_baseIPvEERPNS_15__tree_end_nodeISF_EERKT_
h$b:_luaC_fullgc
Z0b:__ZL7auxopenP9lua_StatePKcPFiS0_ES4_
W_:__ZL13easeInElasticddd
BYb:__ZL10primaryexpP8LexStateP7expdesc
sX:__ZN11Application9autounrefEP11GReferenced
w9a:__ZN12MatrixBinder12setRotationZEP9lua_State
gDb:_png_get_current_pass_number
C1:__ZN15EnterFrameEvent5applyEP12EventVisitor
Dfb:__ZNSt3__212__deque_baseINS_12basic_stringIcNS_11char_traitsIcEENS_9allocatorIcEEEENS4_IS6_EEE5beginEv
z7b:__ZN8pystring5lowerERKNSt3__212basic_stringIcNS0_11char_traitsIcEENS0_9allocatorIcEEEE
O4:__ZN10Tesselator15BeginCallback_sEjPv
Kdb:_remove_free_block
$oa:__ZNSt3__26__treeINS_12__value_typeImPN12_GLOBAL__N_121GGStreamOpenALManager7ChannelEEENS_19__map_value_compareImS6_NS_4lessImEELb1EEENS_9allocatorIS6_EEE16__construct_nodeIJRKNS_21piecewise_construct_tENS_5tupleIJRKmEEENSI_IJEEEEEENS_10unique_ptrINS_11__tree_nodeIS6_PvEENS_22__tree_node_destructorINSB_ISQ_EEEEEEDpOT_
pMb:_jpeg_calc_trans_dimensions
ODd:__ZNSt3__212basic_stringIcNS_11char_traitsIcEENS_9allocatorIcEEEixEj
Hrb:___atexit_register_cleanup
UDc:_it_test
ysc:_TT_Set_Var_Design
Kab:__ZN12CppLuaBridge8luaEventEP8LuaEvent
pLc:_cexpl
Qdd:__ZNKSt3__215basic_streambufIwNS_11char_traitsIwEEE5pbaseEv
Be:_SDL_GetCurrentAudioDriver
yR:__ZN6BitmapD2Ev
TW:__ZNKSt3__26vectorIN11Application10ImageScaleENS_9allocatorIS2_EEE8max_sizeEv
wl:__inet_ntop4_raw
SF:_waitid
yhd:__ZNSt3__211__stdoutbufIcE6xsputnEPKci
rqa:__ZN21GGSampleOpenALManager4tickEPNS_7ChannelE
Tu:_emscripten_set_socket_connection_callback
F5a:__ZN15TextFieldBinder9setLayoutEP9lua_State
pbc:_INT123_frame_buffers
c1c:_fixup
Ysc:_cff_get_interface
vnd:__ZNKSt3__217moneypunct_bynameIcLb1EE11do_groupingEv
vzc:_FT_Sin
Uu:_emscripten_set_socket_error_callback
eJd:__ZNKSt3__212basic_stringIwNS_11char_traitsIwEENS_9allocatorIwEEE12__invariantsEv
Zea:__ZN16ogl2ShaderBuffer10bindBufferEi
r7b:__ZN8pystring7isalnumERKNSt3__212basic_stringIcNS0_11char_traitsIcEENS0_9allocatorIcEEEE
Zmc:_af_sort_pos
KZa:__ZN17ApplicationBinder16configureFrustumEP9lua_State
ypd:__ZNKSt3__27codecvtIDsc11__mbstate_tE10do_unshiftERS1_PcS4_RS4_
j$a:__ZN12Box2DBinder232b2ParticleSystem_destroyParticleEP9lua_State
Dma:__ZN6ginput12InputManager11addCallbackEPFviPvS1_ES1_
UNb:__ZN6ServerD2Ev
Rla:__ZNSt3__26__treeINS_12__value_typeIjNS_6vectorIP17ginput_TouchEventNS_9allocatorIS4_EEEEEENS_19__map_value_compareIjS8_NS_4lessIjEELb1EEENS5_IS8_EEE16__construct_nodeIJRKNS_21piecewise_construct_tENS_5tupleIJRKjEEENSJ_IJEEEEEENS_10unique_ptrINS_11__tree_nodeIS8_PvEENS_22__tree_node_destructorINS5_ISR_EEEEEEDpOT_
sOb:__ZNK10ByteBuffer4dataEv
jpb:__ZL6s_openPKci
Ewa:__ZN12b2ClipVertexC2Ev
cm:_alGenBuffers
GAb:_png_set_oFFs
gec:_mpg123_getpar
z2c:_getc_unlocked
Lh:___cxa_thread_atexit
$R:__ZN15MyTexturePacker18getTextureLocationEiPiS0_S0_S0_
Znb:_gaudio_Init
X_a:__ZNK14LuaApplication15getPhysicsScaleEv
vzd:__ZNSt3__26locale5__imp12install_fromINS_10moneypunctIwLb0EEEEEvRKS1_
_Oa:__ZZN16b2ParticleSystem33CreateParticlesWithShapesForGroupEPKPK7b2ShapeiRK18b2ParticleGroupDefRK11b2TransformENK14CompositeShape5CloneEP16b2BlockAllocator
Nha:__ZL12quad_segmentPKdddPd
AOa:__ZNK10b2FreeList11GetFreeListEv
WNa:__ZNK16b2ParticleSystem24ExpirationTimeToLifetimeEi
FGd:__ZNSt3__212basic_stringIwNS_11char_traitsIwEENS_9allocatorIwEEE27__invalidate_iterators_pastEj
tqb:_luaC_traceback
V6:__ZN14TimerContainer11removeTimerEP5Timer
a1a:__ZNK12b2WheelJoint20GetSpringFrequencyHzEv
YQc:_iswcntrl_l
qGc:_reset_envelopes
Thb:__ZN9g_private14TextureManager13deleteTextureEm
Kjd:__ZNSt3__214__num_put_base12__format_intEPcPKcbj
Qwd:__ZNKSt3__28messagesIcE4openERKNS_12basic_stringIcNS_11char_traitsIcEENS_9allocatorIcEEEERKNS_6localeE
NQc:_iscntrl_l
vpc:_Write_CVT
mQb:__ZplRK11CPVRTStringc
JX:__ZN9TextField7setFontEP8FontBase
Emd:__ZNKSt3__210moneypunctIcLb1EE16do_thousands_sepEv
lLc:_ccoshl
ipb:_gvfs_setAssetsKey
Gyd:__ZNSt3__214collate_bynameIcEC2ERKNS_12basic_stringIcNS_11char_traitsIcEENS_9allocatorIcEEEEj
y8b:__ZN6snappy21GetUncompressedLengthEPKcjPj
RJd:__ZNSt3__212_GLOBAL__N_110as_integerIyNS_12basic_stringIwNS_11char_traitsIwEENS_9allocatorIwEEEEEET_RKNS2_IcNS3_IcEENS5_IcEEEERKT0_Pji
VU:__ZNSt3__26__treeINS_12__value_typeINS_4pairIiiEEiEENS_19__map_value_compareIS3_S4_NS_4lessIS3_EELb1EEENS_9allocatorIS4_EEE25__emplace_unique_key_argsIS3_JRKNS_21piecewise_construct_tENS_5tupleIJOS3_EEENSG_IJEEEEEENS2_INS_15__tree_iteratorIS4_PNS_11__tree_nodeIS4_PvEEiEEbEERKT_DpOT0_
eLc:_ccoshf
oxb:_png_gamma_correct
z6c:_ualarm
b8:__ZNSt3__214__split_bufferIcRNS_9allocatorIcEEED2Ev
fu:_emscripten_run_script
yId:__ZNKSt3__212basic_stringIwNS_11char_traitsIwEENS_9allocatorIwEEE5rfindENS_17basic_string_viewIwS2_EEj
zfd:__ZNSt3__213basic_istreamIwNS_11char_traitsIwEEE6ignoreEij
MM:__ZN10BitmapDataD2Ev
nYc:___mremap
cJa:__ZNK16b2ParticleSystem14GetFlagsBufferEv
_d:_SDL_CreateMutex
IW:__ZN11Application14setImageScalesERKNSt3__26vectorINS0_4pairINS0_12basic_stringIcNS0_11char_traitsIcEENS0_9allocatorIcEEEEfEENS6_IS9_EEEE
g3b:__ZL5LidivP9lua_State
wec:_stream_back_bytes
Spc:_Ins_RTG
eaa:__ZNSt3__214__split_bufferIPPK6SpriteRNS_9allocatorIS4_EEE10push_frontERKS4_
kmc:_af_glyph_hints_scale_dim
e3b:__ZL4LsubP9lua_State
v_b:__ZL8funcnameP8LexStateP7expdesc
SEc:_virt_pastnote
b:HEAP16
uuc:_cf2_hintmap_isValid
bUb:__ZL12correctstackP9lua_StateP10lua_TValue
tbd:__ZNSt3__214basic_iostreamIcNS_11char_traitsIcEEED0Ev
Mca:__ZNK9Transform9rotationZEv
_Ka:__ZNSt3__26__sortIRN12_GLOBAL__N_124ExpirationTimeComparatorEPiEEvT0_S5_T_
thd:__ZNSt3__211char_traitsIwE7not_eofEj
Mh:___cxa_thread_atexit_impl
KXd:b61
ALb:_jpeg_gen_optimal_table
bza:__ZN13b2PulleyJoint4DumpEv
Adb:_block_set_size
DE:_raise
WD:_pthread_getspecific
dEd:__ZNSt3__212basic_stringIcNS_11char_traitsIcEENS_9allocatorIcEEE5frontEv
oaa:__ZNSt3__26vectorIP6SpriteNS_9allocatorIS2_EEE26__swap_out_circular_bufferERNS_14__split_bufferIS2_RS4_EEPS2_
q4a:__ZN17b2RayCastCallbackD0Ev
skb:__ZNSt3__214__split_bufferIN19gevent_CallbackList8CallbackERNS_9allocatorIS2_EEED2Ev
tLc:_clogl
SHd:__ZNSt3__212basic_stringIwNS_11char_traitsIwEENS_9allocatorIwEEE6insertENS_11__wrap_iterIPKwEEjw
dhb:_gimage_parsePng
pEa:__ZN16b2ParticleSystem16ReallocateBufferI6b2Vec2EEPT_PNS_21UserOverridableBufferIS2_EEiib
wZc:___fopen_rb_ca
Uia:__ZN6Path2D13getPathBoundsEibbPfS0_S0_S0_
SO:__ZNSt3__26__treeINS_12__value_typeINS_12basic_stringIcNS_11char_traitsIcEENS_9allocatorIcEEEEiEENS_19__map_value_compareIS7_S8_NS_4lessIS7_EELb1EEENS5_IS8_EEE12__find_equalIS7_EERPNS_16__tree_node_baseIPvEERPNS_15__tree_end_nodeISJ_EERKT_
DRc:_textdomain
Lzd:__ZNSt3__26locale5__imp12install_fromINS_8messagesIcEEEEvRKS1_
nLc:_cexp
uLc:_conj
Ima:_ginputp_mouseDown
kIc:__ZN12_GLOBAL__N_1L20register_memory_viewIeEEvPKc
GZa:__ZN17ApplicationBinder13getApiVersionEP9lua_State
$Kb:_compress_data
tZ:__ZN13GridBagLayout9RectangleC2Ev
Vya:__ZN11b2GearJointD0Ev
r9a:__ZN12MatrixBinder9getScaleYEP9lua_State
Csa:__ZNKSt3__26__treeINS_12__value_typeIm12GHttpContextEENS_19__map_value_compareImS3_NS_4lessImEELb1EEENS_9allocatorIS3_EEE10__root_ptrEv
F_b:_luaF_newproto
Xoc:_FT_GlyphLoader_Prepare
rn:_alcGetContextsDevice
BF:_utime
lld:__ZNKSt3__28time_getIwNS_19istreambuf_iteratorIwNS_11char_traitsIwEEEEE12__get_secondERiRS4_S4_RjRKNS_5ctypeIwEE
pj:___syscall3
bXa:__ZN11GGGyroscopeC2Ev
k8a:__ZN6Sprite11ShaderParamaSERKS0_
P_b:_luaG_checkcode
ica:__ZN6Sprite3getEPKcP7GStatus
Msa:__ZN10emscripten8internal9SignatureIiJNS_3valES2_RS2_NS_11memory_viewIhEES2_S2_iiiEE18init_method_callerEv
Gdb:_block_set_prev_free
_m:_alSourceRewindv
nbb:__ZN16PushEventVisitor16getOrCreateTouchEP12ginput_Touchffff
OWc:_issetugid
bjd:__ZNKSt3__27num_getIwNS_19istreambuf_iteratorIwNS_11char_traitsIwEEEEE6do_getES4_S4_RNS_8ios_baseERjRm
nhd:__ZNSt3__211__stdoutbufIwED2Ev
J:Math_acos
aKa:__ZNSt3__29remove_ifIP21b2ParticleBodyContact36b2ParticleBodyContactRemovePredicateEET_S4_S4_T0_
ejd:__ZNKSt3__27num_getIwNS_19istreambuf_iteratorIwNS_11char_traitsIwEEEEE6do_getES4_S4_RNS_8ios_baseERjRd
iSa:__ZNSt3__214__split_bufferIPN14LuaApplication12AsyncLuaTaskERNS_9allocatorIS3_EEEC2EjjS6_
c_c:_name_from_numeric
_id:__ZNKSt3__27num_getIwNS_19istreambuf_iteratorIwNS_11char_traitsIwEEEEE6do_getES4_S4_RNS_8ios_baseERjRx
cjd:__ZNKSt3__27num_getIwNS_19istreambuf_iteratorIwNS_11char_traitsIwEEEEE6do_getES4_S4_RNS_8ios_baseERjRy
JEc:_check_dct
csa:__ZN10emscripten8internal11BindingTypeINS_3valEE10toWireTypeERKS2_
zmc:_af_latin_hints_compute_edges
iWd:_emscripten_set_mousemove_callback__wrapper
q0a:__ZThn508_N11b2DebugDraw10DrawCircleERK6b2Vec2fRK7b2Color
Vna:__ZN12_GLOBAL__N_121GGStreamOpenALManager16ChannelSetPausedEmb
Uwd:__ZNKSt3__28messagesIwE4openERKNS_12basic_stringIcNS_11char_traitsIcEENS_9allocatorIcEEEERKNS_6localeE
$id:__ZNKSt3__27num_getIwNS_19istreambuf_iteratorIwNS_11char_traitsIwEEEEE6do_getES4_S4_RNS_8ios_baseERjRt
GIa:__ZNSt3__216__insertion_sortIRPFbRKN16b2ParticleSystem4PairES4_EPS2_EEvT0_S9_T_
Tfd:__ZNSt3__213basic_ostreamIcNS_11char_traitsIcEEElsEb
IQa:__ZN3Rnd7MT1993710InitializeEj
oKa:__ZZN16b2ParticleSystem18UpdateBodyContactsEvEN26UpdateBodyContactsCallback13ShouldCollideEP9b2Fixturei
hAa:__ZN16b2StackAllocator4FreeEPv
s3:__ZNSt3__26__treeINS_12__value_typeIiN8TTBMFont12TextureGlyphEEENS_19__map_value_compareIiS4_NS_4lessIiEELb1EEENS_9allocatorIS4_EEE25__emplace_unique_key_argsIiJRKNS_21piecewise_construct_tENS_5tupleIJRKiEEENSG_IJEEEEEENS_4pairINS_15__tree_iteratorIS4_PNS_11__tree_nodeIS4_PvEEiEEbEERKT_DpOT0_
vZ:__ZN17GridBagLayoutInfoaSEOS_
h2:__ZN6TTFont9getBoundsEPKifPiS2_S2_S2_
WXc:_connect
U_a:__ZN12Box2DBinder219getFrictionJointDefEP9lua_State
XAd:__ZNSt3__221recursive_timed_mutex6unlockEv
sjc:_tt_face_lookup_table
LWd:__emval_decref__wrapper
Ca:ftCall_iii
dva:__ZN16b2BlockAllocator8AllocateEi
xv:_emscripten_vr_set_display_render_loop_arg
Fnc:_af_loader_done
eBd:__ZdaPv
jRa:__ZL14lzstream_flushP9lua_State
eya:__ZN15b2FrictionJoint23InitVelocityConstraintsERK12b2SolverData
Qta:_ggeolocation_removeCallbackWithGid
yMa:__ZNK16b2PrismaticJoint19GetJointTranslationEv
IOc:_wctrans
cVb:_luaG_typeerror
gdd:__ZNSt3__215basic_streambufIcNS_11char_traitsIcEEEaSERKS3_
jr:_emscripten_glDrawElementsInstancedANGLE
fMb:_rgb_rgb1_convert
G9c:__ZNKSt3__223__future_error_category7messageEi
ERa:__ZN3Rnd7MT19937L5TwistEv
_ha:__ZL13init_merger4fP8merger4f
FAa:__ZNK6b2Stat7GetMeanEv
gSb:_CheckForIntersect
eQb:__ZN11CPVRTString7toLowerEv
ufc:_mpg123_replace_reader_handle
dud:__ZNKSt3__27num_putIwNS_19ostreambuf_iteratorIwNS_11char_traitsIwEEEEE3putES4_RNS_8ios_baseEwd
Od:_SDL_AudioDriverName
Pe:_SDL_GetWindowFlags
ZHb:_start_pass_dcolor
owd:__ZNSt3__217moneypunct_bynameIcLb1EEC2ERKNS_12basic_stringIcNS_11char_traitsIcEENS_9allocatorIcEEEEj
eud:__ZNKSt3__27num_putIwNS_19ostreambuf_iteratorIwNS_11char_traitsIwEEEEE3putES4_RNS_8ios_baseEwe
a5:__ZN10Tesselator11EndCallbackEv
dvc:_cf2_getPpemY
Nrd:__ZNKSt3__215__codecvt_utf16IwLb0EE13do_max_lengthEv
lid:__ZNKSt3__27num_getIcNS_19istreambuf_iteratorIcNS_11char_traitsIcEEEEE6do_getES4_S4_RNS_8ios_baseERjRPv
DLb:_emit_byte
T2b:_luaopen_utf8
RMc:_wcrtomb
Fma:__ZN6ginput12InputManager14removeCallbackEPFviPvS1_ES1_
l3b:__ZL4LshlP9lua_State
$hc:_tt_cmap0_char_index
EXb:_lua_cpcall
cI:FUNCTION_TABLE_viiidddiiddi
dGa:__ZN8b2IslandC2EiiiP16b2StackAllocatorP17b2ContactListener
lGb:_jinit_color_deconverter
MV:__ZN11Application8initViewEv
Bkc:_tt_sbit_decoder_load_compound
Ora:__ZN10emscripten3val6objectEv
oT:__ZNSt3__212basic_stringIiNS_11char_traitsIiEENS_9allocatorIiEEED2Ev
dda:__ZN7Matrix411getCofactorEfffffffff
MNc:___isgraph_l
$td:__ZNKSt3__27num_putIwNS_19ostreambuf_iteratorIwNS_11char_traitsIwEEEEE3putES4_RNS_8ios_baseEwl
jid:__ZNKSt3__27num_getIcNS_19istreambuf_iteratorIcNS_11char_traitsIcEEEEE6do_getES4_S4_RNS_8ios_baseERjRd
mic:_tt_cmap4_validate
BY:__ZN6Screen10getMaxSizeERiS0_
xVd:b0
um:_alGetListener3f
ALa:__ZNK16b2ParticleSystem14GetColorBufferEv
wRb:_EmptyCache
JZa:__ZN17ApplicationBinder20getDeviceOrientationEP9lua_State
vm:_alGetListener3i
pxa:__ZN12b2MouseJoint23InitVelocityConstraintsERK12b2SolverData
Ird:__ZNKSt3__215__codecvt_utf16IwLb0EE5do_inER11__mbstate_tPKcS5_RS5_PwS7_RS7_
JKd:__ZNSt3__212_GLOBAL__N_19as_stringINS_12basic_stringIcNS_11char_traitsIcEENS_9allocatorIcEEEEPFiPcjPKczEeEET_T0_SD_PKNSD_10value_typeET1_
tic:_tt_cmap6_char_next
z0:__ZNSt3__26__treeINS_12__value_typeIP6SpriteiEENS_19__map_value_compareIS3_S4_NS_4lessIS3_EELb1EEENS_9allocatorIS4_EEE12__find_equalIS3_EERPNS_16__tree_node_baseIPvEERPNS_15__tree_end_nodeISG_EERKT_
uvb:_z_gztell
Cc:ftCall_viiiiiiiiii
NI:__ZN9Particles14removeParticleEi
t2a:__ZN12Box2DBinder215b2EdgeShape_setEP9lua_State
C1b:__ZL8db_debugP9lua_State
xjb:__ZN9g_private14TextureManager17SaveRenderTargetsEv
R3c:_strtod_l
lib:__ZNSt3__26__treeINS_12__value_typeImPN9g_private19RenderTargetElementEEENS_19__map_value_compareImS5_NS_4lessImEELb1EEENS_9allocatorIS5_EEE4findImEENS_15__tree_iteratorIS5_PNS_11__tree_nodeIS5_PvEEiEERKT_
QVa:__ZN10MeshBinder27clearTextureCoordinateArrayEP9lua_State
Nnb:__ZN14GGAudioManager26BackgroundChannelSetPausedEmb
yQc:_iconv_open
GIb:_start_pass_1_quant
Fja:__ZN12NetworkEventC2Ev
yZb:__ZL16discharge2anyregP9FuncStateP7expdesc
aMc:___crypt_sha512
fKa:__ZNSt3__27__sort4IRPFbRK21b2ParticleBodyContactS3_EPS1_EEjT0_S8_S8_S8_T_
TM:__ZN10BitmapData9getRegionEPiS0_S0_S0_S0_S0_S0_S0_
h_b:__ZL7codenotP9FuncStateP7expdesc
HBb:_png_set_swap_alpha
rxc:_t2_hints_open
ukd:__ZNKSt3__28time_getIcNS_19istreambuf_iteratorIcNS_11char_traitsIcEEEEE9__get_dayERiRS4_S4_RjRKNS_5ctypeIcEE
waa:__ZN6Sprite11removeChildEiP7GStatus
aud:__ZNKSt3__27num_putIwNS_19ostreambuf_iteratorIwNS_11char_traitsIwEEEEE3putES4_RNS_8ios_baseEwx
uma:_ginputp_keyChar
lqd:__ZNKSt3__212ctype_bynameIwE5do_isEtw
gCd:__ZNSt3__215__refstring_imp12_GLOBAL__N_113rep_from_dataEPKc
VJd:__ZNSt3__212_GLOBAL__N_115as_float_helperIfNS_12basic_stringIcNS_11char_traitsIcEENS_9allocatorIcEEEEPFfPKcPPcEEET_RKS7_RKT0_PjT1_
J5c:_getgroups
t7c:__ZNSt3__27__sort5IRNS_6__lessIjjEEPjEEjT0_S5_S5_S5_S5_T_
Cea:__ZNSt3__25stackIN12ShaderEngine12DepthStencilENS_5dequeIS2_NS_9allocatorIS2_EEEEED2Ev
tNa:__ZNK13b2PulleyJoint8GetRatioEv
NZb:__ZL8recfieldP8LexStateP11ConsControl
jya:__ZNK15b2RevoluteJoint16GetReactionForceEf
zwc:_cff_index_get_pointers
kTc:_hypotl
scc:_store_id3_text
b4b:__ZL15end_captureUTF8P14MatchStateUTF8PKcS2_
t0a:__ZThn508_N11b2DebugDraw11DrawSegmentERK6b2Vec2S2_RK7b2Color
$zd:__ZNSt3__26locale6globalERKS0_
pAc:_ft_hash_num_insert
BVd:b3
Y3b:__ZL9matchUTF8P14MatchStateUTF8PKcS2_
i7a:__ZN12SpriteBinder11getRotationEP9lua_State
Mec:_bc_alloc
krd:__ZNKSt3__214__codecvt_utf8IwE16do_always_noconvEv
UHb:_fullsize_upsample
zaa:__ZNK6Sprite13globalToLocalEfffPfS0_S0_
fJd:__ZNKSt3__212basic_stringIwNS_11char_traitsIwEENS_9allocatorIwEEE19__get_short_pointerEv
tUd:mftCall_iii
f5c:_mkstemps
inc:_af_cjk_hints_compute_blue_edges
MMd:__ZNSt3__214__split_bufferINS_4pairIPNS_18condition_variableEPNS_5mutexEEERNS_18__hidden_allocatorIS6_EEEC2EjjS9_
chb:__ZL15getTypeFromPathPKc
Pua:__ZN6b2Vec2C2Eff
qP:__ZNKSt3__26__treeINS_12__value_typeINS_12basic_stringIcNS_11char_traitsIcEENS_9allocatorIcEEEEiEENS_19__map_value_compareIS7_S8_NS_4lessIS7_EELb1EEENS5_IS8_EEE13__lower_boundIS7_EENS_21__tree_const_iteratorIS8_PNS_11__tree_nodeIS8_PvEEiEERKT_SK_PNS_15__tree_end_nodeIPNS_16__tree_node_baseISI_EEEE
K_b:__ZL7LoadIntP9LoadState
Ild:__ZNKSt3__218__time_get_storageIcE15__do_date_orderEv
J7b:__ZN8pystring5indexERKNSt3__212basic_stringIcNS0_11char_traitsIcEENS0_9allocatorIcEEEES8_ii
wXd:___cxa_throw__wrapper
N9a:__ZN11TimerBinder5resetEP9lua_State
mBd:__ZdlPvSt11align_val_tRKSt9nothrow_t
yoc:_tt_loader_set_pp
MZa:__ZN17ApplicationBinder13setFullScreenEP9lua_State
UT:__ZNSt3__26vectorIiNS_9allocatorIiEEE8__appendEj
KLb:_arith_encode
Vab:__ZNK4SlotI12CppLuaBridge8LuaEventE6objectEv
_cc:_INT123_check_decoders
Pub:_z_gzprintf
Cwc:_CFF_Load_FD_Select
irb:___swrite
ya:ftCall_ii
rmc:_FT_DivFix
wa:ftCall_id
Adc:_INT123_synth_1to1_real_m2s
eea:__ZNSt3__25dequeIN12ShaderEngine7ScissorENS_9allocatorIS2_EEE8pop_backEv
Esa:__ZN10emscripten11memory_viewIhEC2EjPKh
X$b:_lua_getprintfuncdata
pZa:__ZN17ApplicationBinder16getLogicalScaleXEP9lua_State
J$c:_freelist
_T:__ZNSt3__26__treeINS_12__value_typeIiN4Font12TextureGlyphEEENS_19__map_value_compareIiS4_NS_4lessIiEELb1EEENS_9allocatorIS4_EEED2Ev
Kmd:__ZNKSt3__210moneypunctIcLb1EE13do_pos_formatEv
cta:__ZN8UiDialogC2Ev
cp:_emscripten_async_run_script
sYb:__ZL11check_matchP8LexStateiii
gZb:_luaK_setreturns
kNa:__ZN12b2MotorJoint15SetLinearOffsetERK6b2Vec2
gr:_emscripten_glDrawBuffersEXT
Bq:_emscripten_glClearStencil
Sua:__Z5b2MaxRK6b2Vec2S1_
nHd:__ZNSt3__212basic_stringIwNS_11char_traitsIwEENS_9allocatorIwEEEpLERKS5_
lhb:__ZL13read_png_dataP14png_struct_defPhj
tGc:_process_fx
vJb:_transdecode_master_selection
Imd:__ZNKSt3__210moneypunctIcLb1EE16do_negative_signEv
tfc:_mpg123_replace_reader
yxc:_psh_globals_set_scale
Xf:_SDL_SetVideoMode
ord:__ZNKSt3__214__codecvt_utf8IDsE6do_outER11__mbstate_tPKDsS5_RS5_PcS7_RS7_
T9b:_INT123_dct64
wta:_gui_setInputType
X6b:__ZL16pushnexttemplateP9lua_StatePKc
Xua:__ZN6b2Vec29NormalizeEv
q5c:_tcgetsid
pua:_serverSendData
A7:__ZNSt3__24moveINS_4pairIP5TimeriEEPS4_RS4_PS5_iLi0ES4_S5_S6_S7_iLi0EEENS_16__deque_iteratorIT5_T6_T7_T8_T9_XT10_EEENS8_IT_T0_T1_T2_T3_XT4_EEESK_SE_
Qab:__ZN4SlotI12CppLuaBridge8LuaEventEeqERKS2_
$mc:_af_sort_and_quantize_widths
Pga:__ZN16ogl2ShaderEngine17resizeFramebufferEii
yU:__ZNSt3__211char_traitsIcE11to_int_typeEc
i6a:__ZNK11Application19getClearColorBufferEv
Qvd:__ZNKSt3__210moneypunctIwLb0EE13positive_signEv
Xw:_glCheckFramebufferStatus
pwc:_cff_cmap_encoding_char_next
Og:_TTF_SizeUTF8
TFc:_update_lfo
u8:__ZN5Stage28setSpritesWithListenersDirtyEv
GGb:_dummy_consume_data
Jja:__ZN14NetworkManager4stopEv
Uw:_glBlendFuncSeparate
Z7c:__ZNSt3__227__insertion_sort_incompleteIRNS_6__lessIffEEPfEEbT0_S5_T_
mSb:_CallCombine
Cm:_alGetSource3i
K0a:__ZN11b2WeldJoint15SetDampingRatioEf
Hic:_tt_cmap12_validate
Nmb:__ZN14GGSoundManager15ChannelIsPausedEm
sKb:_write_file_header
tza:__ZNK15b2DistanceJoint17GetReactionTorqueEf
JY:__GLOBAL__sub_I_screen_cpp
gxb:_png_pow10
Tya:__ZNK11b2GearJoint17GetReactionTorqueEf
EWa:__ZN17GGTextInputDialog8callbackEiPv
G5a:__ZL14populateLayoutP9lua_StateiPN8FontBase20TextLayoutParametersE
g0:__ZN8SlotBaseC2Ev
Rsb:__ZNSt3__26__treeINS_12__value_typeIi5DriveEENS_19__map_value_compareIiS3_NS_4lessIiEELb1EEENS_9allocatorIS3_EEE4findIiEENS_15__tree_iteratorIS3_PNS_11__tree_nodeIS3_PvEEiEERKT_
z9a:__ZN12MatrixBinder9setScaleXEP9lua_State
Rpb:__ZNK11GReferenced5proxyEv
Ndc:_INT123_synth_ntom_s32_m2s
W3c:_wcstox
tTd:_i64Subtract
hxc:_ps_hinter_done
vfd:__ZNSt3__213basic_istreamIwNS_11char_traitsIwEEE3getERNS_15basic_streambufIwS2_EE
aZ:__ZN17GridBagLayoutInfoD2Ev
zob:_gaudio_BackgroundMusicPlay
mp:_emscripten_atomic_store_u64
sA:_glfwGetMouseButton
hac:_rate2num
wz:_glUniform2iv
yva:__ZN14b2PolygonShapeD0Ev
tsb:_g_getc_unlocked
L$a:__ZN12Box2DBinder223b2Contact_resetFrictionEP9lua_State
n9a:__ZN12MatrixBinder12getRotationZEP9lua_State
sid:__ZNKSt3__26locale5__imp9use_facetEl
dxc:_ps_check_extra_glyph_unicode
nDd:__ZNSt3__212basic_stringIcNS_11char_traitsIcEENS_9allocatorIcEEE3endEv
Yca:__ZN7Vector4C2Effff
SL:__ZNSt3__23mapIi14GStatusElementNS_4lessIiEENS_9allocatorINS_4pairIKiS1_EEEEEixEOi
hN:__ZN12GraphicsBase8setColorEffff
vxb:_png_calloc
PMc:_frexpl
BFc:_smix_stereo_8bit_linear
zXb:_lua_call
jTc:_frexpf
L7c:__ZNSt3__27__sort5IRNS_6__lessIxxEEPxEEjT0_S5_S5_S5_S5_T_
V6a:__ZN12SpriteBinder11numChildrenEP9lua_State
rSc:_erfc2_253
k4b:__ZL15match_classUTF8jj
Wgc:_ft_outline_glyph_prepare
b5a:__ZN20EventContactListener21dispatchEventParticleERK9EventTypeI5EventEP16b2ParticleSystemP9b2Fixturei
zPc:_fetestexcept
M9c:__ZNSt3__217__assoc_sub_state9__executeEv
eE:_pthread_mutexattr_setschedparam
uP:__ZL8rotationfPA2_f
Bwd:__ZNKSt3__29money_getIcNS_19istreambuf_iteratorIcNS_11char_traitsIcEEEEE3getES4_S4_bRNS_8ios_baseERjRe
Pib:_gtexture_getInternalTexture
$7a:__ZN12SpriteBinder14clearBlendModeEP9lua_State
$g:__Unwind_FindEnclosingFunction
Vha:__ZL9fill_pathjiN12ShaderEngine12DepthStencilEPK7Matrix4
i2c:_vfwprintf
Y$c:_tre_compute_nfl
$T:__ZNSt3__26__treeINS_12__value_typeIiN4Font12TextureGlyphEEENS_19__map_value_compareIiS4_NS_4lessIiEELb1EEENS_9allocatorIS4_EEE7destroyEPNS_11__tree_nodeIS4_PvEE
Cpc:_Ins_SPVTL
jgb:__ZNSt3__26__treeINS_12__value_typeIdNS_6vectorIiNS_9allocatorIiEEEEEENS_19__map_value_compareIdS6_NS_4lessIdEELb1EEENS3_IS6_EEEC2ERKSA_
b$a:__ZN15b2WheelJointDefC2Ev
Uvc:_cff_index_read_offset
Okc:_FT_Get_Module_Interface
U5a:__ZN14FontBaseBinderC2EP9lua_State
nnb:__ZN14GGAudioManager9SoundPlayEmb
jZb:__ZL8getunopri
mcd:__ZNSt3__28ios_base4swapERS0_
kyd:__ZNSt3__26locale5__imp7installINS_8time_putIwNS_19ostreambuf_iteratorIwNS_11char_traitsIwEEEEEEEEvPT_
YXc:__vsyslog
Aid:__ZNSt3__29__num_getIcE19__stage2_float_loopEcRbRcPcRS4_ccRKNS_12basic_stringIcNS_11char_traitsIcEENS_9allocatorIcEEEEPjRSE_RjS4_
qd:_Mix_OpenAudio
C_:__ZL14easeOutInQuintd
uya:__ZNK11b2WeldJoint17GetReactionTorqueEf
e$:__ZL13easeInOutBackdd
R_a:__ZN12Box2DBinder215getGearJointDefEP9lua_State
uW:__ZN11Application10resolutionEPiS0_
aja:_prFreePath
_Tb:_luaD_reallocstack
Cq:_emscripten_glColorMask
nT:__ZNSt3__212basic_stringIiNS_11char_traitsIiEENS_9allocatorIiEEE6resizeEji
WQb:_RenderStrip
QF:_wait3
Gtb:_send_all_trees
FSb:___gl_vertLeq
Ep:_emscripten_exit_soft_fullscreen
gR:__ZN5GMesh16resizeIndexArrayEj
Ux:_glFramebufferTexture2D
$5:__ZNSt3__26__treeINS_12__value_typeIiNS_6vectorIP8SlotBaseNS_9allocatorIS4_EEEEEENS_19__map_value_compareIiS8_NS_4lessIiEELb1EEENS5_IS8_EEEC2ERKSC_
lfb:_XorWithIv
$Ed:__ZNKSt3__212basic_stringIcNS_11char_traitsIcEENS_9allocatorIcEEE5rfindEcj
vXb:_lua_rawseti
pHd:__ZNSt3__212basic_stringIwNS_11char_traitsIwEENS_9allocatorIwEEE6appendERKS5_
EXc:___memrchr
nG:genericPointerToWireType
Rrd:__ZNSt3__215__codecvt_utf16IwLb1EED0Ev
a1c:___fstatfs
i3c:_wstring_read
Mt:_emscripten_idb_load
v1b:__ZL9luaB_typeP9lua_State
wdb:_tlsf_pool_overhead
T8a:__ZN12MatrixBinder6setM11EP9lua_State
ovc:_cff_parser_init
ul:__formatString
o8:__ZN6Sprite13childrenDrawnEv
wSc:_exp10
Fab:__ZNK9EventTypeI8LuaEventE4typeEv
Zlc:_af_glyph_hints_save
lBb:_png_init_palette_transformations
F3:__ZN8TTBMFontC2EP11ApplicationNSt3__26vectorIN8FontBase8FontSpecENS2_9allocatorIS5_EEEEfPKcfP7GStatus
NX:__ZNK9TextField9textColorEv
Mad:__ZNSt3__215basic_streambufIwNS_11char_traitsIwEEE7seekoffExNS_8ios_base7seekdirEj
ys:_emscripten_glReleaseShaderCompiler
fL:__ZNSt3__212__deque_baseIP6SpriteNS_9allocatorIS2_EEED2Ev
IZ:__ZN9MovieClip8getFieldEi9Parameter
tb:invoke_vidddddddddddd
dGb:_finish_output_pass
xtb:_deflate_fast
odd:__ZNKSt3__215basic_streambufIcNS_11char_traitsIcEEE4pptrEv
jba:__ZNSt3__214__split_bufferIP7Matrix4RNS_9allocatorIS2_EEE10push_frontERKS2_
T3:__ZN5ShapeD2Ev
ESa:__ZNK6Binder11getInstanceEPKci
Hlb:__ZNSt3__26__treeINS_12__value_typeINS_12basic_stringIcNS_11char_traitsIcEENS_9allocatorIcEEEE13GGAudioLoaderEENS_19__map_value_compareIS7_S9_NS_4lessIS7_EELb1EEENS5_IS9_EEEC2ERKSD_
W2a:__ZN12Box2DBinder214b2Body_setTypeEP9lua_State
Zgb:__ZNSt3__26__treeINS_12__value_typeIdNS_6vectorIiNS_9allocatorIiEEEEEENS_19__map_value_compareIdS6_NS_4lessIdEELb1EEENS3_IS6_EEE5eraseENS_21__tree_const_iteratorIS6_PNS_11__tree_nodeIS6_PvEEiEE
aod:__ZNSt3__212__do_nothingEPv
Nzc:_FT_Stroker_EndSubPath
bM:__ZN7GStatusC2Eiz
nea:__ZNSt3__214__split_bufferIPN12ShaderEngine7ScissorENS_9allocatorIS3_EEE9push_backEOS3_
YI:__ZNSt3__213__vector_baseItNS_9allocatorItEEED2Ev
Tw:_glBlendFunc
zpd:__ZNKSt3__27codecvtIDsc11__mbstate_tE11do_encodingEv
hub:_z_get_crc_table
x_b:__ZL4condP8LexState
MAd:__ZNSt3__215recursive_mutex6unlockEv
SPb:__ZNK11CPVRTString16find_last_not_ofEPKcj
uMc:_pad_62
zva:__ZNK14b2PolygonShape5CloneEP16b2BlockAllocator
Xlc:_af_dummy_hints_apply
nVa:__ZNSt3__26vectorIcNS_9allocatorIcEEEC2ERKS3_
m5c:_tcdrain
Ioc:_FT_GlyphLoader_CheckPoints
xta:_gui_getInputType
fE:_pthread_mutexattr_settype
zEb:_png_set_compression_window_bits
Akc:_tt_sbit_decoder_load_bitmap
IJc:___stdio_close
lMa:__ZN6b2Body16SetFixedRotationEb
Hmd:__ZNKSt3__210moneypunctIcLb1EE16do_positive_signEv
jEa:__ZN16b2ParticleSystem13RequestBufferIfEEPT_S2_
CO:__ZNSt3__26__treeINS_12__value_typeINS_12basic_stringIcNS_11char_traitsIcEENS_9allocatorIcEEEEiEENS_19__map_value_compareIS7_S8_NS_4lessIS7_EELb1EEENS5_IS8_EEE7destroyEPNS_11__tree_nodeIS8_PvEE
GFa:__ZNK6b2Body7GetTypeEv
Ge:_SDL_GetModState
V_a:__ZN12Box2DBinder215getRopeJointDefEP9lua_State
ztb:_fill_window
kGd:__ZNSt3__212basic_stringIwNS_11char_traitsIwEENS_9allocatorIwEEEC2ENS_17basic_string_viewIwS2_EE
ezc:_FT_Stroker_Rewind
xya:__ZN11b2WeldJoint23InitVelocityConstraintsERK12b2SolverData
Uob:_gaudio_WavRead
j9b:__ZNK6snappy17SnappyArrayWriter11CheckLengthEv
QAa:__ZN9b2SimplexC2Ev
sgd:__ZNKSt3__213basic_ostreamIwNS_11char_traitsIwEEE6sentrycvbEv
Doc:_ft_list_get_node_at
m3c:_tmpnam
cP:__ZNK3Dib6heightEv
FOa:__ZN15b2SlabAllocatorI16b2ParticleHandleE4SlabC2Ej
Vkd:__ZNKSt3__220__time_get_c_storageIwE3__rEv
tXc:_hasmntopt
OO:__ZNSt3__214__split_bufferIN11TexturePack4RectERNS_9allocatorIS2_EEEC2EjjS5_
yeb:___cxx_global_var_init_1_230
Qsb:_gpath_getDrivePath
Wrc:__iup_worker_interpolate
sZ:__ZN13GridBagLayout11ArrangeGridEP6Sprite
j5:___cxx_global_var_init_1_238
f2b:__ZL10pushresultP9lua_StateiPKc
I5a:__ZN12TTFontBinder6createEP9lua_State
Wdb:_block_can_split
DW:__ZN11Application20setLogicalDimensionsEii
t9c:__ZNSt3__211__libcpp_db4swapEPvS1_
Rwc:_cff_ps_has_glyph_names
rJd:__ZNSt3__212_GLOBAL__N_129throw_from_string_invalid_argERKNS_12basic_stringIcNS_11char_traitsIcEENS_9allocatorIcEEEE
iRc:___pthread_self_192
_3c:_wcstoull
Zba:__ZN9Transform7setRefXEf
ICd:__ZNSt3__212basic_stringIcNS_11char_traitsIcEENS_9allocatorIcEEE6__initEjc
E$:__ZNSt3__214__split_bufferIN9MovieClip5FrameERNS_9allocatorIS2_EEED2Ev
RP:__ZN7TileMapC2EP11ApplicationiiP11TextureBaseiiiiiiii
$Qc:_iswgraph_l
WUc:_remquol
I$:__ZNSt3__26vectorI9ParameterNS_9allocatorIS1_EEE18__construct_at_endIPS1_EENS_9enable_ifIXsr21__is_forward_iteratorIT_EE5valueEvE4typeES8_S8_j
k3:__ZN8TTBMFont8addGlyphEi
Bud:__ZNSt3__215__time_get_tempIcEC2EPKc
oTb:_unz64local_GetCurrentFileInfoInternal
qYb:__ZL9whilestatP8LexStatei
Seb:__ZN6GProxyD2Ev
vBb:_png_set_interlace_handling
Hga:__ZN16ogl2ShaderEngine5resetEb
No:_eglWaitGL
b2c:_freopen
VTa:__ZN8Viewport10getContentEv
kS:__ZNKSt3__26vectorI8RectSizeNS_9allocatorIS1_EEE8max_sizeEv
Yt:_emscripten_pause_main_loop
BW:__ZNKSt3__26vectorIP15EventDispatcherNS_9allocatorIS2_EEE8max_sizeEv
TUc:_remquof
Rfa:__ZNSt3__26__treeIP20gl2ShaderBufferCacheNS_4lessIS2_EENS_9allocatorIS2_EEE13__lower_boundIS2_EENS_15__tree_iteratorIS2_PNS_11__tree_nodeIS2_PvEEiEERKT_SD_PNS_15__tree_end_nodeIPNS_16__tree_node_baseISB_EEEE
uwd:__ZNSt3__212__rotate_gcdINS_11__wrap_iterIPwEEEET_S4_S4_S4_
nNb:__ZNSt3__212__deque_baseIP12QueueElementNS_9allocatorIS2_EEE5clearEv
wrb:_g_vfscanf
SY:__ZN6Screen5clearEjf
L1a:__ZN12Box2DBinder231b2PrismaticJoint_isMotorEnabledEP9lua_State
xFa:__ZN16b2ParticleSystem9SetRadiusEf
pm:_alGetError
IXd:_glGetShaderPrecisionFormat__wrapper
D5b:__ZL7str_subP9lua_State
J1:__ZN11TTTextField7setFontEP8FontBase
wtc:_cf2_getScaleAndHintFlag
cdb:_tlsf_check
Odd:__ZNSt3__215basic_streambufIwNS_11char_traitsIwEEE5gbumpEi
F4:__ZL20createSolidLineStripfffffRKNSt3__26vectorI6Point2IfENS_9allocatorIS2_EEEER12GraphicsBase
YKa:__ZNK16b2ParticleSystem23GetQuantizedTimeElapsedEv
Llc:_gray_set_cell
t3:__ZNSt3__26__treeINS_12__value_typeIiN8TTBMFont12TextureGlyphEEENS_19__map_value_compareIiS4_NS_4lessIiEELb1EEENS_9allocatorIS4_EEE12__find_equalIiEERPNS_16__tree_node_baseIPvEERPNS_15__tree_end_nodeISG_EERKT_
p2b:__ZL10io_tmpfileP9lua_State
PHd:__ZNSt3__212basic_stringIwNS_11char_traitsIwEENS_9allocatorIwEEE6insertEjPKw
kbd:__ZTv0_n12_NSt3__213basic_ostreamIcNS_11char_traitsIcEEED1Ev
VFa:__ZN15b2ContactSolver24SolvePositionConstraintsEv
Jmd:__ZNKSt3__210moneypunctIcLb1EE14do_frac_digitsEv
HLb:_encode_mcu_AC_refine
GCc:_ft_set_default_properties
gPb:__ZN21CPVRTMemoryFileSystem11GetNumFilesEv
pR:__ZNK5GMesh29getTextureCoordinateArraySizeEv
r3c:_wscanf
ksc:_Current_Ratio
rwd:__ZNSt3__2L10__init_patIwEEvRNS_10money_base7patternERNS_12basic_stringIT_NS_11char_traitsIS5_EENS_9allocatorIS5_EEEEbcccS5_
Zp:_emscripten_get_num_gamepads
rK:__GLOBAL__sub_I_stage_cpp
Zya:__ZNK13b2PulleyJoint10GetAnchorAEv
sbc:_INT123_frame_fill_toc
GYc:___pthread_self_441
Mba:__ZN6Sprite18setGreenMultiplierEf
XFb:_default_decompress_parms
Mda:__ZN12ShaderEngine10getDefaultENS_15StandardProgramE
rra:___cxx_global_var_init_585
fkc:_tt_face_load_sbit
J7c:__ZNSt3__27__sort3IRNS_6__lessIxxEEPxEEjT0_S5_S5_T_
dvd:__ZNKSt3__28time_putIcNS_19ostreambuf_iteratorIcNS_11char_traitsIcEEEEE3putES4_RNS_8ios_baseEcPK2tmcc
Zwa:__ZN12b2EPCollider24ComputePolygonSeparationEv
wEb:_png_set_compression_level
zRa:__ZL13lz_read_charsP9lua_StateP9lz_streamj
AXb:_lua_pcall
EFd:__ZNKSt3__212basic_stringIcNS_11char_traitsIcEENS_9allocatorIcEEE12__invariantsEv
rm:_alGetFloatv
EP:__ZNK8Matrix2D21inverseTransformPointEffPfS0_
FNc:_isascii
Qc:RegisteredPointer
oC:_llvm_fabs_f32
X0c:_mkfifo
Vnd:__ZNKSt3__217moneypunct_bynameIwLb1EE14do_frac_digitsEv
mxb:_png_gamma_8bit_correct
ayb:_png_get_y_pixels_per_meter
pAb:_png_handle_hIST
Ihb:_gtexture_get_spritefactory
Vm:_alSourcePausev
HAa:__ZNK6b2Stat6GetMaxEv
SSb:_call_ztell64
tvb:_z_gztell64
xTd:___muldsi3
zIc:__ZN10emscripten8internal6TypeIDINS_11memory_viewItEEE3getEv
x3b:__ZL13Lutf8_reverseP9lua_State
Rec:_bc_skip
p7:__ZNSt3__214__split_bufferIPNS_4pairIP5TimeriEERNS_9allocatorIS5_EEE18__construct_at_endINS_13move_iteratorIPS5_EEEENS_9enable_ifIXsr21__is_forward_iteratorIT_EE5valueEvE4typeESF_SF_
TPb:__ZNK11CPVRTString16find_last_not_ofEPKcjj
P5a:__ZN8FontBase8FontSpecC2EOS0_
GAa:__ZNK6b2Stat6GetMinEv
zla:__ZNSt3__213__vector_baseIP15ginput_KeyEventNS_9allocatorIS2_EEED2Ev
Qqb:_g_registerForegroundCallback
sec:_generic_head_read
uod:__ZNSt3__211__money_putIcE13__gather_infoEbbRKNS_6localeERNS_10money_base7patternERcS8_RNS_12basic_stringIcNS_11char_traitsIcEENS_9allocatorIcEEEESF_SF_Ri
dN:__ZN12SplashScreenD2Ev
h2b:__ZL8io_closeP9lua_State
XV:__ZNK11Application16getHardwareWidthEv
wPb:__ZNK11CPVRTString7compareEPKc
goa:__ZN12_GLOBAL__N_121GGStreamOpenALManager14ChannelIsValidEm
Za:invoke_iiiiiiiiiiiii
Uaa:__ZNSt3__214__split_bufferIP9_cliprectRNS_9allocatorIS2_EEEC2EjjS5_
g1a:__ZN12Box2DBinder222b2MouseJoint_setTargetEP9lua_State
gMa:__ZN12b2FixtureDefC2Ev
SYb:_luaK_numberK
oGa:__ZN16b2ParticleSystem7GetNextEv
HOd:__ZNK10__cxxabiv122__base_class_type_info16search_below_dstEPNS_19__dynamic_cast_infoEPKvib
gwa:__ZN13b2CircleShapeaSERKS_
Jta:_ggeolocation_setThreshold
Mkd:__ZNKSt3__28time_getIwNS_19istreambuf_iteratorIwNS_11char_traitsIwEEEEE11do_get_dateES4_S4_RNS_8ios_baseERjP2tm
S1b:__ZL10auxupvalueP9lua_Statei
bh:__Unwind_RaiseException
g0b:_luaL_newmetatable
LEd:__ZNSt3__212basic_stringIcNS_11char_traitsIcEENS_9allocatorIcEEE7replaceENS_11__wrap_iterIPKcEES9_St16initializer_listIcE
DZ:__ZN9MovieClipD2Ev
Wjd:__ZNSt3__216__pad_and_outputIwNS_11char_traitsIwEEEENS_19ostreambuf_iteratorIT_T0_EES6_PKS4_S8_S8_RNS_8ios_baseES4_
LM:__ZN7Vector3C2Ev
wFc:_smix_mono_16bit_spline_filter
Ykd:__ZNSt3__211char_traitsIwE6lengthEPKw
yqc:_Ins_WS
aha:__ZNSt3__219basic_ostringstreamIcNS_11char_traitsIcEENS_9allocatorIcEEED1Ev
D5a:__ZN15TextFieldBinder9setSampleEP9lua_State
izb:_png_push_read_sig
Iqa:__ZNSt3__26__treeINS_12__value_typeImPN21GGSampleOpenALManager5SoundEEENS_19__map_value_compareImS5_NS_4lessImEELb1EEENS_9allocatorIS5_EEE13__lower_boundImEENS_15__tree_iteratorIS5_PNS_11__tree_nodeIS5_PvEEiEERKT_SI_PNS_15__tree_end_nodeIPNS_16__tree_node_baseISG_EEEE
Df:_SDL_PauseAudio
iU:__ZNSt3__26__treeINS_12__value_typeINS_4pairIiiEEiEENS_19__map_value_compareIS3_S4_NS_4lessIS3_EELb1EEENS_9allocatorIS4_EEE5clearEv
zJc:_malloc_trim
gvb:_z_uncompress
OB:_glutTimerFunc
n3c:_vprintf
qHb:_jpeg_idct_4x2
Kh:___cxa_rethrow_primary_exception
Nfa:__ZNSt3__26__treeIP20gl2ShaderBufferCacheNS_4lessIS2_EENS_9allocatorIS2_EEED2Ev
rs:_emscripten_glLinkProgram
aO:__ZNK12SplashScreen10isFinishedEv
kHb:_jpeg_idct_4x8
Xl:_alDeleteBuffers
a:HEAP8
hd:_Mix_HaltChannel
rac:_enc2num
ORa:__ZNSt3__23mapINS_12basic_stringIcNS_11char_traitsIcEENS_9allocatorIcEEEEdNS_4lessIS6_EENS4_INS_4pairIKS6_dEEEEED2Ev
yjc:_FT_Stream_Pos
fGc:_read_event_st3
v8b:__ZN8pystring2os4path14splitext_posixERNSt3__212basic_stringIcNS2_11char_traitsIcEENS2_9allocatorIcEEEES9_RKS8_
A8b:__ZN6snappy8internal13WorkingMemory12GetHashTableEjPi
wMd:__ZNSt3__26thread4joinEv
Mq:_emscripten_glDeleteFramebuffers
JNc:___iscntrl_l
A2a:__ZN12Box2DBinder223b2Fixture_SetFilterDataEP9lua_State
dzd:__ZNSt3__215numpunct_bynameIcE6__initEPKc
WAc:_raccess_guess_apple_single
gva:__ZN7b2ShapeaSERKS_
Jlc:_gray_split_cubic
Ouc:_cf2_hintmap_map
M8b:__ZN6snappy12LittleEndian7Store16EPvt
xda:__ZN7Matrix46rotateEfRK7Vector3
bpd:__ZNSt3__214codecvt_bynameIcc11__mbstate_tED0Ev
MW:__ZNSt3__26__sortIRNS_6__lessIN11Application10ImageScaleES3_EEPS3_EEvT0_S7_T_
NEd:__ZNKSt3__212basic_stringIcNS_11char_traitsIcEENS_9allocatorIcEEE4copyEPcjj
r0c:_tre_purge_regset
uea:__ZNSt3__212__deque_baseIN12ShaderEngine12DepthStencilENS_9allocatorIS2_EEE3endEv
t9:__ZNK14ColorTransform14blueMultiplierEv
gPa:__ZN16b2ParticleSystem19CreateParticleGroupERK18b2ParticleGroupDef
SCd:__ZNSt3__212basic_stringIcNS_11char_traitsIcEENS_9allocatorIcEEED2Ev
$Dc:_xlat_fx_135
gbb:__ZN16PushEventVisitor5visitEP13KeyboardEvent
YQa:__ZL18crypto_aes_encryptP9lua_State
okc:_FT_Stream_GetULong
Sib:__ZN9g_private14TextureManager11setUserDataEmPv
XEc:_period_to_bend
a$c:___dns_get_rr
Ry:_glLineWidth
j2:__ZNSt3__213__vector_baseIN6TTFont8FontFaceENS_9allocatorIS2_EEED2Ev
k5b:__ZL9math_sinhP9lua_State
krc:_Ins_S45ROUND
tFd:__ZNKSt3__212basic_stringIcNS_11char_traitsIcEENS_9allocatorIcEEE16find_last_not_ofEPKcj
iic:_tt_cmap2_get_subheader
uwb:_png_colorspace_check_gamma
_Rb:_FinishLeftRegions
nEc:_anticlick
ujd:__ZNSt3__214__scan_keywordINS_19istreambuf_iteratorIwNS_11char_traitsIwEEEEPKNS_12basic_stringIwS3_NS_9allocatorIwEEEENS_5ctypeIwEEEET0_RT_SE_SD_SD_RKT1_Rjb
KH:FUNCTION_TABLE_vidddddddddddd
Ztb:_z_compressBound
eNc:_sha256_update
Xib:__ZN9g_private14TextureManager17setCachingEnabledEi
YU:__ZNSt3__26__treeINS_12__value_typeINS_4pairIiiEEiEENS_19__map_value_compareIS3_S4_NS_4lessIS3_EELb1EEENS_9allocatorIS4_EEE16__insert_node_atEPNS_15__tree_end_nodeIPNS_16__tree_node_baseIPvEEEERSG_SG_
yQ:__Z11glMultColorffff
Hlc:_gray_render_cubic
Qmd:__ZNKSt3__210moneypunctIwLb0EE11do_groupingEv
EF:_uuid_compare
WNc:_iswalpha
Tr:_emscripten_glGetQueryivEXT
Iwd:__ZNSt3__211__money_putIcEC2Ev
QKa:__ZNSt3__29remove_ifIP21b2ParticleBodyContactPFbRKS1_EEET_S7_S7_T0_
sv:_emscripten_vr_get_frame_data
klc:_inflate_trees_dynamic
uVb:_luaH_getnum
Zid:__ZNKSt3__27num_getIwNS_19istreambuf_iteratorIwNS_11char_traitsIwEEEEE6do_getES4_S4_RNS_8ios_baseERjRl
uTb:_unzClose
_yd:__ZNSt3__26locale5__imp7installINS_15time_put_bynameIcNS_19ostreambuf_iteratorIcNS_11char_traitsIcEEEEEEEEvPT_
vNa:__ZNK13b2PulleyJoint17GetCurrentLengthBEv
q5:__ZNSt3__214__split_bufferIP9BlendFuncRNS_9allocatorIS2_EEE18__construct_at_endINS_13move_iteratorIPS2_EEEENS_9enable_ifIXsr21__is_forward_iteratorIT_EE5valueEvE4typeESC_SC_
eca:__ZN9Transform12setRotationZEf
zad:__ZNSt3__215basic_streambufIcNS_11char_traitsIcEEE7seekposENS_4fposI11__mbstate_tEEj
wN:__ZN3DibD2Ev
u9b:__ZN6snappy15string_as_arrayEPNSt3__212basic_stringIcNS0_11char_traitsIcEENS0_9allocatorIcEEEE
js:_emscripten_glIsFramebuffer
Ftb:_compress_block
rgb:__ZNSt3__26__treeINS_12__value_typeIiN9g_private12TimerManager12TimerElementEEENS_19__map_value_compareIiS5_NS_4lessIiEELb1EEENS_9allocatorIS5_EEE7destroyEPNS_11__tree_nodeIS5_PvEE
lxa:__ZN12b2MouseJoint4DumpEv
WFc:_get_lfo_mod
i5b:__ZL11math_randomP9lua_State
Ama:_ginput_setMouseTouchOrder
LEb:_png_image_write_main
dFc:_next_order
$ha:__ZL7merge4fP8merger4fPK8vector4fPti
WNd:__ZNKSt11logic_error4whatEv
a_b:__ZL13insert_stringP8LexStatePKc
PQb:___gl_noBeginData
nPd:__ZN10__cxxabiv112_GLOBAL__N_116parse_dot_suffixINS0_2DbEEEPKcS4_S4_RT_
Zt:_emscripten_print_double
HN:__ZNSt3__26vectorI6Point2IfENS_9allocatorIS2_EEE6assignIPS2_EENS_9enable_ifIXaasr21__is_forward_iteratorIT_EE5valuesr16is_constructibleIS2_NS_15iterator_traitsIS9_E9referenceEEE5valueEvE4typeES9_S9_
un:_alcGetError
VXa:__ZN11GGUrlLoader14deleteResourceEPKcP12ghttp_Header
xGd:__ZNSt3__212basic_stringIwNS_11char_traitsIwEENS_9allocatorIwEEE7reserveEj
E2:__ZNKSt3__26vectorIN8FontBase8FontSpecENS_9allocatorIS2_EEE8max_sizeEv
i$:__ZL12easeInBouncedd
Qwa:__ZN15b2CircleContact8EvaluateEP10b2ManifoldRK11b2TransformS4_
Oga:__ZN16ogl2ShaderEngine11setViewportEiiii
tGd:__ZNSt3__211char_traitsIwE4moveEPwPKwj
Mxc:_psh_hint_table_deactivate
VJb:_jpeg_fdct_14x7
czd:__ZNSt3__215numpunct_bynameIwE6__initEPKc
k0:__ZNK4SlotI9MovieClip15EnterFrameEventE2t2Ev
T4b:__ZL9math_atanP9lua_State
zHd:__ZNSt3__212basic_stringIwNS_11char_traitsIwEENS_9allocatorIwEEE10__set_sizeEj
qEc:_mixer_numvoices
b9:__ZNSt3__26__treeINS_12__value_typeINS_12basic_stringIcNS_11char_traitsIcEENS_9allocatorIcEEEEN6Sprite11ShaderParamEEENS_19__map_value_compareIS7_SA_NS_4lessIS7_EELb1EEENS5_ISA_EEE5clearEv
zFd:__ZNKSt3__212basic_stringIcNS_11char_traitsIcEENS_9allocatorIcEEE7compareEjjRKS5_
Nbd:__ZNKSt3__29basic_iosIcNS_11char_traitsIcEEE4goodEv
TXb:__ZL10close_funcP8LexState
iCb:_translate_gamma_flags
CXb:_luaD_pcall
kPa:__ZZN16b2ParticleSystem18JoinParticleGroupsEP15b2ParticleGroupS1_EN24JoinParticleGroupsFilterD0Ev
Mha:__ZL18inverse_arc_lengthddddddd
Njd:__ZNSt3__27num_putIwNS_19ostreambuf_iteratorIwNS_11char_traitsIwEEEEED0Ev
CQc:_iconv
SQa:__ZN14LuaApplication15Core_randomSeedEP9lua_State
PQ:__ZNSt3__26vectorIN5GMesh5ColorENS_9allocatorIS2_EEE18__construct_at_endEj
wQc:_freelocale
THb:_noop_upsample
Ya:ftCall_iiiiiiiiiiii
aWd:_pthread_cond_wait__wrapper
Q4a:__ZN21b2DestructionListenerD0Ev
pmb:__ZNSt3__26__treeINS_12__value_typeINS_12basic_stringIcNS_11char_traitsIcEENS_9allocatorIcEEEE13GGAudioLoaderEENS_19__map_value_compareIS7_S9_NS_4lessIS7_EELb1EEENS5_IS9_EEE13__lower_boundIS7_EENS_15__tree_iteratorIS9_PNS_11__tree_nodeIS9_PvEEiEERKT_SL_PNS_15__tree_end_nodeIPNS_16__tree_node_baseISJ_EEEE
tTc:_common_285
ldb:_offset_to_block
Vpa:__ZN21GGSampleOpenALManager17ChannelSetLoopingEmb
UBb:_png_image_begin_read_from_memory
Hsd:__ZNKSt3__215__codecvt_utf16IDiLb1EE10do_unshiftER11__mbstate_tPcS4_RS4_
lqc:_Ins_MDAP
TQ:__ZNSt3__26vectorIN5GMesh5ColorENS_9allocatorIS2_EEE26__swap_out_circular_bufferERNS_14__split_bufferIS2_RS4_EE
M3c:_llabs
hHc:_xmp_test_module
Jpd:__ZNSt3__26locale5__impD0Ev
E4:__ZL20createTexturePolygonP11TextureBaseRK7Matrix4RKNSt3__26vectorINS5_I6Point2IfENS4_9allocatorIS7_EEEENS8_ISA_EEEEbR12GraphicsBase
_ga:__ZNSt3__23mapINS_12basic_stringIcNS_11char_traitsIcEENS_9allocatorIcEEEES6_NS_4lessIS6_EENS4_INS_4pairIKS6_S6_EEEEEixEOS6_
BNb:__ZL8getErrorv
nr:_emscripten_glEnable
Cw:_getpwnam
idb:_tlsf_fls
AOd:__ZNK10__cxxabiv116__enum_type_info9can_catchEPKNS_16__shim_type_infoERPv
zec:_stream_rewind
eH:FUNCTION_TABLE_diid
eGd:__ZNSt3__212basic_stringIwNS_11char_traitsIwEENS_9allocatorIwEEE6__initEjw
gH:FUNCTION_TABLE_diii
Xv:_exit
emb:__ZNSt3__26__treeINS_12__value_typeImPN14GGSoundManager5SoundEEENS_19__map_value_compareImS5_NS_4lessImEELb1EEENS_9allocatorIS5_EEE13__lower_boundImEENS_15__tree_iteratorIS5_PNS_11__tree_nodeIS5_PvEEiEERKT_SI_PNS_15__tree_end_nodeIPNS_16__tree_node_baseISG_EEEE
kba:__ZNK6Sprite11localBoundsEPfS0_S0_S0_b
Yid:__ZNKSt3__27num_getIwNS_19istreambuf_iteratorIwNS_11char_traitsIwEEEEE6do_getES4_S4_RNS_8ios_baseERjRb
zqd:__ZNSt3__28numpunctIcED0Ev
azb:_png_malloc_array
ZWb:_lua_topointer
PEd:__ZNSt3__212basic_stringIcNS_11char_traitsIcEENS_9allocatorIcEEE4swapERS5_
L4a:__ZN19DestructionListenerD0Ev
M4c:_wcscasecmp
V4a:__ZN20EventContactListener12BeginContactEP16b2ParticleSystemP21b2ParticleBodyContact
Lcb:__ZN14LuaApplication11renderSceneEi
rFd:__ZNKSt3__212basic_stringIcNS_11char_traitsIcEENS_9allocatorIcEEE16find_last_not_ofENS_17basic_string_viewIcS2_EEj
DFa:__ZN7b2World16SetAllowSleepingEb
Uyb:_png_get_compression_buffer_size
zDb:_png_write_chunk_end
rga:__ZNSt3__214__split_bufferIN13ShaderProgram12ConstantDescERNS_9allocatorIS2_EEED2Ev
lFc:_downmix_int_8bit
zib:__ZN9g_privateL9pixelSizeEii
rW:__ZN11Application20setDeviceOrientationE11Orientation
Bbc:_buffy_del
$Pc:_bindtextdomain
Itc:_cf2_arrstack_init
HGa:__ZN16b2ParticleSystem19SolveStaticPressureERK10b2TimeStep
jqb:__ZNSt3__26vectorIPcNS_9allocatorIS1_EEE21__push_back_slow_pathIRKS1_EEvOT_
ZSa:__ZN15ParticlesBinder14setParticleTagEP9lua_State
j1c:___xmknod
PNb:__ZNK12QueueElement2idEv
dTc:___DOUBLE_BITS_271
UPc:___DOUBLE_BITS_273
eab:__ZN4SlotI13TimerListener10TimerEventEC2EPS0_MS0_FvPS1_E
Y8a:__ZN12MatrixBinder5setTyEP9lua_State
Nid:__ZNKSt3__27num_getIcNS_19istreambuf_iteratorIcNS_11char_traitsIcEEEEE17__do_get_unsignedIjEES4_S4_S4_RNS_8ios_baseERjRT_
nGa:__ZN16b2ParticleSystem5SolveERK10b2TimeStep
Yxd:__ZNSt3__26locale5__imp7installINS_9money_getIcNS_19istreambuf_iteratorIcNS_11char_traitsIcEEEEEEEEvPT_
vx:_glDepthRange
S6a:__ZN12SpriteBinder10addChildAtEP9lua_State
hWd:_emscripten_set_mouseup_callback__wrapper
Lvc:_cf2_builder_lineTo
Jq:_emscripten_glCreateShader
xNa:__ZNK11b2RopeJoint13GetLimitStateEv
sNb:__ZN11NetworkBase7cleanupEv
qba:__ZNK6Sprite5alphaEv
vpd:__ZNSt3__214codecvt_bynameIDsc11__mbstate_tED0Ev
F1c:_getline
fWb:__ZL14unbound_searchP5Tablej
Mva:__ZN6b2Vec27SetZeroEv
Mib:_gtexture_update
cWa:__ZNSt3__26vectorIjNS_9allocatorIjEEE8__appendEj
F0c:_regexec
C6a:__ZNSt3__213__vector_baseIPKcNS_9allocatorIS2_EEED2Ev
qS:__ZNSt3__26vectorI8RectSizeNS_9allocatorIS1_EEE18__construct_at_endEj
a7c:__ZNSt3__27__sort4IRNS_6__lessIssEEPsEEjT0_S5_S5_S5_T_
Q2a:__ZN12Box2DBinder225b2Body_ApplyLinearImpulseEP9lua_State
mOb:__ZN10ByteBuffer6appendEj
fo:_ctime
eSb:_WalkDirtyRegions
aJ:__ZN6TickerC2Ev
JTa:__ZN14ViewportBinder6createEP9lua_State
fn:_alSourceiv
EKa:__ZNSt3__27__sort5IRPFbRKN12_GLOBAL__N_115LightweightPairIP9b2FixtureiEES7_EPS5_EEjT0_SC_SC_SC_SC_T_
iUc:_log10f
b7b:__ZN8pystring6rsplitERKNSt3__212basic_stringIcNS0_11char_traitsIcEENS0_9allocatorIcEEEERNS0_6vectorIS6_NS4_IS6_EEEES8_i
cgc:_INT123_feed_set_pos
dgb:__ZN9g_private9StopWatch5clockEv
oNb:__ZNSt3__214__split_bufferIPP12QueueElementNS_9allocatorIS3_EEED2Ev
$cd:__ZNSt3__215basic_streambufIcNS_11char_traitsIcEEE5sgetnEPci
sza:__ZNK15b2DistanceJoint16GetReactionForceEf
_md:__ZNKSt3__210moneypunctIwLb1EE16do_thousands_sepEv
_Ba:__ZN13b2DynamicTree15RebuildBottomUpEv
M2a:__ZN12Box2DBinder220b2Body_CreateFixtureEP9lua_State
Jtc:_cf2_hintmask_init
XHc:__ZN10emscripten8internal6TypeIDINSt3__212basic_stringIcNS2_11char_traitsIcEENS2_9allocatorIcEEEEE3getEv
Pla:__ZNSt3__26__treeINS_12__value_typeIjNS_6vectorIP17ginput_TouchEventNS_9allocatorIS4_EEEEEENS_19__map_value_compareIjS8_NS_4lessIjEELb1EEENS5_IS8_EEE25__emplace_unique_key_argsIjJRKNS_21piecewise_construct_tENS_5tupleIJRKjEEENSJ_IJEEEEEENS_4pairINS_15__tree_iteratorIS8_PNS_11__tree_nodeIS8_PvEEiEEbEERKT_DpOT0_
gV:__ZNSt3__26vectorIhNS_9allocatorIhEEE8__appendEjRKh
_nd:__ZNKSt3__29money_getIcNS_19istreambuf_iteratorIcNS_11char_traitsIcEEEEE6do_getES4_S4_bRNS_8ios_baseERjRe
T5:__ZN15EventDispatcher12removeSourceEPS_
lO:__ZN12GBitmapArray8setAlphaEif
zNb:__ZN12QueueElement4sendEi
yA:_glfwGetTime
sic:_tt_cmap6_char_index
Hzd:__ZNSt3__26locale5__imp12install_fromINS_8time_getIcNS_19istreambuf_iteratorIcNS_11char_traitsIcEEEEEEEEvRKS1_
Qkb:__ZNSt3__29remove_ifINS_16__deque_iteratorIN6gevent12EventManager17EventQueueElementEPS4_RS4_PS5_iLi0EEENS3_10equal_typeIS4_EEEET_SB_SB_T0_
hMa:__ZN6b2Body14DestroyFixtureEP9b2Fixture
tWc:_ftrylockfile
v:inf
pF:_system
lsb:_g_setvbuf
ulb:__ZN19gevent_CallbackList21removeCallbackWithGidEm
sN:__ZL18createGraphicsBaseP11TextureDataii
e5b:__ZL8math_minP9lua_State
Iia:__ZL5angledddd
h_:__ZL13easeOutBounced
B8c:__ZNSt3__218condition_variable10notify_allEv
W4:__ZNSt3__26vectorIPdNS_9allocatorIS1_EEE21__push_back_slow_pathIRKS1_EEvOT_
oFb:_get_dac
wJ:__ZNKSt3__26vectorItNS_9allocatorItEEE8max_sizeEv
Aic:_tt_cmap10_char_index
$Gc:_format_list
bCb:_png_set_add_alpha
rRb:_internal_gluTessProperty
Azb:_png_do_expand_palette
iHc:_hio_open
E8a:__ZNK6Sprite5clipYEv
bKc:_strtoll_l
dsa:__ZN10emscripten8internal20writeGenericWireTypeINS0_7_EM_VALEEEvRPNS0_15GenericWireTypeEPT_
jB:_glfwWaitThread
rTd:runPostSets68
QC:_llvm_sin_f32
ajd:__ZNKSt3__27num_getIwNS_19istreambuf_iteratorIwNS_11char_traitsIwEEEEE6do_getES4_S4_RNS_8ios_baseERjS8_
vDb:_png_write_chunk
Ztd:__ZNSt3__27num_putIwNS_19ostreambuf_iteratorIwNS_11char_traitsIwEEEEEC2Ej
a0c:_tre_make_trans
mTd:runPostSets63
MCb:_png_set_cHRM_XYZ
JP:__ZN8Matrix2D7setTypeEv
nTd:runPostSets64
qTd:runPostSets67
pTd:runPostSets66
ZYc:_endhostent
_Ld:__ZNKSt3__224__generic_error_category7messageEi
Ipc:_Ins_SFVTPV
pV:__ZNSt3__26vectorItNS_9allocatorItEEEC2Ej
n8a:__ZNSt3__26__treeINS_12__value_typeINS_12basic_stringIcNS_11char_traitsIcEENS_9allocatorIcEEEEN6Sprite11ShaderParamEEENS_19__map_value_compareIS7_SA_NS_4lessIS7_EELb1EEENS5_ISA_EEE16__construct_nodeIJRKNS_21piecewise_construct_tENS_5tupleIJRKS7_EEENSL_IJEEEEEENS_10unique_ptrINS_11__tree_nodeISA_PvEENS_22__tree_node_destructorINS5_IST_EEEEEEDpOT_
Pw:_glBindVertexArrayOES
$ea:__ZN16ogl2ShaderBufferC2EP13ShaderTexture
mTa:__ZN11PixelBinder9setHeightEP9lua_State
ttc:_cff_index_forget_element
xub:_z_inflateInit_
b_c:_name_from_null
drd:__ZNSt3__216__narrow_to_utf8ILj16EED0Ev
bE:_pthread_mutexattr_init
Hcc:_II_step_one
aCb:_png_set_background_fixed
zOc:_isxdigit
AVa:__ZN10MeshBinder11setVerticesEP9lua_State
Zrc:_Round_To_Grid
FVb:__ZL12computesizesPiS_
JIc:__ZN10emscripten8internal11LightTypeIDINS_3valEE3getEv
$ic:_tt_cmap14_validate
iQb:__ZN11CPVRTStringaSERKS_
jVa:__ZN12_GLOBAL__N_114GGSoundChannelD2Ev
dbd:__ZNSt3__213basic_istreamIwNS_11char_traitsIwEEED1Ev
FQa:__ZNSt3__26__treeINS_12__value_typeIibEENS_19__map_value_compareIiS2_NS_4lessIiEELb1EEENS_9allocatorIS2_EEE16__construct_nodeIJRKNS_21piecewise_construct_tENS_5tupleIJRKiEEENSE_IJEEEEEENS_10unique_ptrINS_11__tree_nodeIS2_PvEENS_22__tree_node_destructorINS7_ISM_EEEEEEDpOT_
Xtc:_cf2_doStems
crd:__ZNSt3__27codecvtIDic11__mbstate_tED0Ev
RZb:__ZL9checknameP8LexStateP7expdesc
kWb:__ZL6growCIP9lua_State
add:__ZNSt3__215basic_streambufIcNS_11char_traitsIcEEE9sputbackcEc
Jra:_ghttp_CloseAll
LMd:__ZNKSt3__26vectorINS_4pairIPNS_18condition_variableEPNS_5mutexEEENS_18__hidden_allocatorIS6_EEE8max_sizeEv
Phd:__ZNSt3__27collateIcED0Ev
yo:_eglGetCurrentSurface
Hz:_glUniformMatrix4fv
xVc:___fpclassify
trc:_Ins_SCANCTRL
Ka:ftCall_iiiiii
iEd:__ZNSt3__212basic_stringIcNS_11char_traitsIcEENS_9allocatorIcEEE6assignERKS5_
Ia:ftCall_iiiiid
iNb:__ZN6snappy22UncheckedByteArraySink6AppendEPKcj
ZOb:__ZN11CPVRTString6appendEPKcj
xD:_pthread_attr_setdetachstate
$qc:_Ins_DIV
iAd:__ZNKSt3__212bad_weak_ptr4whatEv
a4c:_do_read_777
oxc:_psh_globals_funcs_init
G:Math_cos
Sxb:_png_get_rowbytes
U3a:__ZN12Box2DBinder220b2World_destroyJointEP9lua_State
xXb:_lua_setmetatable
xvb:_z_gzeof
Tzd:__ZNSt3__26localeC2EPKc
zx:_glDisableVertexAttribArray
ppd:__ZNKSt3__27codecvtIwc11__mbstate_tE16do_always_noconvEv
c$c:_erand48
qVa:__ZNSt3__26vectorIcNS_9allocatorIcEEE18__construct_at_endIPcEENS_9enable_ifIXsr21__is_forward_iteratorIT_EE5valueEvE4typeES7_S7_j
ghb:__ZL15jpeg_gstdio_srcP22jpeg_decompress_structP8g__sFILE
mja:_moveto
cob:_gaudio_SoundPlay
_Qb:_ComputeNormal
Tic:_tt_cmap14_done
mhd:__ZNSt3__211__stdoutbufIwEC2EP8_IO_FILEP11__mbstate_t
_L:__ZN14GStatusElementC2Ev
Qcd:__ZNSt3__29basic_iosIwNS_11char_traitsIwEEE4swapERS3_
eLb:_finish_pass_huff
FKd:__ZNKSt3__212_GLOBAL__N_114initial_stringINS_12basic_stringIcNS_11char_traitsIcEENS_9allocatorIcEEEEdLb1EEclEv
vLa:__ZNK13b2PulleyJoint16GetGroundAnchorAEv
Ola:__ZNSt3__214__split_bufferIP17ginput_TouchEventRNS_9allocatorIS2_EEED2Ev
y7c:__ZNSt3__27__sort4IRNS_6__lessIllEEPlEEjT0_S5_S5_S5_T_
vec:_generic_read_frame_body
GBc:_FT_Face_GetVariantSelectors
Yjb:__ZNSt3__26__treeIPN9g_private14TextureManager18TempTextureElementENS_4lessIS4_EENS_9allocatorIS4_EEE7destroyEPNS_11__tree_nodeIS4_PvEE
Ovb:_png_malloc_warn
iha:__ZNSt3__26__treeINS_12__value_typeINS_12basic_stringIcNS_11char_traitsIcEENS_9allocatorIcEEEES7_EENS_19__map_value_compareIS7_S8_NS_4lessIS7_EELb1EEENS5_IS8_EEE16__insert_node_atEPNS_15__tree_end_nodeIPNS_16__tree_node_baseIPvEEEERSJ_SJ_
Z4c:_wmemcmp
oza:__ZN11b2RopeJoint24SolveVelocityConstraintsERK12b2SolverData
lfc:_nix_lseek
bUa:__ZN12Path2DBinder11setFontPathEP9lua_State
bxb:_png_colorspace_set_rgb_coefficients
g7c:__ZNSt3__27__sort4IRNS_6__lessIttEEPtEEjT0_S5_S5_S5_T_
HPd:__ZN10__cxxabiv112_GLOBAL__N_111string_pair9move_fullEv
LLb:_start_pass_fdctmgr
O_b:__ZL9LoadDebugP9LoadStateP5Proto
Tvd:__ZNKSt3__210moneypunctIwLb0EE10pos_formatEv
qYa:__ZN15MovieClipBinder6createEP9lua_State
tKd:__ZNKSt3__212_GLOBAL__N_114initial_stringINS_12basic_stringIcNS_11char_traitsIcEENS_9allocatorIcEEEEmLb0EEclEv
WAd:__ZNSt3__221recursive_timed_mutex8try_lockEv
n4c:_threebyte_memmem
o0a:__ZThn508_N11b2DebugDraw11DrawPolygonEPK6b2Vec2iRK7b2Color
KXb:_luaZ_lookahead
n0:__ZN9MovieClip8oneFrameEv
dXa:__ZN11GGGyroscopeD0Ev
k1b:__ZL15luaB_loadstringP9lua_State
Zrd:__ZNSt3__2L22utf16le_to_ucs4_lengthEPKhS1_jmNS_12codecvt_modeE
Mbc:_INT123_frame_expect_outsamples
Uub:_adler32_combine_
ufd:__ZNSt3__213basic_istreamIwNS_11char_traitsIwEEE3getEPwiw
prc:_Ins_RDTG
Fe:_SDL_GetKeyboardState
RKd:__ZNKSt3__212_GLOBAL__N_114initial_stringINS_12basic_stringIwNS_11char_traitsIwEENS_9allocatorIwEEEElLb0EEclEv
hLa:__ZNSt3__27__sort5IRN12_GLOBAL__N_124ExpirationTimeComparatorEPiEEjT0_S5_S5_S5_S5_T_
vEd:__ZNSt3__212basic_stringIcNS_11char_traitsIcEENS_9allocatorIcEEE6insertENS_11__wrap_iterIPKcEESt16initializer_listIcE
Kwb:_png_colorspace_endpoints_match
Jia:__ZL16subdivide_cubic8PKdPd
u8a:__ZN6Sprite9setSkewXYEff
u4c:_strerror_r
R7b:__ZN8pystring2os4path16splitdrive_posixERNSt3__212basic_stringIcNS2_11char_traitsIcEENS2_9allocatorIcEEEES9_RKS8_
N2c:_popen
qRc:_strerror_l
UAb:_png_process_data_pause
$5c:_pwritev
XRb:___gl_dictListDelete
gld:__ZNKSt3__28time_getIwNS_19istreambuf_iteratorIwNS_11char_traitsIwEEEEE18__get_day_year_numERiRS4_S4_RjRKNS_5ctypeIwEE
vT:__ZNSt3__211char_traitsIiE6assignERiRKi
Lbc:_INT123_ntom_frmouts
sc:ftCall_viiiiii
UVb:_luaG_concaterror
ytc:_cf2_checkTransform
DHd:__ZNSt3__212basic_stringIwNS_11char_traitsIwEENS_9allocatorIwEEE4backEv
QE:_setgroups
gE:_pthread_once
rud:__ZNKSt3__28time_getIwNS_19istreambuf_iteratorIwNS_11char_traitsIwEEEEE10date_orderEv
gNa:__ZN12b2MotorJoint12SetMaxTorqueEf
dka:__ZNSt3__24pairINS_12basic_stringIcNS_11char_traitsIcEENS_9allocatorIcEEEEfEC2EOS7_
S8:__ZN18SpriteProxyFactoryD0Ev
ljd:__ZNKSt3__27num_getIwNS_19istreambuf_iteratorIwNS_11char_traitsIwEEEEE23__do_get_floating_pointIdEES4_S4_S4_RNS_8ios_baseERjRT_
q0:__ZNSt3__26__treeINS_12__value_typeIiNS_6vectorIPN9MovieClip5FrameENS_9allocatorIS5_EEEEEENS_19__map_value_compareIiS9_NS_4lessIiEELb1EEENS6_IS9_EEE4findIiEENS_15__tree_iteratorIS9_PNS_11__tree_nodeIS9_PvEEiEERKT_
oka:__ZNSt3__26__treeINS_12__value_typeINS_12basic_stringIcNS_11char_traitsIcEENS_9allocatorIcEEEENS_6vectorIhNS5_IhEEEEEENS_19__map_value_compareIS7_SB_NS_4lessIS7_EELb1EEENS5_ISB_EEE25__emplace_unique_key_argsIS7_JRKNS_21piecewise_construct_tENS_5tupleIJRKS7_EEENSM_IJEEEEEENS_4pairINS_15__tree_iteratorISB_PNS_11__tree_nodeISB_PvEEiEEbEERKT_DpOT0_
dub:_z_gz_error
iCa:__ZN12b2ChainShape13SetNextVertexERK6b2Vec2
R6a:__ZN12SpriteBinder8addChildEP9lua_State
DCb:_png_set_rgb_to_gray
Ht:_emscripten_idb_async_exists
fjc:_tt_cmap14_ensure
Pud:__ZNSt3__215time_get_bynameIwNS_19istreambuf_iteratorIwNS_11char_traitsIwEEEEEC2EPKcj
Axa:__ZNK16b2PrismaticJoint10GetAnchorAEv
UTa:__ZN8Viewport12getTransformEv
$9c:__ZNSt3__222__release_shared_countclEPNS_14__shared_countE
cvb:_z_gzgetc_
gc:ftCall_viiidddiiddi
Csd:__ZNKSt3__215__codecvt_utf16IDiLb0EE9do_lengthER11__mbstate_tPKcS5_j
uK:__ZN10MouseEventC2ERK9EventTypeIS_Eiiffff
PHc:__ZN12_GLOBAL__N_1L16register_integerIsEEvPKc
$7b:__ZN8pystring2os4path7join_ntERKNSt3__26vectorINS2_12basic_stringIcNS2_11char_traitsIcEENS2_9allocatorIcEEEENS7_IS9_EEEE
TSc:_ilogb
Chc:_Decompose_Curve
JJa:__ZN12_GLOBAL__N_117FixedSetAllocatorC2EP16b2StackAllocator
P4:__ZN10Tesselator16VertexCallback_sEPvS0_
U6c:__ZNSt3__26__sortIRNS_6__lessIhhEEPhEEvT0_S5_T_
X2a:__ZN12Box2DBinder214b2Body_getTypeEP9lua_State
WLc:_ctanl
JHa:__ZZN16b2ParticleSystem41UpdatePairsAndTriadsWithReactiveParticlesEvEN14ReactiveFilterC2EPj
Aia:__ZL7move_toP12reduced_pathff
Mlb:__ZNSt3__23mapINS_12basic_stringIcNS_11char_traitsIcEENS_9allocatorIcEEEE13GGAudioLoaderNS_4lessIS6_EENS4_INS_4pairIKS6_S7_EEEEED2Ev
SLc:_ctanf
tsd:__ZNSt3__2L22utf16le_to_ucs2_lengthEPKhS1_jmNS_12codecvt_modeE
Rc:RegisteredPointer_deleteObject
v2b:__ZL9read_lineP9lua_StateP8g__sFILE
AMb:_jpeg_set_defaults
Zia:__ZN6Path2D10setTextureEP11TextureBasePK7Matrix4
LBc:_FT_Get_Sfnt_Table
zVa:__ZN10MeshBinder20setTextureCoordinateEP9lua_State
wId:__ZNKSt3__212basic_stringIwNS_11char_traitsIwEENS_9allocatorIwEEE5rfindERKS5_j
Ts:_emscripten_glUniform1iv
ovb:_z_gzdopen
LAa:__ZN15b2DistanceProxy3SetEPK7b2Shapei
gv:_emscripten_vibrate
Hoc:_TT_Process_Composite_Glyph
FWd:_glfwSwapBuffers__wrapper
xXd:_glTexParameteri__wrapper
Wnc:_af_property_get_face_globals
tgb:__ZN9g_private12TimerManagerD2Ev
Ir:_emscripten_glGetBufferParameteriv
_a:ftCall_iiiiiiiiiiiii
Bad:__ZNSt3__215basic_streambufIcNS_11char_traitsIcEEE9showmanycEv
qD:_posix_spawnp
EBb:_png_set_invert_mono
xpb:__ZNSt3__26__treeINS_12__value_typeIi8FileInfoEENS_19__map_value_compareIiS3_NS_4lessIiEELb1EEENS_9allocatorIS3_EEE16__construct_nodeIJRKNS_21piecewise_construct_tENS_5tupleIJRKiEEENSF_IJEEEEEENS_10unique_ptrINS_11__tree_nodeIS3_PvEENS_22__tree_node_destructorINS8_ISN_EEEEEEDpOT_
y_b:__ZL10leaveblockP9FuncState
wra:__ZNSt3__26__treeINS_12__value_typeINS_12basic_stringIcNS_11char_traitsIcEENS_9allocatorIcEEEES7_EENS_19__map_value_compareIS7_S8_NS_4lessIS7_EELb1EEENS5_IS8_EEEC2ERKSC_
nUa:__ZN12ShaderBinder13getPropertiesEP9lua_State
MYc:___pthread_self_450
fKb:_jpeg_fdct_3x6
Yhb:__ZN9g_private14TextureManager4tickEv
dIc:__ZN12_GLOBAL__N_1L20register_memory_viewItEEvPKc
JJb:_jpeg_fdct_3x3
Rgd:__ZNSt3__214basic_iostreamIcNS_11char_traitsIcEEEC2EPNS_15basic_streambufIcS2_EE
nYa:__ZN11GGUrlLoaderD2Ev
pLa:__ZNK6b2AABB9GetCenterEv
OZa:__ZN17ApplicationBinder3setEP9lua_State
N3:__ZNKSt3__26vectorIN8TTBMFont8FontFaceENS_9allocatorIS2_EEE8max_sizeEv
KAd:__ZNSt3__215recursive_mutexD2Ev
EMd:__ZNSt3__219__thread_struct_impD2Ev
QUa:__ZN12_GLOBAL__N_114GGSoundChannel9isLoopingEv
Bmb:__ZNSt3__26__treeIPN14GGSoundManager7ChannelENS_4lessIS3_EENS_9allocatorIS3_EEE16__construct_nodeIJRKS3_EEENS_10unique_ptrINS_11__tree_nodeIS3_PvEENS_22__tree_node_destructorINS6_ISF_EEEEEEDpOT_
F4c:_swab
nOb:__ZN10ByteBuffer6appendEf
jXc:_arg_n
q0b:_luaL_callmeta
xra:__ZNSt3__23mapINS_12basic_stringIcNS_11char_traitsIcEENS_9allocatorIcEEEES6_NS_4lessIS6_EENS4_INS_4pairIKS6_S6_EEEEEixERSA_
Es:_emscripten_glStencilFunc
$Ya:__ZN17ApplicationBinderC2EP9lua_State
kNb:__ZN11NetworkBaseC2Ev
Flc:_gray_conic_to
_l:_alDistanceModel
Nsb:__ZNKSt3__26__treeINS_12basic_stringIcNS_11char_traitsIcEENS_9allocatorIcEEEENS_4lessIS6_EENS4_IS6_EEE10__root_ptrEv
mNb:__ZNSt3__212__deque_baseIP12QueueElementNS_9allocatorIS2_EEED2Ev
z0a:__ZN12Box2DBinder224b2RopeJoint_getMaxLengthEP9lua_State
qod:__ZNSt3__29money_putIcNS_19ostreambuf_iteratorIcNS_11char_traitsIcEEEEED2Ev
H_c:_recvmmsg
X1a:__ZN12Box2DBinder225b2RevoluteJoint_setLimitsEP9lua_State
hZc:_getifaddrs
Cvd:__ZNKSt3__210moneypunctIcLb1EE13decimal_pointEv
AJc:_malloc_footprint
fOa:__ZNSt3__212__rotate_gcdIP6b2Vec2EET_S3_S3_S3_
KNc:___isdigit_l
PMb:_jpeg_copy_critical_parameters
dKc:_strtoul_l
kD:_pathconf
$E:_siglongjmp
uIc:__ZN10emscripten8internal11LightTypeIDINS_11memory_viewIlEEE3getEv
IHc:__GLOBAL__sub_I_bind_cpp
DLc:___FLOAT_BITS
Xja:__ZN17ProjectPropertiesD2Ev
Rlb:__ZNSt3__26__treeINS_12__value_typeImPN14GGSoundManager5SoundEEENS_19__map_value_compareImS5_NS_4lessImEELb1EEENS_9allocatorIS5_EEE7destroyEPNS_11__tree_nodeIS5_PvEE
qcc:_add_id3_text
iud:__ZNKSt3__28time_getIcNS_19istreambuf_iteratorIcNS_11char_traitsIcEEEEE10date_orderEv
ZJc:___shgetc
Q9c:__ZNSt3__217__assoc_sub_state24set_value_at_thread_exitEv
iWa:__ZNSt3__214__split_bufferIjRNS_9allocatorIjEEED2Ev
P4b:__ZL8math_absP9lua_State
Aod:__ZNSt3__211__money_putIwE13__gather_infoEbbRKNS_6localeERNS_10money_base7patternERwS8_RNS_12basic_stringIcNS_11char_traitsIcEENS_9allocatorIcEEEERNS9_IwNSA_IwEENSC_IwEEEESJ_Ri
l6:___cxx_global_var_init_252
bJb:_empty_output_buffer
dXd:_glBindFramebuffer__wrapper
mCc:_FT_Outline_Embolden
EJc:_mallinfo
VUa:__ZN12_GLOBAL__N_114GGSoundChannel19isPitchingAvailableEv
p$a:__ZN16b2ParticleSystem20GetParticleGroupListEv
oLc:_cexpf
qN:__ZL8logo2dibP11ApplicationPhjii
fjd:__ZNKSt3__27num_getIwNS_19istreambuf_iteratorIwNS_11char_traitsIwEEEEE6do_getES4_S4_RNS_8ios_baseERjRe
W7a:__ZN12SpriteBinder9setMatrixEP9lua_State
Nad:__ZNSt3__215basic_streambufIwNS_11char_traitsIwEEE7seekposENS_4fposI11__mbstate_tEEj
esa:__ZN10emscripten8internal11BindingTypeIiE10toWireTypeERKi
FTb:_unzGoToFilePos
RIa:__ZNSt3__220__half_inplace_mergeINS_8__negateIRPFbRKN16b2ParticleSystem4PairES5_EEENS_16reverse_iteratorIPS3_EESC_SC_EEvT0_SD_T1_SE_T2_T_
Sf:_SDL_SetColors
Jjd:__ZNSt3__29__num_putIcE23__widen_and_group_floatEPcS2_S2_S2_RS2_S3_RKNS_6localeE
u_b:__ZL12indexupvalueP9FuncStateP7TStringP7expdesc
Pb:invoke_viidddddd
emc:_af_latin_get_standard_widths
wp:_emscripten_coroutine_next
MOa:__ZZN16b2ParticleSystem23DestroyParticlesInShapeERK7b2ShapeRK11b2TransformbEN31DestroyParticlesInShapeCallbackD0Ev
f9b:__ZN6snappyL25InternalUncompressAllTagsINS_17SnappyArrayWriterEEEbPNS_18SnappyDecompressorEPT_jj
lB:_gluOrtho2D
oMb:_reduce_script
Nzd:__ZNSt3__26locale5__impC2ERKS1_PNS0_5facetEl
FT:__ZN12VertexBufferItEC2ERKS0_
wZb:__ZL14luaK_goiffalseP9FuncStateP7expdesc
j_b:__ZL10getcompopri
Nh:___cxa_throw
$ra:__ZN10emscripten8internal17DestructorsRunnerD2Ev
EYa:__ZN9AutoUnref7releaseEv
cF:_sigprocmask
vrb:__ZNSt3__26__treeINS_12basic_stringIcNS_11char_traitsIcEENS_9allocatorIcEEEENS_4lessIS6_EENS4_IS6_EEE7destroyEPNS_11__tree_nodeIS6_PvEE
yhb:__ZNSt3__26vectorIPhNS_9allocatorIS1_EEEC2Ej
UPb:__ZNK11CPVRTString16find_last_not_ofERKS_j
UFa:__ZN15b2ContactSolver24SolveVelocityConstraintsEv
Kz:_glVertexAttrib1f
zBb:_png_set_scale_16
Dtb:_build_tree
_Z:__ZN9ParameterC2Eiff9TweenType
Vzd:__ZNSt3__26localeC2ERKS0_PKci
pL:__ZN5Stage10mouseWheelEiiiffffi
vTa:__ZN11PixelBinder15setTextureScaleEP9lua_State
OUb:__ZL11removeentryP4Node
m8c:__ZNSt3__212__rs_defaultD2Ev
_Cb:_png_set_invalid
UDa:__ZN16b2ParticleSystem10FreeBufferINS_5TriadEEEvPPT_i
yrc:_Ins_MAX
mvc:_cf2_getFamilyOtherBlues
O8c:__ZNSt3__227__libcpp_set_debug_functionEPFvRKNS_19__libcpp_debug_infoEE
xpc:_Move_CVT
p_c:_is_valid_hostname
Red:__ZNSt3__213basic_istreamIwNS_11char_traitsIwEEEC1EPNS_15basic_streambufIwS2_EE
r7c:__ZNSt3__27__sort3IRNS_6__lessIjjEEPjEEjT0_S5_S5_T_
cZb:__ZL10code_labelP9FuncStateiii
Qjd:__ZNKSt3__27num_putIwNS_19ostreambuf_iteratorIwNS_11char_traitsIwEEEEE6do_putES4_RNS_8ios_baseEwx
Sm:_alSource3f
Tm:_alSource3i
Sjd:__ZNKSt3__27num_putIwNS_19ostreambuf_iteratorIwNS_11char_traitsIwEEEEE6do_putES4_RNS_8ios_baseEwy
HZ:__ZN9MovieClip8setFieldEi9Parameterf
wja:__ZN14NetworkManagerC2EP18ApplicationManager
eIc:__ZN12_GLOBAL__N_1L20register_memory_viewIiEEvPKc
iMd:__ZNSt3__212system_errorD0Ev
mR:__ZNK5GMesh18getVertexArraySizeEv
FUa:__ZN11AudioBinder21SoundChannel_setPitchEP9lua_State
bgb:__Z18drawInfoResolutioniiiiibPfS_iiff
A6a:__ZN17TexturePackBinder11getLocationEP9lua_State
aaa:__ZNSt3__214__split_bufferIPPK6SpriteRNS_9allocatorIS4_EEED2Ev
Xn:_clock
ywd:__ZNSt3__217moneypunct_bynameIwLb1EEC2ERKNS_12basic_stringIcNS_11char_traitsIcEENS_9allocatorIcEEEEj
wya:__ZN11b2WeldJointD0Ev
IEd:__ZNSt3__212basic_stringIcNS_11char_traitsIcEENS_9allocatorIcEEE7replaceENS_11__wrap_iterIPKcEES9_S8_j
v7:__ZN14TimerContainer23queueTimerCompleteEventEP5Timer
Ktc:_cf2_glyphpath_init
fBa:__Z6b2SwapIfEvRT_S1_
cPc:_readdir
P$c:_regcomp
fid:__ZNKSt3__27num_getIcNS_19istreambuf_iteratorIcNS_11char_traitsIcEEEEE6do_getES4_S4_RNS_8ios_baseERjS8_
OJa:__ZNSt3__218__insertion_sort_3IRNS_6__lessIN16b2ParticleSystem5ProxyES3_EEPS3_EEvT0_S7_T_
BQb:_KillFace
Xcd:__ZNSt3__215basic_streambufIcNS_11char_traitsIcEEE8in_availEv
ued:__ZNSt3__213basic_istreamIcNS_11char_traitsIcEEErsERd
djd:__ZNKSt3__27num_getIwNS_19istreambuf_iteratorIwNS_11char_traitsIwEEEEE6do_getES4_S4_RNS_8ios_baseERjRf
gQc:___gettextdomain
OQ:__ZNSt3__26vectorIN5GMesh5ColorENS_9allocatorIS2_EEE8__appendEj
Vta:__Z15resize_callbackiPK17EmscriptenUiEventPv
rzd:__ZNSt3__26locale5__imp12install_fromINS_7codecvtIDic11__mbstate_tEEEEvRKS1_
aOb:__Z15eventCodeString9EventCode
m$:__ZL26qt_smoothBeginEndMixFactord
p8c:__ZNSt3__223mersenne_twister_engineIjLj32ELj624ELj397ELj31ELj2567483615ELj11ELj4294967295ELj7ELj2636928640ELj15ELj4022730752ELj18ELj1812433253EEclEv
Qyd:__ZNSt3__215numpunct_bynameIcEC2ERKNS_12basic_stringIcNS_11char_traitsIcEENS_9allocatorIcEEEEj
zl:__inet_pton6
Reb:__ZNSt3__26__treeINS_12__value_typeIPvP11GReferencedEENS_19__map_value_compareIS2_S5_NS_4lessIS2_EELb1EEENS_9allocatorIS5_EEE13__lower_boundIS2_EENS_15__tree_iteratorIS5_PNS_11__tree_nodeIS5_S2_EEiEERKT_SH_PNS_15__tree_end_nodeIPNS_16__tree_node_baseIS2_EEEE
Rjd:__ZNKSt3__27num_putIwNS_19ostreambuf_iteratorIwNS_11char_traitsIwEEEEE6do_putES4_RNS_8ios_baseEwm
Uzc:_ft_stroke_border_export
NLa:__ZNK7b2World14GetTreeQualityEv
xOc:___iswupper_l
g9b:__ZN6snappy17SnappyArrayWriter17SetExpectedLengthEj
vAd:__ZNSt3__219__shared_weak_count4lockEv
xQ:__ZL8setColorffff
by:_glGenerateMipmap
elb:_gevent_EnqueueEvent
qY:__ZN11TextureBaseC2EP11Application
ME:_sem_trywait
rFc:_smix_mono_8bit_spline
GJ:__ZNSt3__26vectorIN9Particles5ColorENS_9allocatorIS2_EEE26__swap_out_circular_bufferERNS_14__split_bufferIS2_RS4_EE
Mbb:__ZNSt3__26__treeINS_12__value_typeIiNS_6vectorIP12CppLuaBridgeNS_9allocatorIS4_EEEEEENS_19__map_value_compareIiS8_NS_4lessIiEELb1EEENS5_IS8_EEE7destroyEPNS_11__tree_nodeIS8_PvEE
f3:__ZNK8TTBMFont7kerningEii
wTd:___divdi3
VY:__ZN13GridBagLayout17lookupConstraintsEP6Sprite
r9c:__ZNKSt3__211__libcpp_db15__subscriptableEPKvi
Tsd:__ZNKSt3__220__codecvt_utf8_utf16IwE13do_max_lengthEv
NQa:__ZN14LuaApplication18Core_profilerStartEP9lua_State
ucb:__ZN8MemCache14AllocateMemoryEj
bN:__ZN7TextureC2EP11ApplicationPKc6Filter4Wrap6Formatbjb
Lcd:__ZNSt3__215basic_streambufIwNS_11char_traitsIwEEE8pubimbueERKNS_6localeE
g6b:__ZL7os_exitP9lua_State
pcd:__ZNKSt3__29basic_iosIwNS_11char_traitsIwEEE4failEv
mUb:__ZL8markrootP9lua_State
IP:__ZN8Matrix2D3setEffffff
tZb:__ZL12constfolding6OpCodeP7expdescS1_
cdd:__ZNSt3__215basic_streambufIcNS_11char_traitsIcEEE5sputcEc
KSb:_ComputeNormal_92
qnc:_af_cjk_hints_compute_segments
E7b:__ZN8pystring5zfillERKNSt3__212basic_stringIcNS0_11char_traitsIcEENS0_9allocatorIcEEEEi
VWc:___ofl_add
YQb:___gl_renderBoundary
f6a:__ZN11StageBinder18getBackgroundColorEP9lua_State
HYc:_mbstowcs
HT:__ZN12VertexBufferIhEC2ERKS0_
M9a:__ZN11TimerBinder4stopEP9lua_State
x7:__ZNSt3__26removeINS_16__deque_iteratorINS_4pairIP5TimeriEEPS5_RS5_PS6_iLi0EEES5_EET_SA_SA_RKT0_
cY:__ZN5Pixel6doDrawERK7Matrix4ffff
Uqa:__ZNSt3__26__treeINS_12__value_typeImPN21GGSampleOpenALManager7ChannelEEENS_19__map_value_compareImS5_NS_4lessImEELb1EEENS_9allocatorIS5_EEE7destroyEPNS_11__tree_nodeIS5_PvEE
kTb:_unz64local_getLong64
J6a:__ZN13TextureBinder8destructEP9lua_State
n0c:_tre_copy_ast
Pa:invoke_iiiiiiii
m4c:_twobyte_memmem
yC:_llvm_log_f64
Ie:_SDL_GetNumAudioDrivers
_x:_glGenTextures
rH:FUNCTION_TABLE_iiiiii
Pkc:_ft_module_get_service
tYc:_shm_open
Wtd:__ZNKSt3__27num_putIcNS_19ostreambuf_iteratorIcNS_11char_traitsIcEEEEE3putES4_RNS_8ios_baseEcd
pGb:_jinit_arith_decoder
ZKb:_start_pass_coef
qH:FUNCTION_TABLE_iiiiid
jYa:__ZNSt3__214__split_bufferINS_4pairINS_12basic_stringIcNS_11char_traitsIcEENS_9allocatorIcEEEES7_EERNS5_IS8_EEEC2EjjSA_
zf:_SDL_MapRGB
Jqa:__ZNSt3__26__treeINS_12__value_typeImPN21GGSampleOpenALManager7ChannelEEENS_19__map_value_compareImS5_NS_4lessImEELb1EEENS_9allocatorIS5_EEE14__erase_uniqueImEEjRKT_
THc:__ZN12_GLOBAL__N_1L16register_integerIlEEvPKc
kgd:__ZNSt3__213basic_ostreamIcNS_11char_traitsIcEEEC2Ev
Ycc:_mpg123_init
kMa:__ZN6b2Body9SetActiveEb
RFb:_jpeg_destroy_decompress
sBa:__ZN13b2DynamicTree10InsertLeafEi
Pja:__ZN17ProjectPropertiesC2Ev
yob:_gaudio_BackgroundMusicGetLength
dLc:_ccosf
BRb:___gl_meshSplitEdge
htb:_z_compress2
lJ:__ZNSt3__26vectorINS_12basic_stringIcNS_11char_traitsIcEENS_9allocatorIcEEEENS4_IS6_EEE6resizeEj
iSd:runPostSets5
WI:___clang_call_terminate
HO:__ZN16GiderosExceptionC2ERK7GStatus
Cpd:__ZNKSt3__27codecvtIDsc11__mbstate_tE13do_max_lengthEv
tnd:__ZNKSt3__217moneypunct_bynameIcLb1EE16do_decimal_pointEv
G8c:__ZNSt3__229__libcpp_abort_debug_functionERKNS_19__libcpp_debug_infoE
mSd:runPostSets9
AOb:__ZN10ByteBuffer3getERNSt3__212basic_stringIcNS0_11char_traitsIcEENS0_9allocatorIcEEEE
oy:_glGetQueryObjecti64vEXT
TEb:_jinit_memory_mgr
f3b:__ZL4LnegP9lua_State
uXa:__ZN13GGGeolocation20startUpdatingHeadingEv
MC:_llvm_pow_f64
u5:__ZNSt3__214__split_bufferIP9BlendFuncRNS_9allocatorIS2_EEE9push_backEOS2_
sod:__ZNKSt3__29money_putIcNS_19ostreambuf_iteratorIcNS_11char_traitsIcEEEEE6do_putES4_bRNS_8ios_baseEce
cXa:__ZN11GGGyroscopeD2Ev
alc:_inflate
W2b:__ZL4PgetP9lua_Statei
$Nb:__ZN6Client4tickEP12NetworkEvent
f0c:_tre_stack_pop_voidptr
Ggc:_ft_bitmap_glyph_init
G1:__ZN11TTTextFieldD0Ev
S3c:_strtold_l
NLb:_forward_DCT_float
$4:__ZN10Tesselator15CombineCallbackEPdPS0_PfS1_
Sza:__ZNK19b2IntrusiveListNode7GetNextEv
QDb:_png_write_tIME
bw:_fabsl
pa:invoke_diiiid
knb:__ZN14GGAudioManager11SoundDeleteEm
U8a:__ZN12MatrixBinder6setM12EP9lua_State
aD:_localtime_r
aw:_fabsf
qC:_llvm_floor_f32
Yx:_glGenQueriesEXT
N5b:__ZL12matchbalanceP10MatchStatePKcS2_
k7a:__ZN12SpriteBinder12getRotationYEP9lua_State
hNb:__ZN6snappy22UncheckedByteArraySinkD0Ev
dJa:__ZN17b2ParticlePairSet10InitializeEPK17b2ParticleContactiPKj
Vgd:__ZNSt3__214basic_iostreamIcNS_11char_traitsIcEEEaSEOS3_
n7a:__ZN12SpriteBinder9getScaleZEP9lua_State
kF:_strftime
uMb:_jpeg_write_raw_data
Kqd:__ZNKSt3__28numpunctIwE11do_truenameEv
JAd:__ZNSt3__215recursive_mutexC2Ev
j3a:__ZN12Box2DBinder221b2Body_getLocalVectorEP9lua_State
cy:_glGetActiveAttrib
Eg:_TTF_FontLineSkip
X_c:___ipparse
xrd:__ZNSt3__2L12ucs2_to_utf8EPKtS1_RS1_PhS3_RS3_mNS_12codecvt_modeE
wB:_glutInit
zTd:___remdi3
$xa:__ZNK15b2FrictionJoint10GetAnchorBEv
hgc:_mpg123_id3
YS:__ZNKSt3__26vectorIN8FontBase11ChunkLayoutENS_9allocatorIS2_EEE8max_sizeEv
ind:__ZNKSt3__217moneypunct_bynameIcLb0EE16do_decimal_pointEv
uxd:__ZNSt3__26locale5__imp7installINS_5ctypeIwEEEEvPT_
qed:__ZNSt3__213basic_istreamIcNS_11char_traitsIcEEErsERm
V$b:__ZL11callallgcTMP9lua_StatePv
dVd:mftCall_viidii
A9c:__ZNSt16nested_exceptionC2Ev
tad:__ZNSt3__29basic_iosIwNS_11char_traitsIwEEED0Ev
_Ca:__ZN23b2ChainAndCircleContact7DestroyEP9b2ContactP16b2BlockAllocator
GUd:mftCall_v
$Yb:_luaK_concat
HM:__ZN7Matrix43rawEv
Jrd:__ZNKSt3__215__codecvt_utf16IwLb0EE10do_unshiftER11__mbstate_tPcS4_RS4_
zZ:__ZNSt3__26vectorIdNS_9allocatorIdEEE6assignIPdEENS_9enable_ifIXaasr21__is_forward_iteratorIT_EE5valuesr16is_constructibleIdNS_15iterator_traitsIS7_E9referenceEEE5valueEvE4typeES7_S7_
lRb:_GotoState
lWa:__ZN21TextInputDialogBinder8destructEP9lua_State
fUd:mftCall_d
qgb:__ZNSt3__26__treeINS_12__value_typeIiN9g_private12TimerManager12TimerElementEEENS_19__map_value_compareIiS5_NS_4lessIiEELb1EEENS_9allocatorIS5_EEED2Ev
Dtd:__ZNKSt3__27num_getIcNS_19istreambuf_iteratorIcNS_11char_traitsIcEEEEE3getES4_S4_RNS_8ios_baseERjRPv
qwd:__ZNSt3__217moneypunct_bynameIwLb0EE4initEPKc
c5b:__ZL8math_logP9lua_State
_Hc:__ZN10emscripten8internal6TypeIDINS_3valEE3getEv
zfb:__ZNSt3__25stackINS_12basic_stringIcNS_11char_traitsIcEENS_9allocatorIcEEEENS_5dequeIS6_NS4_IS6_EEEEED2Ev
TAb:_png_set_IHDR
Eqd:__ZNKSt3__28numpunctIcE12do_falsenameEv
aPa:__ZZN16b2ParticleSystem33CreateParticlesWithShapesForGroupEPKPK7b2ShapeiRK18b2ParticleGroupDefRK11b2TransformENK14CompositeShape9TestPointESA_RK6b2Vec2
UJd:__ZNSt3__212_GLOBAL__N_18as_floatIfNS_12basic_stringIcNS_11char_traitsIcEENS_9allocatorIcEEEEEET_RKS7_RKT0_Pj
_Ua:__ZN12_GLOBAL__N_114GGSoundChannel11getPositionEv
Zoc:_ft_var_readpackedpoints
dZa:__ZN17ApplicationBinder16getLogicalHeightEP9lua_State
KTb:_unzOpenCurrentFile2
mUa:__ZN12ShaderBinder9enableVBOEP9lua_State
QGb:_decode_mcu_AC_first_5
Rmb:__ZN14GGSoundManager18ChannelGetStreamIdEm
HSb:___gl_pqSortInit
MKb:_jpeg_start_compress
ZTc:___lgammal_r
rMc:_sha512_sum
Ga:ftCall_iiiii
gKa:__ZNSt3__27__sort5IRPFbRK21b2ParticleBodyContactS3_EPS1_EEjT0_S8_S8_S8_S8_T_
jC:_llvm_eh_typeid_for
rLc:_cimagf
Woc:_ft_trig_downscale
Vc:_IMG_Init
Pmb:__ZN14GGSoundManager16ChannelSetVolumeEmf
zEd:__ZNSt3__212basic_stringIcNS_11char_traitsIcEENS_9allocatorIcEEE5eraseENS_11__wrap_iterIPKcEES9_
RDa:__ZN16b2ParticleSystem10FreeBufferI17b2ParticleContactEEvPPT_i
sLc:_cimagl
Tg:_XOpenDisplay
rT:__ZNKSt3__26__treeINS_12__value_typeINS_4pairIiiEEiEENS_19__map_value_compareIS3_S4_NS_4lessIS3_EELb1EEENS_9allocatorIS4_EEE4findIS3_EENS_21__tree_const_iteratorIS4_PNS_11__tree_nodeIS4_PvEEiEERKT_
P4a:__ZN21b2DestructionListener10SayGoodbyeEP16b2ParticleSystemi
Dla:__ZNSt3__24pairIKjNS_6vectorIP17ginput_TouchEventNS_9allocatorIS4_EEEEED2Ev
kJb:_skip_input_data
dMa:__ZNK9b2Fixture11GetMassDataEP10b2MassData
mr:_emscripten_glDrawElementsInstancedNV
OXa:__ZNSt3__26vectorINS_4pairINS_12basic_stringIcNS_11char_traitsIcEENS_9allocatorIcEEEES7_EENS5_IS8_EEE21__push_back_slow_pathIS8_EEvOT_
_7b:__ZNSt3__26vectorINS_12basic_stringIcNS_11char_traitsIcEENS_9allocatorIcEEEENS4_IS6_EEEC2Ej
_7c:__ZNSt3__26__sortIRNS_6__lessIddEEPdEEvT0_S5_T_
mrb:_g_p_close
SVa:__ZN10MeshBinder17getIndexArraySizeEP9lua_State
bdc:_mpg123_parnew
LD:_pthread_condattr_destroy
Jm:_alIsEnabled
_7:__ZNSt3__214__split_bufferIcRNS_9allocatorIcEEEC2EjjS3_
pac:_mpg123_format_support
WEd:__ZNKSt3__212basic_stringIcNS_11char_traitsIcEENS_9allocatorIcEEE4findEcj
MJc:___errno_location
_Db:_png_create_write_struct
TK:__ZNK9EventTypeI13KeyboardEventE2idEv
dMc:_strcmp
ns:_emscripten_glIsShader
h1a:__ZN12Box2DBinder222b2MouseJoint_getTargetEP9lua_State
vD:_pthread_attr_getstack
Yvc:_cff_done_blend
Mrb:___swhatbuf
w3b:__ZL9Lutf8_subP9lua_State
C9c:__ZNKSt16nested_exception14rethrow_nestedEv
gRb:_noEnd
FDa:__ZN16b2ParticleSystem20DestroyParticleGroupEP15b2ParticleGroup
H3:__ZN8TTBMFont11constructorENSt3__26vectorIN8FontBase8FontSpecENS0_9allocatorIS3_EEEEfPKcf
Wvd:__ZNKSt3__210moneypunctIwLb1EE13decimal_pointEv
Yic:_tt_cmap14_variants
zw:_getprotobynumber
bQc:_strlen
fUa:__ZN12ShaderBinderC2EP9lua_State
i6c:_setgid
pIb:_start_pass_2_quant
EZa:__ZN17ApplicationBinder4exitEP9lua_State
z4c:_strndup
K2c:_wms_close
lbc:_mpg123_delete_pars
ZEa:__ZN7b2JointC2EPK10b2JointDef
xQc:___loc_is_allocated
zHa:__ZNK15b2ParticleGroup18GetAngularVelocityEv
$Ra:__ZN11ProfileInfoC2Ev
ht:_emscripten_glUseProgram
hE:_pthread_rwlock_destroy
J1c:___fgetwc_unlocked
g$c:_nrand48
J4:__ZN10TesselatorC2Ev
GYa:__ZNSt3__26vectorI9ParameterNS_9allocatorIS1_EEE21__push_back_slow_pathIS1_EEvOT_
i8:__ZN6SpriteD2Ev
JPd:__ZNSt3__2plIcNS_11char_traitsIcEEN10__cxxabiv112_GLOBAL__N_112malloc_allocIcEEEENS_12basic_stringIT_T0_T1_EERKSB_PKS8_
URb:___gl_pqHeapDeletePriorityQ
WU:__ZNSt3__26__treeINS_12__value_typeINS_4pairIiiEEiEENS_19__map_value_compareIS3_S4_NS_4lessIS3_EELb1EEENS_9allocatorIS4_EEE12__find_equalIS3_EERPNS_16__tree_node_baseIPvEERPNS_15__tree_end_nodeISG_EERKT_
GTb:_unzOpenCurrentFile3
XW:__ZNSt3__26vectorINS_4pairINS_12basic_stringIcNS_11char_traitsIcEENS_9allocatorIcEEEEfEENS5_IS8_EEE18__construct_at_endIPS8_EENS_9enable_ifIXsr21__is_forward_iteratorIT_EE5valueEvE4typeESE_SE_j
Wub:_z_gzread
lQb:__ZplRK11CPVRTStringPKc
U4b:__ZL9math_ceilP9lua_State
UIc:__ZN10emscripten8internal11LightTypeIDIlE3getEv
SYa:__ZN11ShapeBinder8destructEP9lua_State
dXc:_ferror
XSd:runPostSets46
MYa:__ZN12MovieClipLuaD2Ev
ABa:__ZN13b2DynamicTree12DestroyProxyEi
oq:_emscripten_glBindVertexArrayOES
wGd:__ZNSt3__212basic_stringIwNS_11char_traitsIwEENS_9allocatorIwEEEaSEOS5_
SSd:runPostSets41
xDa:__ZNSt3__227__insertion_sort_incompleteIRPFbRK6b2PairS3_EPS1_EEbT0_S8_T_
TZc:_inet_lnaof
cNc:_strnlen
lS:__ZNSt3__214__split_bufferI8RectSizeRNS_9allocatorIS1_EEEC2EjjS4_
_Sd:runPostSets49
YC:_llvm_trunc_f64
hyb:_png_get_y_offset_pixels
Jld:__ZNSt3__210__time_getD2Ev
LF:_uuid_unparse_lower
Rib:_gtexture_setUserData
umd:__ZNKSt3__210moneypunctIcLb0EE11do_groupingEv
UW:__ZNSt3__214__split_bufferIN11Application10ImageScaleERNS_9allocatorIS2_EEEC2EjjS5_
lEa:__ZL13LimitCapacityii
tjd:__ZNKSt3__27num_getIwNS_19istreambuf_iteratorIwNS_11char_traitsIwEEEEE15__do_get_signedIlEES4_S4_S4_RNS_8ios_baseERjRT_
Yzd:__ZNKSt3__26locale4nameEv
oQb:__ZplcRK11CPVRTString
osa:__ZN10emscripten8internal11LightTypeIDIbE3getEv
lgb:__ZNSt3__23mapIiN9g_private12TimerManager12TimerElementENS_4lessIiEENS_9allocatorINS_4pairIKiS3_EEEEED2Ev
xld:__ZNKSt3__215time_get_bynameIcNS_19istreambuf_iteratorIcNS_11char_traitsIcEEEEE3__cEv
fZ:__ZNKSt3__26vectorIdNS_9allocatorIdEEE8max_sizeEv
su:_emscripten_set_element_css_size
MZc:_netlink_msg_to_nameindex
$ba:__ZN9Transform9setScaleYEf
HEc:_note_to_period_mix
Wm:_alSourcePlay
CPd:__ZNSt3__212basic_stringIcNS_11char_traitsIcEEN10__cxxabiv112_GLOBAL__N_112malloc_allocIcEEEC2ERKS7_jjRKS6_
HMc:_fmt_o
R2b:_luaopen_string
Vra:__ZN10emscripten8internal12MethodCallerIiJNS_3valES2_RS2_S2_S2_S2_iiiEE4callEPNS0_7_EM_VALEPKcOS2_S9_S3_S9_S9_S9_OiSA_SA_
RWc:_setmntent
Gob:_gaudio_BackgroundChannelSetVolume
G4a:__ZN9b2WorldED18SetContactListenerEP17b2ContactListener
zhc:_InsNew
SLb:_expand_bottom_edge
WBd:__ZNSt3__218shared_timed_mutex8try_lockEv
$Hd:__ZNSt3__212basic_stringIwNS_11char_traitsIwEENS_9allocatorIwEEE7replaceEjjRKS5_jj
CRd:__ZN10__cxxabiv112_GLOBAL__N_111string_pairC2ILj8EEERAT__Kc
lEc:_virt_resetvoice
tid:__ZNKSt3__26locale5__imp9has_facetEl
Up:_emscripten_get_main_loop_timing
ELb:_encode_mcu_DC_first
Kfc:_mpg123_decode_frame
r_:__ZL13easeInOutCircd
J2:__ZNSt3__26__treeINS_12__value_typeIiN6TTFont9GlyphDataEEENS_19__map_value_compareIiS4_NS_4lessIiEELb1EEENS_9allocatorIS4_EEE25__emplace_unique_key_argsIiJRKNS_21piecewise_construct_tENS_5tupleIJRKiEEENSG_IJEEEEEENS_4pairINS_15__tree_iteratorIS4_PNS_11__tree_nodeIS4_PvEEiEEbEERKT_DpOT0_
K1a:__ZN12Box2DBinder226b2PrismaticJoint_setLimitsEP9lua_State
uzc:_ft_pos_abs
Mw:_glBindRenderbuffer
USa:__ZN15ParticlesBinder16getParticleColorEP9lua_State
gX:__ZNSt3__26__treeIP6TickerNS_4lessIS2_EENS_9allocatorIS2_EEE16__construct_nodeIJRKS2_EEENS_10unique_ptrINS_11__tree_nodeIS2_PvEENS_22__tree_node_destructorINS5_ISE_EEEEEEDpOT_
_Kd:__ZNKSt3__212_GLOBAL__N_114initial_stringINS_12basic_stringIwNS_11char_traitsIwEENS_9allocatorIwEEEEyLb0EEclEv
D3:__ZNSt3__23mapIiN8TTBMFont12TextureGlyphENS_4lessIiEENS_9allocatorINS_4pairIKiS2_EEEEED2Ev
H9b:__ZNK6snappy22UncheckedByteArraySink18CurrentDestinationEv
hEa:__ZN16b2ParticleSystem13SetGroupFlagsEP15b2ParticleGroupj
qUa:__ZN18RenderTargetBinder8destructEP9lua_State
Irc:_Ins_Goto_CodeRange
iv:_emscripten_vr_cancel_display_render_loop
Of:_SDL_SaveBMP_RW
OPa:__GLOBAL__sub_I_luaapplication_cpp
_:getTempRet0
q9a:__ZN12MatrixBinder9getScaleXEP9lua_State
wwc:_ft_mem_dup
$W:__ZNSt3__24pairINS_12basic_stringIcNS_11char_traitsIcEENS_9allocatorIcEEEEfEC2ERKS7_
f8c:__ZNSt3__27__sort3IRNS_6__lessIeeEEPeEEjT0_S5_S5_T_
xXc:_fourbyte_strstr
fe:_SDL_DestroyRenderer
Sac:_INT123_clear_icy
Pra:__ZN10emscripten3valC2EPKc
oFc:_smix_mono_16bit_nearest
ytb:_deflate_slow
hDb:_png_write_data
s1a:__ZN12Box2DBinder222b2PulleyJoint_getRatioEP9lua_State
djb:__ZNSt3__26__treeIPN9g_private14TextureElementENS_4lessIS3_EENS_9allocatorIS3_EEE12__find_equalIS3_EERPNS_16__tree_node_baseIPvEERPNS_15__tree_end_nodeISD_EERKT_
iPa:__ZN16b2ParticleSystem18JoinParticleGroupsEP15b2ParticleGroupS1_
brc:_Ins_ABS
dpa:__ZNSt3__26__treeIPN12_GLOBAL__N_121GGStreamOpenALManager7ChannelENS_4lessIS4_EENS_9allocatorIS4_EEE16__construct_nodeIJRKS4_EEENS_10unique_ptrINS_11__tree_nodeIS4_PvEENS_22__tree_node_destructorINS7_ISG_EEEEEEDpOT_
kfa:__ZN17ogl2ShaderProgram12drawElementsEN13ShaderProgram9ShapeTypeEjNS0_8DataTypeEPKvbPP17ShaderBufferCachejj
Gud:__ZNSt3__212ctype_bynameIcEC2EPKcj
$Cc:_hio_read16l
bod:__ZNSt3__29money_getIcNS_19istreambuf_iteratorIcNS_11char_traitsIcEEEEE8__do_getERS4_S4_bRKNS_6localeEjRjRbRKNS_5ctypeIcEERNS_10unique_ptrIcPFvPvEEERPcSM_
oVd:mftCall_viiiiii
Uz:_glVertexAttribDivisorARB
IPc:_fesetround
$ad:__ZNSt3__213basic_istreamIcNS_11char_traitsIcEEED0Ev
Wmb:__ZN14GGSoundManager23ChannelSetWorldPositionEmffffff
C7:__ZNSt3__213move_backwardIPNS_4pairIP5TimeriEES4_S5_RS4_PS5_iLi0EEENS_16__deque_iteratorIT0_T1_T2_T3_T4_XT5_EEET_SF_SE_PNS_9enable_ifIXsr27__is_random_access_iteratorISF_EE5valueEvE4typeE
dEc:_hio_read16b
FVa:__ZN10MeshBinder13setIndexArrayEP9lua_State
vqc:_Ins_MIAP
jib:__ZN9g_private14TextureElementD2Ev
h6:__ZN12GraphicsBase5clearEv
pfa:__ZN17ogl2ShaderProgram8recreateEv
m1:__ZNKSt3__26__treeINS_12__value_typeIiiEENS_19__map_value_compareIiS2_NS_4lessIiEELb1EEENS_9allocatorIS2_EEE10__root_ptrEv
nXc:_getmntent
ixd:__ZNSt3__220__vector_base_commonILb1EEC2Ev
Ao:_eglGetError
TE:_setpwent
RLa:__ZN7b2World4DumpEv
QKb:_jinit_downsampler
Atb:_longest_match
nwd:__ZNSt3__217moneypunct_bynameIcLb1EE4initEPKc
iYa:__ZNKSt3__26vectorINS_4pairINS_12basic_stringIcNS_11char_traitsIcEENS_9allocatorIcEEEES7_EENS5_IS8_EEE8max_sizeEv
CQb:_Splice
LA:_glfwPollEvents
oAd:__ZNSt3__212_GLOBAL__N_19incrementIlEET_RS2_
ldd:__ZNSt3__215basic_streambufIcNS_11char_traitsIcEEE5gbumpEi
nub:_z__tr_tally
RUa:__ZN12_GLOBAL__N_114GGSoundChannel10setLoopingEb
pqb:__ZN8StringId2idERKNSt3__212basic_stringIcNS0_11char_traitsIcEENS0_9allocatorIcEEEE
Fwc:_cff_charset_compute_cids
WKb:_jinit_c_main_controller
qJb:_jpeg_save_markers
lQd:__ZN10__cxxabiv112_GLOBAL__N_122parse_static_cast_exprINS0_2DbEEEPKcS4_S4_RT_
OSb:___gl_vertCCW
mtc:_cff_decoder_init
USd:runPostSets43
UTd:_sbrk
xFb:_jpeg_mem_term
Fxc:_psh_glyph_interpolate_normal_points
AYb:__ZL8exprstatP8LexState
Yba:__ZN9Transform7setRefYEf
lHb:_jpeg_idct_5x10
l_c:_name_from_dns
yAd:__ZNSt3__212__get_sp_mutEPKv
swa:__ZN17b2ContactListener10EndContactEP9b2FixtureP16b2ParticleSystemi
Oad:__ZNSt3__215basic_streambufIwNS_11char_traitsIwEEE4syncEv
hLd:__ZNKSt3__212_GLOBAL__N_114initial_stringINS_12basic_stringIwNS_11char_traitsIwEENS_9allocatorIwEEEEeLb1EEclEv
Jy:_glIsEnabled
mb:ftCall_vidddd
mEb:_png_do_pack
Zq:_emscripten_glDisable
M5c:_getlogin_r
nlc:_zcalloc
Qib:__ZN9g_private14TextureManager18getInternalTextureEm
sgb:_gtimer_cleanup
uZa:__ZN17ApplicationBinder16getContentHeightEP9lua_State
ir:_emscripten_glDrawElementsInstanced
IAb:_png_set_hIST
wkd:__ZNKSt3__28time_getIcNS_19istreambuf_iteratorIcNS_11char_traitsIcEEEEE13__get_12_hourERiRS4_S4_RjRKNS_5ctypeIcEE
B9c:__ZSt17current_exceptionv
jOc:_towlower
cga:__ZNSt3__26vectorIP17ogl2ShaderProgramNS_9allocatorIS2_EEE26__swap_out_circular_bufferERNS_14__split_bufferIS2_RS4_EE
ty:_glGetRenderbufferParameteriv
Dwc:_cff_charset_load
TRa:__ZL15profilerGetInfoP7Closure
LCc:_ft_gzip_check_header
QRa:__ZNSt3__26__treeINS_12__value_typeINS_12basic_stringIcNS_11char_traitsIcEENS_9allocatorIcEEEEdEENS_19__map_value_compareIS7_S8_NS_4lessIS7_EELb1EEENS5_IS8_EEE7destroyEPNS_11__tree_nodeIS8_PvEE
gKb:_jpeg_fdct_2x4
KJb:_jpeg_fdct_2x2
$Jb:_jpeg_fdct_2x1
spb:__ZNSt3__26__treeINS_12__value_typeIi8FileInfoEENS_19__map_value_compareIiS3_NS_4lessIiEELb1EEENS_9allocatorIS3_EEE5eraseENS_21__tree_const_iteratorIS3_PNS_11__tree_nodeIS3_PvEEiEE
YDa:__ZN16b2ParticleSystem10FreeBufferIjEEvPPT_i
QR:__ZN15MyTexturePackerC2Ebii
Zab:__ZN16PushEventVisitor5visitEP5Event
ltc:_cff_fd_select_get
jsb:_g_ftello
EQb:_MakeFace
P8c:__ZNSt3__229__libcpp_throw_debug_functionERKNS_19__libcpp_debug_infoE
k9c:__ZNKSt3__211__libcpp_db8__find_cEPv
Ho:_eglQuerySurface
Blc:_FT_Outline_Decompose
fLd:__ZNSt3__212_GLOBAL__N_19as_stringINS_12basic_stringIwNS_11char_traitsIwEENS_9allocatorIwEEEEPFiPwjPKwzEdEET_T0_SD_PKNSD_10value_typeET1_
QMd:__ZNKSt3__218__hidden_allocatorINS_4pairIPNS_18condition_variableEPNS_5mutexEEEE8max_sizeEv
MK:__ZNSt3__26vectorIP6SpriteNS_9allocatorIS2_EEE21__push_back_slow_pathIRKS2_EEvOT_
P0:__ZN4SlotI9MovieClip15EnterFrameEventEC2ERKS2_
e7a:__ZN12SpriteBinder20setLayoutConstraintsEP9lua_State
Ivd:__ZNKSt3__210moneypunctIcLb1EE11frac_digitsEv
Yr:_emscripten_glGetShaderiv
Kgb:__ZNSt3__26__treeINS_12__value_typeIiN9g_private12TimerManager12TimerElementEEENS_19__map_value_compareIiS5_NS_4lessIiEELb1EEENS_9allocatorIS5_EEE14__erase_uniqueIiEEjRKT_
fuc:_cf2_initLocalRegionBuffer
H1a:__ZN12Box2DBinder231b2PrismaticJoint_isLimitEnabledEP9lua_State
fld:__ZNKSt3__28time_getIwNS_19istreambuf_iteratorIwNS_11char_traitsIwEEEEE13__get_12_hourERiRS4_S4_RjRKNS_5ctypeIwEE
Qpc:_Ins_SZPS
Zua:__Z5b2MulRK5b2RotRK6b2Vec2
awa:__ZNK13b2CircleShape9TestPointERK11b2TransformRK6b2Vec2
BGb:_start_input_pass
Xud:__ZNSt3__212ctype_bynameIwEC2EPKcj
KHa:__ZN16b2ParticleSystem20UpdatePairsAndTriadsEiiRKNS_16ConnectionFilterE
YHa:__ZNSt3__220get_temporary_bufferIN16b2ParticleSystem5TriadEEENS_4pairIPT_iEEi
SAa:__ZNK9b2Simplex15GetClosestPointEv
dza:__ZN13b2PulleyJointD0Ev
ZW:__ZNKSt3__26vectorINS_4pairINS_12basic_stringIcNS_11char_traitsIcEENS_9allocatorIcEEEEfEENS5_IS8_EEE8max_sizeEv
tua:__ZN10emscripten8internal9SignatureIvJNS_11memory_viewIhEEEE17get_method_callerEv
hIb:_ycck_cmyk_convert
uba:__ZN6Sprite17setColorTransformERK14ColorTransform
DOc:___toupper_l
sH:FUNCTION_TABLE_iiiiiid
job:_gaudio_ChannelIsPlaying
tu:_emscripten_set_focus_callback
Jab:__ZL25getOrCreateEventBinderMapP15EventDispatcher
U2a:__ZN12Box2DBinder216b2Body_setActiveEP9lua_State
tH:FUNCTION_TABLE_iiiiiii
d3a:__ZN12Box2DBinder217b2Body_getInertiaEP9lua_State
S6:__ZNSt3__26__treeIP5TimerNS_4lessIS2_EENS_9allocatorIS2_EEE16__construct_nodeIJRKS2_EEENS_10unique_ptrINS_11__tree_nodeIS2_PvEENS_22__tree_node_destructorINS5_ISE_EEEEEEDpOT_
DDd:__ZNSt3__212basic_stringIcNS_11char_traitsIcEENS_9allocatorIcEEE9__grow_byEjjjjjj
qIa:__ZN16b2VoronoiDiagram12NodeCallbackC2Ev
zQd:__ZN10__cxxabiv112_GLOBAL__N_115parse_simple_idINS0_2DbEEEPKcS4_S4_RT_
gcd:__ZNKSt3__29basic_iosIcNS_11char_traitsIcEEE6narrowEcc
N8c:__ZNSt3__28__c_nodeD0Ev
DZb:__ZL9checknextP8LexStatei
h2c:_fwprintf
Tt:_emscripten_log_js
sad:__ZNSt3__29basic_iosIwNS_11char_traitsIwEEED2Ev
pZb:__ZL9codearithP9FuncState6OpCodeP7expdescS3_
Y5c:_pread
F1b:__ZL10db_getinfoP9lua_State
cwd:__ZNKSt3__210moneypunctIwLb1EE10neg_formatEv
hKd:__ZNSt3__212_GLOBAL__N_18as_floatIeNS_12basic_stringIwNS_11char_traitsIwEENS_9allocatorIwEEEEEET_RKNS2_IcNS3_IcEENS5_IcEEEERKT0_Pj
Fpa:__ZN21GGSampleOpenALManagerD2Ev
M7c:__ZNSt3__218__insertion_sort_3IRNS_6__lessIxxEEPxEEvT0_S5_T_
mta:__ZNSt3__26__treeINS_12__value_typeIm8UiDialogEENS_19__map_value_compareImS3_NS_4lessImEELb1EEENS_9allocatorIS3_EEE4findImEENS_15__tree_iteratorIS3_PNS_11__tree_nodeIS3_PvEEiEERKT_
V9b:_white_noise
K6b:__ZL7setfenvP9lua_State
ORb:_SpliceMergeVertices
Z1b:__ZL10unmakemaskiPc
uN:__ZN6Sprite10setScaleXYEff
AUb:_luaE_freethread
GUa:__ZN11AudioBinder21SoundChannel_getPitchEP9lua_State
Tca:__ZN7Matrix39transposeEv
gua:__ZL17JSNative_callbackiPvS_
yTb:_unzGetCurrentFileInfo64
oY:__ZN11TextureBaseD2Ev
M8:__ZN6Sprite11ShaderParamD2Ev
S_b:_luaZ_read
UPd:__ZNSt3__212basic_stringIcNS_11char_traitsIcEEN10__cxxabiv112_GLOBAL__N_112malloc_allocIcEEE7reserveEj
f6:__ZN10ErrorEventD0Ev
Rnc:_af_autofitter_init
iRa:__ZL14lzstream_linesP9lua_State
PId:__ZNKSt3__212basic_stringIwNS_11char_traitsIwEENS_9allocatorIwEEE17find_first_not_ofEPKwjj
RRa:__ZNSt3__24pairIKNS_12basic_stringIcNS_11char_traitsIcEENS_9allocatorIcEEEEdED2Ev
ZM:__ZN9StopWatch6resumeEv
jEb:_png_compress_IDAT
FIc:__ZN10emscripten8internal6TypeIDINS_11memory_viewIaEEE3getEv
rvc:_cff_parser_done
D2b:__ZL9aux_linesP9lua_Stateii
jVc:___rem_pio2f
eIb:_gray_rgb_convert
YYb:_luaK_reserveregs
jvd:__ZNKSt3__28time_putIwNS_19ostreambuf_iteratorIwNS_11char_traitsIwEEEEE3putES4_RNS_8ios_baseEwPK2tmPKwSC_
eda:__ZN7Matrix3C2Efffffffff
qbc:_frame_decode_buffers_reset
vhc:_Horizontal_Sweep_Step
mqb:__ZNSt3__26vectorIPcNS_9allocatorIS1_EEE26__swap_out_circular_bufferERNS_14__split_bufferIS1_RS3_EE
heb:_block_absorb
jJb:_fill_input_buffer
mbc:_INT123_frame_outbuffer
uEd:__ZNSt3__212basic_stringIcNS_11char_traitsIcEENS_9allocatorIcEEE6insertENS_11__wrap_iterIPKcEEjc
BMd:__ZNSt3__221__thread_specific_ptrINS_15__thread_structEEC2Ev
acb:__ZN12CppLuaBridgeD2Ev
Xab:__ZN16PushEventVisitorC2EP9lua_StateP12CppLuaBridge
z7:__ZNSt3__213move_backwardINS_4pairIP5TimeriEEPS4_RS4_PS5_iLi0ES4_S5_S6_S7_iLi0EEENS_16__deque_iteratorIT5_T6_T7_T8_T9_XT10_EEENS8_IT_T0_T1_T2_T3_XT4_EEESK_SE_
Iec:_bc_add
Vyc:_FT_Get_Glyph
NAb:_png_get_fixed_point
ES:__ZN15MaxRectsBinPack13PruneFreeListEv
Eqa:__ZNSt3__26__treeIPN21GGSampleOpenALManager7ChannelENS_4lessIS3_EENS_9allocatorIS3_EEE12__find_equalIS3_EERPNS_16__tree_node_baseIPvEERPNS_15__tree_end_nodeISD_EERKT_
GJa:__ZNSt3__227__insertion_sort_incompleteIRPFbRKN12_GLOBAL__N_115LightweightPairIiiEES5_EPS3_EEbT0_SA_T_
nwb:_png_get_header_version
ySc:_exp2
pnb:__ZN14GGAudioManager18ChannelSetPositionEmj
gga:__ZNSt3__26vectorIN13ShaderProgram12ConstantDescENS_9allocatorIS2_EEE21__push_back_slow_pathIRKS2_EEvOT_
no:_dysize
Jfa:__ZN20gl2ShaderBufferCacheD2Ev
jsd:__ZNSt3__2L15utf16be_to_ucs2EPKhS1_RS1_PtS3_RS3_mNS_12codecvt_modeE
s9:__ZNK14ColorTransform15greenMultiplierEv
iUd:mftCall_did
Hxb:_png_reset_filter_heuristics
xRd:__ZNSt3__26vectorINS0_IN10__cxxabiv112_GLOBAL__N_111string_pairENS2_11short_allocIS3_Lj4096EEEEENS4_IS6_Lj4096EEEE26__swap_out_circular_bufferERNS_14__split_bufferIS6_RS7_EE
ncd:__ZNSt3__29basic_iosIcNS_11char_traitsIcEEE9set_rdbufEPNS_15basic_streambufIcS2_EE
kQ:__ZNSt3__212__deque_baseI5ColorNS_9allocatorIS1_EEE3endEv
hZb:__ZL4exprP8LexStateP7expdesc
hK:__ZNK9Particles6getTagEi
VUd:mftCall_vidid
Av:_emscripten_vr_version_minor
RId:__ZNKSt3__212basic_stringIwNS_11char_traitsIwEENS_9allocatorIwEEE17find_first_not_ofEwj
Zra:__ZN10emscripten8internal17DestructorsRunnerC2EPNS0_15_EM_DESTRUCTORSE
ijd:__ZNKSt3__27num_getIwNS_19istreambuf_iteratorIwNS_11char_traitsIwEEEEE23__do_get_floating_pointIeEES4_S4_S4_RNS_8ios_baseERjRT_
Zv:_expf
NSc:___FLOAT_BITS_267
Oz:_glVertexAttrib3f
E9a:__ZN12MatrixBinder17setAnchorPositionEP9lua_State
_v:_expl
Egd:__ZNSt3__213basic_ostreamIwNS_11char_traitsIwEEElsEy
F0a:__ZN12Box2DBinder224b2WeldJoint_setFrequencyEP9lua_State
rWa:__ZN21TextInputDialogBinder12getInputTypeEP9lua_State
Ii:___syscall194
Gza:__ZN12b2WheelJoint24SolveVelocityConstraintsERK12b2SolverData
i4a:__ZN7b2Joint11SetUserDataEPv
D$a:__ZN12Box2DBinder220b2Contact_setEnabledEP9lua_State
JIb:_create_colormap
Lja:__ZN14NetworkManager14setProjectNameERKNSt3__26vectorIcNS0_9allocatorIcEEEE
eK:__ZN9Particles8setDecayEiffff
Lsa:__ZN10emscripten8internal20writeGenericWireTypeIhEEvRPNS0_15GenericWireTypeERKNS_11memory_viewIT_EE
qpd:__ZNKSt3__27codecvtIwc11__mbstate_tE9do_lengthERS1_PKcS5_j
Qh:___gcc_personality_v0
_ab:__ZN16PushEventVisitor5visitEP15EnterFrameEvent
RIc:__ZN10emscripten8internal6TypeIDImE3getEv
kvc:_cf2_getOtherBlues
lE:_pthread_rwlock_timedwrlock
dVc:_significand
JGb:_smoothing_ok
Ljc:_get_sfnt_table
cPd:__ZN10__cxxabiv112_GLOBAL__N_111short_allocINSt3__26vectorINS0_11string_pairENS1_IS4_Lj4096EEEEELj4096EE10deallocateEPS6_j
$vc:_cff_encoding_done
noa:__ZN12_GLOBAL__N_121GGStreamOpenALManager22deleteSourceAndBuffersEPNS0_7ChannelE
XLb:_h2v1_downsample
pUb:__ZL9sweeplistP9lua_StatePP8GCObjectj
iec:_bc_fill
xwa:__ZN16b2PolygonContact8EvaluateEP10b2ManifoldRK11b2TransformS4_
oE:_pthread_rwlock_unlock
hn:_alarm
nu:_emscripten_set_canvas_size
nPb:__ZN11CPVRTString6appendERKS_jj
ql:__emval_strictly_equals
bK:__ZN9Particles8setColorEijf
RF:_wait4
fsb:_g_putc_unlocked
Tqb:_g_enableTypeChecking
Py:_glIsTexture
WWa:__ZN15GyroscopeBinder11isAvailableEP9lua_State
nwa:__ZN17b2ContactListenerD2Ev
jXa:__ZN17GeolocationBinder11setAccuracyEP9lua_State
FLd:__ZTv0_n12_NSt3__29strstreamD0Ev
qxb:_png_build_gamma_table
VHb:_h2v1_upsample
ULc:___FLOAT_BITS_28
WAa:__ZNK9b2Simplex16GetWitnessPointsEP6b2Vec2S1_
Mwb:_png_xy_from_XYZ
ara:__Z12setKeepAwakeb
Ftc:_cf2_setError
gT:__ZN4Font11getAdvanceXEPKcfi
QKd:__ZNSt3__210to_wstringEl
wKd:__ZNKSt3__212_GLOBAL__N_114initial_stringINS_12basic_stringIcNS_11char_traitsIcEENS_9allocatorIcEEEExLb0EEclEv
pjd:__ZNKSt3__27num_getIwNS_19istreambuf_iteratorIwNS_11char_traitsIwEEEEE17__do_get_unsignedImEES4_S4_S4_RNS_8ios_baseERjRT_
fra:__Z13getDeviceNamev
H7b:__ZN8pystring6centerERKNSt3__212basic_stringIcNS0_11char_traitsIcEENS0_9allocatorIcEEEEi
WLa:__ZN9b2Fixture6CreateEP16b2BlockAllocatorP6b2BodyPK12b2FixtureDef
DBa:__ZN12b2BroadPhase9MoveProxyEiRK6b2AABBRK6b2Vec2
sh:___clock_gettime
$Q:__ZNSt3__26vectorIfNS_9allocatorIfEEE8allocateEj
BOa:__ZN15b2SlabAllocatorI16b2ParticleHandleE12AllocateSlabEv
$_c:_mkptr4
I_:__ZL12easeOutQuartd
Vbb:__ZN15EventDispatcher16addEventListenerI8LuaEvent12CppLuaBridgeS1_EEvRK9EventTypeIT_EPT0_MS8_FvPT1_E
Elc:_gray_line_to
zRc:_strcpy
A7a:__ZN12SpriteBinder8setSkewYEP9lua_State
P3c:_strtold
jcd:__ZNSt3__28ios_base4moveERS0_
uUd:mftCall_iiii
x1b:__ZL11luaB_xpcallP9lua_State
AAd:__ZNSt3__217declare_reachableEPv
uBb:_png_read_image
suc:_cf2_arrstack_finalize
I7a:__ZN12SpriteBinder8getScaleEP9lua_State
iba:__ZNSt3__214__split_bufferIP7Matrix4RNS_9allocatorIS2_EEE9push_backEOS2_
rTb:_unzOpen2_64
SU:__ZL10startsWithRKNSt3__212basic_stringIcNS_11char_traitsIcEENS_9allocatorIcEEEES7_
$Fc:_check_envelope_fade
xpa:__ZN17GGStreamInterface20AdvanceStreamBuffersEv
z$:__ZN9MovieClip5FrameC2ERKS0_
E7a:__ZN12SpriteBinder17getAnchorPositionEP9lua_State
DFd:__ZNKSt3__212basic_stringIcNS_11char_traitsIcEENS_9allocatorIcEEE7compareEjjPKc
oc:ftCall_viiiiddi
sKc:_casin
xmb:__ZNSt3__26__treeINS_12__value_typeImPN14GGSoundManager7ChannelEEENS_19__map_value_compareImS5_NS_4lessImEELb1EEENS_9allocatorIS5_EEE16__construct_nodeIJRKNS_21piecewise_construct_tENS_5tupleIJRKmEEENSH_IJEEEEEENS_10unique_ptrINS_11__tree_nodeIS5_PvEENS_22__tree_node_destructorINSA_ISP_EEEEEEDpOT_
uZ:__ZN17GridBagLayoutInfoC2Ev
HIb:_finish_pass_1_quant
ZKd:__ZNSt3__210to_wstringEy
UQ:__ZNSt3__214__split_bufferIN5GMesh5ColorERNS_9allocatorIS2_EEED2Ev
VXc:_socket
nuc:_cf2_arrstack_size
Kdc:_INT123_synth_ntom_m2s
Srb:_g_fputs
Vyb:_png_get_user_width_max
Bgc:_INT123_get_songlen
KK:__ZNK15EventDispatcher16hasEventListenerI10TouchEventEEbRK9EventTypeIT_E
qWa:__ZN21TextInputDialogBinder12setInputTypeEP9lua_State
Epb:__ZNSt3__26__treeINS_12__value_typeINS_12basic_stringIcNS_11char_traitsIcEENS_9allocatorIcEEEE8FileInfoEENS_19__map_value_compareIS7_S9_NS_4lessIS7_EELb1EEENS5_IS9_EEE5clearEv
e8a:__ZN12SpriteBinder3getEP9lua_State
dha:__ZTv0_n12_NSt3__219basic_ostringstreamIcNS_11char_traitsIcEENS_9allocatorIcEEED1Ev
_6:__ZNSt3__26__treeIP5TimerNS_4lessIS2_EENS_9allocatorIS2_EEE5eraseENS_21__tree_const_iteratorIS2_PNS_11__tree_nodeIS2_PvEEiEE
_o:_emscripten_asm_const_iiiiiiiii
HWb:_lua_pushvalue
tRd:__ZNSt3__212basic_stringIcNS_11char_traitsIcEEN10__cxxabiv112_GLOBAL__N_112malloc_allocIcEEE7replaceEjjPKcj
kSa:__ZNSt3__214__split_bufferIPN14LuaApplication12AsyncLuaTaskERNS_9allocatorIS3_EEED2Ev
huc:_cf2_stack_pushInt
YF:craftInvokerFunction
Bwa:__Z17b2CollidePolygonsP10b2ManifoldPK14b2PolygonShapeRK11b2TransformS3_S6_
rpa:__ZNSt3__26__treeINS_12__value_typeImPN12_GLOBAL__N_121GGStreamOpenALManager5SoundEEENS_19__map_value_compareImS6_NS_4lessImEELb1EEENS_9allocatorIS6_EEE7destroyEPNS_11__tree_nodeIS6_PvEE
LN:__ZNSt3__26vectorI6Point2IfENS_9allocatorIS2_EEE8allocateEj
uud:__ZNKSt3__28time_getIwNS_19istreambuf_iteratorIwNS_11char_traitsIwEEEEE11get_weekdayES4_S4_RNS_8ios_baseERjP2tm
vuc:_cf2_hintmask_setAll
vdd:__ZNSt3__215basic_streambufIwNS_11char_traitsIwEEE10pubseekposENS_4fposI11__mbstate_tEEj
B$b:_lua_getinfo
Pbd:__ZNKSt3__29basic_iosIcNS_11char_traitsIcEEE3badEv
R4a:__ZN17b2ContactListenerC2Ev
EEc:_virt_setnna
bF:_sigpending
G4c:_wcpcpy
wHc:_mread24l
nRb:_internal_gluTessBeginContour
p3:__ZNSt3__214__split_bufferIP11TextureDataRNS_9allocatorIS2_EEEC2EjjS5_
Vua:__Z5b2MinIfET_S0_S0_
QTc:___lgamma_r
EWd:___cxa_rethrow__wrapper
XZc:_strspn
rda:__ZN7Matrix23setEffff
Wqb:__ZL20constructor_postInitP9lua_State
FP:__ZNK8Matrix2D7inverseEv
px:_glDeleteShader
AC:_llvm_maxnum_f64
E3b:__ZL12Lutf8_escapeP9lua_State
doc:_tt_glyph_load
kmb:__ZNSt3__26__treeINS_12__value_typeImPN14GGSoundManager5SoundEEENS_19__map_value_compareImS5_NS_4lessImEELb1EEENS_9allocatorIS5_EEE12__find_equalImEERPNS_16__tree_node_baseIPvEERPNS_15__tree_end_nodeISH_EERKT_
eUc:_llroundf
fRc:_iswxdigit_l
Ilc:_gray_render_line
MIa:__ZNSt3__213__lower_boundIRPFbRKN16b2ParticleSystem4PairES4_EPS2_S2_EET0_S9_S9_RKT1_T_
QBc:_FT_Get_Renderer
GOd:__ZNK10__cxxabiv122__base_class_type_info16search_above_dstEPNS_19__dynamic_cast_infoEPKvS4_ib
TP:__ZNSt3__26vectorIN7TileMap6TileIdENS_9allocatorIS2_EEE6resizeEjRKS2_
pCc:_FT_Stream_TryRead
qQa:__ZNK14LuaApplication10isErrorSetEv
jw:_fork
__a:__ZN18b2FrictionJointDefC2Ev
Dqb:__ZN13PluginManagerC2Ev
vfa:__ZNSt3__26vectorIcNS_9allocatorIcEEE8allocateEj
YJ:__ZN9Particles7getSizeEi
AF:_usleep
Ubd:__ZNSt3__29basic_iosIcNS_11char_traitsIcEEE4initEPNS_15basic_streambufIcS2_EE
BEd:__ZNSt3__212basic_stringIcNS_11char_traitsIcEENS_9allocatorIcEEE7replaceEjjPKcj
yxb:_png_image_free_function
c4a:__ZN16b2ParticleSystem17GetPositionBufferEv
pxc:_t1_hints_funcs_init
tGa:__ZN16b2ParticleSystem19UpdateAllGroupFlagsEv
zia:__ZL8new_pathP16reduced_path_vec
RRc:___wcsxfrm_l
NGc:_xmp_free_context
Jg:_TTF_RenderText_Blended
v5c:_ctermid
HXd:_glGetProgramInfoLog__wrapper
VLa:__ZN8b2FilterC2Ev
bIc:__ZN12_GLOBAL__N_1L20register_memory_viewIhEEvPKc
cRa:__ZL13lzlib_inflateP9lua_State
Aob:_gaudio_BackgroundChannelStop
vS:__ZN15MaxRectsBinPackC2Ev
P3:__ZNSt3__214__split_bufferIN8TTBMFont8FontFaceERNS_9allocatorIS2_EEE18__construct_at_endEj
myb:_png_get_x_offset_inches_fixed
Arc:_Ins_SCANTYPE
bpb:_gaudio_XmpOpen
oLb:_emit_bits_s
gRc:_isxdigit_l
lPc:_shl
Hta:_ggeolocation_setAccuracy
lyb:_png_get_y_pixels_per_inch
z0c:_hexval_539
E_a:__ZN12Box2DBinder220b2EdgeShape_destructEP9lua_State
uJb:_jpeg_read_coefficients
Tad:__ZNSt3__215basic_streambufIwNS_11char_traitsIwEEE9pbackfailEj
W9c:__ZNSt3__211unique_lockINS_5mutexEE6unlockEv
Axd:__ZNSt3__26locale5__imp7installINS_7codecvtIDsc11__mbstate_tEEEEvPT_
dMd:__ZNKSt3__223__system_error_category23default_error_conditionEi
Kvb:_png_longjmp
uWc:_a_cas
ild:__ZNKSt3__28time_getIwNS_19istreambuf_iteratorIwNS_11char_traitsIwEEEEE12__get_minuteERiRS4_S4_RjRKNS_5ctypeIwEE
LCb:_png_set_cHRM
xad:__ZNSt3__215basic_streambufIcNS_11char_traitsIcEEE6setbufEPci
z1c:___freadptr
tqc:_Ins_ALIGNRP
$uc:_cf2_getSubfont
HQa:__ZNKSt3__26__treeINS_12__value_typeIibEENS_19__map_value_compareIiS2_NS_4lessIiEELb1EEENS_9allocatorIS2_EEE10__root_ptrEv
m0:__ZN8SlotBaseD0Ev
VVc:_wrap_write
WOd:__ZN10__cxxabiv112_GLOBAL__N_111string_pairD2Ev
IJ:__ZNSt3__26vectorIhNS_9allocatorIhEEE8__appendEj
SKc:_catanh
yS:__ZN15MaxRectsBinPack6InsertEiiNS_23FreeRectChoiceHeuristicE
TT:__ZNSt3__214__split_bufferIiRNS_9allocatorIiEEED2Ev
Ulc:_ft_smooth_render_lcd
$Da:__ZN15b2TypedFreeListI16b2ParticleHandleED2Ev
QAb:_png_cache_unknown_chunk
N0:__ZN15EventDispatcher16addEventListenerI15EnterFrameEvent9MovieClipS1_EEvRK9EventTypeIT_EMT0_FvPT1_E
BNc:_isalnum
imc:_af_latin_hints_compute_blue_edges
YAb:_png_combine_row
e7:__ZNK5Timer7runningEv
xGa:__ZN16b2ParticleSystem12ComputeDepthEv
xNb:__ZNK11NetworkBase11isConnectedEv
Fba:__ZN6Sprite9setScaleXEf
eka:__ZNSt3__26__treeINS_12__value_typeINS_12basic_stringIcNS_11char_traitsIcEENS_9allocatorIcEEEENS_6vectorIhNS5_IhEEEEEENS_19__map_value_compareIS7_SB_NS_4lessIS7_EELb1EEENS5_ISB_EEE4findIS7_EENS_15__tree_iteratorISB_PNS_11__tree_nodeISB_PvEEiEERKT_
pja:_cubicto
yJ:__ZNSt3__214__split_bufferItRNS_9allocatorItEEE18__construct_at_endEj
yNd:__ZNK10__cxxabiv120__si_class_type_info16search_above_dstEPNS_19__dynamic_cast_infoEPKvS4_ib
NRd:__ZN10__cxxabiv112_GLOBAL__N_111short_allocINS0_11string_pairELj4096EEC2ERNS0_5arenaILj4096EEE
Wtb:_lm_init
Wfa:__ZN17ogl2ShaderProgram8resetAllEv
NCd:__ZNSt3__212basic_stringIcNS_11char_traitsIcEENS_9allocatorIcEEEC2ERKS5_jRKS4_
Mja:__ZN14NetworkManager10deleteFileERKNSt3__26vectorIcNS0_9allocatorIcEEEE
Atc:_cf2_setGlyphWidth
j9c:__ZNKSt3__211__libcpp_db17__find_c_and_lockEPv
Aad:__ZNSt3__215basic_streambufIcNS_11char_traitsIcEEE4syncEv
cbb:__ZN16PushEventVisitor5visitEP18AccelerometerEvent
qfb:_md5_finish
Mfa:__ZNSt3__23setIP20gl2ShaderBufferCacheNS_4lessIS2_EENS_9allocatorIS2_EEED2Ev
WTc:_sin_pi
iVd:mftCall_viiidddiiddi
n4b:__ZL12utf8_iscntrlj
VZa:__ZN14LuaApplication12isPlayerModeEv
BC:_llvm_memory_barrier
iw:_floorl
bQa:__ZNSt3__26__treeINS_12__value_typeIibEENS_19__map_value_compareIiS2_NS_4lessIiEELb1EEENS_9allocatorIS2_EEEC2ERKS6_
M6a:__ZN17TextureBaseBinder9getHeightEP9lua_State
XFa:__ZN8b2Island6ReportEPK27b2ContactVelocityConstraint
Zmb:__ZN14GGSoundManager28ChannelRemoveCallbackWithGidEmm
$Oc:___procfdname
vJ:__ZNSt3__26vectorItNS_9allocatorItEEE18__construct_at_endEj
MGb:_start_pass_huff_decoder
EHd:__ZNKSt3__212basic_stringIwNS_11char_traitsIwEENS_9allocatorIwEEE4backEv
Nic:_tt_cmap13_char_next
li:___syscall133
ki:___syscall132
Fbc:_INT123_frame_index_find
dWd:_pthread_cond_timedwait__wrapper
fVc:_sincos
odc:_INT123_synth_2to1_s32
Dbc:_INT123_frame_bitrate
Vsa:___cxx_global_var_init_601
cWb:__ZL8precheckPK5Proto
Wxc:_psh_hint_table_record_mask
Pca:__ZNK9Transform1xEv
kfb:_AES128_CBC_encrypt_buffer
Jcd:__ZNSt3__29basic_iosIwNS_11char_traitsIwEEE4fillEw
_nc:_tt_face_init
EUd:mftCall_iiiiiiiiiiii
W5c:_pause
Mmd:__ZNSt3__210moneypunctIwLb0EED2Ev
k7b:__ZN8pystring5stripERKNSt3__212basic_stringIcNS0_11char_traitsIcEENS0_9allocatorIcEEEES8_
kTa:__ZN11PixelBinder8destructEP9lua_State
Yea:__ZN16ogl2ShaderBuffer16needDepthStencilEv
t4:__ZNSt3__214__split_bufferINS_6vectorI6Point2IfENS_9allocatorIS3_EEEERNS4_IS6_EEED2Ev
cld:__ZNKSt3__28time_getIwNS_19istreambuf_iteratorIwNS_11char_traitsIwEEEEE3getES4_S4_RNS_8ios_baseERjP2tmPKwSC_
afa:__ZN12ShaderBufferC2Ev
e7c:__ZNSt3__26__sortIRNS_6__lessIttEEPtEEvT0_S5_T_
P9b:__ZN6snappy6Varint8Append32EPNSt3__212basic_stringIcNS1_11char_traitsIcEENS1_9allocatorIcEEEEj
Nnd:__ZNSt3__217moneypunct_bynameIwLb1EED2Ev
YKc:_cosh
Z6c:__ZNSt3__227__insertion_sort_incompleteIRNS_6__lessIhhEEPhEEbT0_S5_T_
mQc:_evalprim
W0:__ZNSt3__26__treeIP15EventDispatcherNS_4lessIS2_EENS_9allocatorIS2_EEE16__insert_node_atEPNS_15__tree_end_nodeIPNS_16__tree_node_baseIPvEEEERSC_SC_
qXa:__ZN17GeolocationBinder20stopUpdatingLocationEP9lua_State
kB:_gluLookAt
rka:__ZNSt3__26__treeINS_12__value_typeINS_12basic_stringIcNS_11char_traitsIcEENS_9allocatorIcEEEENS_6vectorIhNS5_IhEEEEEENS_19__map_value_compareIS7_SB_NS_4lessIS7_EELb1EEENS5_ISB_EEE16__insert_node_atEPNS_15__tree_end_nodeIPNS_16__tree_node_baseIPvEEEERSM_SM_
HX:__ZNK9TextField11extraBoundsEPfS0_S0_S0_
Vad:__ZNSt3__215basic_streambufIwNS_11char_traitsIwEEE8overflowEj
s$a:__ZL23tableToParticleGroupDefP9lua_StateiP18b2ParticleGroupDeff
Gkd:__ZNKSt3__28time_getIcNS_19istreambuf_iteratorIcNS_11char_traitsIcEEEEE13__get_percentERS4_S4_RjRKNS_5ctypeIcEE
pla:__ZN20GGApplicationManager12enqueueEventEiPvi
Acb:__Z15setEnvironTableP9lua_State
ASa:__ZN12ScreenBinder8setStateEP9lua_State
qqc:_Ins_SHPIX
u5b:__ZL10str_formatP9lua_State
Nvc:_cff_builder_start_point
ZEc:_xmp_end_player
byb:_png_get_pixels_per_meter
mma:__ZN6ginput12InputManager14convertKeyCodeEPKc
aLc:_expm1
va:invoke_id
iLc:___frexp_expf
xa:invoke_ii
uga:__ZN17ogl2ShaderTextureD2Ev
ov:_emscripten_vr_get_display_capabilities
jCb:_png_image_read_and_map
uia:__ZL13path_commandsjiPKhiPKf
Sbc:_INT123_frame_set_frameseek
MQb:___gl_renderMesh
UAa:__ZNK15b2DistanceProxy10GetSupportERK6b2Vec2
HKa:__ZN12_GLOBAL__N_122TypedFixedSetAllocatorINS_15LightweightPairIP9b2FixtureiEEEC2EP16b2StackAllocator
eza:__ZN13b2PulleyJoint23InitVelocityConstraintsERK12b2SolverData
jbd:__ZNSt3__213basic_ostreamIcNS_11char_traitsIcEEED0Ev
cE:_pthread_mutexattr_setprotocol
_Bb:_png_set_rgb_to_gray_fixed
Sea:__ZN13ShaderProgram17shaderInitializedEv
d5b:__ZL8math_maxP9lua_State
Qhd:__ZNSt3__26locale5facet16__on_zero_sharedEv
Jyb:_png_get_sCAL
DJb:_jpeg_fdct_ifast
LFa:__ZN8b2Island3AddEP7b2Joint
xwb:_png_chunk_benign_error
mGd:__ZNSt3__212basic_stringIwNS_11char_traitsIwEENS_9allocatorIwEEEC2ESt16initializer_listIwE
ZGa:__ZZN16b2ParticleSystem14SolveCollisionERK10b2TimeStepEN22SolveCollisionCallbackC2EPS_S2_
HOc:_wcwidth
_Id:__ZNKSt3__212basic_stringIwNS_11char_traitsIwEENS_9allocatorIwEEE7compareEjjPKwj
_Ic:__ZN10emscripten8internal11LightTypeIDItE3getEv
sGa:__ZN16b2ParticleSystem22UpdateAllParticleFlagsEv
b1a:__ZN12b2WheelJoint20SetSpringFrequencyHzEf
Bec:_feed_init
qIb:_new_color_map_2_quant
PIc:__ZN10emscripten8internal6TypeIDIfE3getEv
fVb:_luaV_lessthan
_1a:__ZN12Box2DBinder229b2RevoluteJoint_setMotorSpeedEP9lua_State
QLd:__ZNSt3__212strstreambuf4swapERS0_
DEd:__ZNSt3__212basic_stringIcNS_11char_traitsIcEENS_9allocatorIcEEE7replaceEjjRKS5_jj
Z8c:__ZNSt3__214__get_const_dbEv
Lmc:_af_shaper_get_elem
zeb:__ZN5EventD0Ev
vQa:__ZN11Application8setScaleEf
hCc:_FT_Get_TrueType_Engine_Type
vfb:__Z20getDirectoryListingRPKcPNSt3__26vectorINS1_12basic_stringIcNS1_11char_traitsIcEENS1_9allocatorIcEEEENS6_IS8_EEEESB_
Srd:__ZNKSt3__215__codecvt_utf16IwLb1EE6do_outER11__mbstate_tPKwS5_RS5_PcS7_RS7_
jx:_glCullFace
LWc:_getcwd
kZ:__ZNSt3__213__vector_baseIdNS_9allocatorIdEEED2Ev
Jpb:__ZNSt3__26__treeINS_12__value_typeINS_12basic_stringIcNS_11char_traitsIcEENS_9allocatorIcEEEE8FileInfoEENS_19__map_value_compareIS7_S9_NS_4lessIS7_EELb1EEENS5_IS9_EEE16__construct_nodeIJRKNS_21piecewise_construct_tENS_5tupleIJOS7_EEENSK_IJEEEEEENS_10unique_ptrINS_11__tree_nodeIS9_PvEENS_22__tree_node_destructorINS5_ISR_EEEEEEDpOT_
JJc:___stdio_write
Whb:__ZNSt3__23mapImPN9g_private14TextureElementENS_4lessImEENS_9allocatorINS_4pairIKmS3_EEEEED2Ev
s5b:__ZL8str_dumpP9lua_State
erc:_Ins_CEILING
P6:__ZNSt3__26__treeINS_12__value_typeIdNS_6vectorIP5TimerNS_9allocatorIS4_EEEEEENS_19__map_value_compareIdS8_NS_4lessIdEELb1EEENS5_IS8_EEE16__insert_node_atEPNS_15__tree_end_nodeIPNS_16__tree_node_baseIPvEEEERSJ_SJ_
_fb:__ZNSt3__26vectorINS_12basic_stringIcNS_11char_traitsIcEENS_9allocatorIcEEEENS4_IS6_EEE10deallocateEv
wJa:__ZNK12_GLOBAL__N_122TypedFixedSetAllocatorINS_15LightweightPairIiiEEE8GetIndexEPKS2_
U3c:_strtoumax
gLa:__ZNSt3__27__sort4IRN12_GLOBAL__N_124ExpirationTimeComparatorEPiEEjT0_S5_S5_S5_T_
rOc:___iswdigit_l
PAc:_IsMacBinary
gpa:__ZNSt3__26__treeINS_12__value_typeImPN12_GLOBAL__N_121GGStreamOpenALManager5SoundEEENS_19__map_value_compareImS6_NS_4lessImEELb1EEENS_9allocatorIS6_EEE13__lower_boundImEENS_15__tree_iteratorIS6_PNS_11__tree_nodeIS6_PvEEiEERKT_SJ_PNS_15__tree_end_nodeIPNS_16__tree_node_baseISH_EEEE
jEc:_readmem16b
$s:_emscripten_glUniform3iv
KCb:_png_set_cHRM_XYZ_fixed
rJc:_internal_memalign
iAa:__ZNK16b2StackAllocator16GetMaxAllocationEv
Urc:_Move_Zp2_Point
g_a:__ZN13TileMapBinder8destructEP9lua_State
HDc:_readmem16l
vmc:_af_latin_snap_width
B0c:_tre_compare_lit
QFc:_update_envelope
DKa:__ZNSt3__27__sort4IRPFbRKN12_GLOBAL__N_115LightweightPairIP9b2FixtureiEES7_EPS5_EEjT0_SC_SC_SC_T_
ysb:_gpath_setDrivePath
qmb:__ZN14GGSoundManager14SoundGetLengthEm
gzd:__ZNSt3__26locale5__imp12make_classicEv
tv:_emscripten_vr_init
DKd:__ZNSt3__212_GLOBAL__N_19as_stringINS_12basic_stringIcNS_11char_traitsIcEENS_9allocatorIcEEEEPFiPcjPKczEfEET_T0_SD_PKNSD_10value_typeET1_
VFd:__ZNKSt3__212basic_stringIwNS_11char_traitsIwEENS_9allocatorIwEEE15__get_long_sizeEv
wba:__ZN6Sprite3setEPKcfP7GStatus
tyc:_t1_hints_stem
sdc:_INT123_synth_4to1_s32
XGc:_xmp_channel_vol
FMc:_pop_arg
YJa:__ZN12_GLOBAL__N_122TypedFixedSetAllocatorINS_15LightweightPairIP9b2FixtureiEEE9GetBufferEv
_Gb:_decode_mcu_DC_refine
KUd:mftCall_vidd
YFa:__ZN15b2ContactSolverD2Ev
Wzc:_FT_Stroker_ParseOutline
HTb:_unz64local_CheckCurrentFileCoherencyHeader
KG:requireHandle
uL:__ZNSt3__26vectorIP6SpriteNS_9allocatorIS2_EEE8__appendEj
Rz:_glVertexAttrib4fv
CSa:__ZN12ScreenBinder10getMaxSizeEP9lua_State
awb:_png_create_info_struct
w7a:__ZN12SpriteBinder9setScaleXEP9lua_State
V$:__ZN15EventDispatcher19removeEventListenerI15EnterFrameEvent9MovieClipS1_EEvRK9EventTypeIT_EMT0_FvPT1_E
nh:___atomic_load_8
bEd:__ZNSt3__212basic_stringIcNS_11char_traitsIcEENS_9allocatorIcEEE10__set_sizeEj
cl:__emval_get_global
Kld:__ZNSt3__215time_get_bynameIwNS_19istreambuf_iteratorIwNS_11char_traitsIwEEEEED2Ev
lka:__ZN14NetworkManager7loadMD5Ev
cwc:_CFF_Done_FD_Select
yMc:_vsnprintf
k6c:_setpgrp
ela:__ZN20GGApplicationManagerD2Ev
Q7c:__ZNSt3__27__sort4IRNS_6__lessIyyEEPyEEjT0_S5_S5_S5_T_
Kfb:__ZNSt3__214__split_bufferIPNS_12basic_stringIcNS_11char_traitsIcEENS_9allocatorIcEEEENS4_IS7_EEE10push_frontEOS7_
U:abort
RSa:__ZN15ParticlesBinder14setParticleTtlEP9lua_State
ih:___atomic_fetch_and_8
xrc:_Ins_ROLL
$jb:__ZNSt3__26__treeIPN9g_private14TextureManager18TempTextureElementENS_4lessIS4_EENS_9allocatorIS4_EEE16__insert_node_atEPNS_15__tree_end_nodeIPNS_16__tree_node_baseIPvEEEERSE_SE_
qmc:_af_iup_shift
Axb:_png_destroy_write_struct
sXc:___fseeko_unlocked
iWc:_getgrouplist
tha:__ZN6Path2D8drawPathEi7Matrix4PfS1_P11TextureDatabP13ShaderProgramPKS0_
qHc:_mopen
Raa:__ZNSt3__212__deque_baseI9_cliprectNS_9allocatorIS1_EEE5beginEv
c3:__ZN8TTBMFont11ensureCharsEPKii
REd:__ZNKSt3__212basic_stringIcNS_11char_traitsIcEENS_9allocatorIcEEE13get_allocatorEv
gBc:_FT_Raccess_Get_DataOffsets
Tbc:_ignoreframe
vAc:_FT_Stream_Open
n_c:___res_msend_rc
Iid:__ZNSt3__214__num_get_base10__get_baseERNS_8ios_baseE
IPd:__ZN10__cxxabiv112_GLOBAL__N_117parse_source_nameINS0_2DbEEEPKcS4_S4_RT_
DUa:__ZN11AudioBinder22SoundChannel_setVolumeEP9lua_State
gUc:_roundl
TMc:_pthread_self
AQd:__ZN10__cxxabiv112_GLOBAL__N_122parse_unqualified_nameINS0_2DbEEEPKcS4_S4_RT_
vRa:__ZL15lzstream_removeP9lz_streamj
tI:stackRestore
cJd:__ZNKSt3__212basic_stringIwNS_11char_traitsIwEENS_9allocatorIwEEE7compareEPKw
dY:__ZN5Pixel13updateTextureEv
apb:_gaudio_Mp3Close
RRb:_DonePriorityQ
nK:__ZNK5Stage7isStageEv
_kd:__ZNSt3__2L12init_wmonthsEv
Oqb:_g_registerSuspendCallback
Mvd:__ZNKSt3__210moneypunctIwLb0EE13decimal_pointEv
Uwc:_cff_get_mm_var
wAd:__ZNSt3__28__sp_mut4lockEv
sz:_glUniform1iv
e$b:__ZL9DumpBlockPKvjP9DumpState
$sc:_cff_size_init
VZ:__ZNSt3__213__vector_baseIPN9MovieClip5FrameENS_9allocatorIS3_EEED2Ev
lDb:_png_set_write_fn
ppa:__ZN16GGSoundInterfaceD2Ev
Kra:_ghttp_Close
QRc:___pthread_self_232
BYa:__ZN12MovieClipLua8destructEP9lua_State
V0b:__ZL9auxresumeP9lua_StateS0_i
dhd:__ZNSt3__28ios_base15sync_with_stdioEb
s9a:__ZN12MatrixBinder9getScaleZEP9lua_State
Yrb:___sflags
Dt:_emscripten_gluUnProject
hHa:__ZNK13b2DynamicTree5QueryI19b2WorldQueryWrapperEEvPT_RK6b2AABB
RBb:_png_set_benign_errors
ENa:__ZN12b2WheelJoint13SetMotorSpeedEf
K3a:__ZN6b2Body18SetAngularVelocityEf
pNc:_BF_encrypt
Wqd:__ZNKSt3__25ctypeIwE10do_tolowerEw
E_c:_ns_parserr
kAa:__ZN6b2DrawD2Ev
Wh:___muldc3
shc:_Horizontal_Sweep_Init
D2c:_open_memstream
vPc:_openat
vqd:__ZNKSt3__212ctype_bynameIwE9do_narrowEwc
P4c:_wcscat
KO:__ZN11TexturePack4RectC2Ev
Qda:__ZN12ShaderEngine21setViewportProjectionE7Matrix4ff
ABd:__ZNKSt3__213random_device7entropyEv
J8:__ZNSt3__26__treeINS_12__value_typeINS_12basic_stringIcNS_11char_traitsIcEENS_9allocatorIcEEEEN6Sprite11ShaderParamEEENS_19__map_value_compareIS7_SA_NS_4lessIS7_EELb1EEENS5_ISA_EEED2Ev
pwb:_png_chunk_unknown_handling
Cmd:__ZNSt3__210moneypunctIcLb1EED0Ev
_Ob:__ZN17CPVRTResourceFileC2EPKcj
mC:_llvm_exp_f32
HMa:__ZN16b2PrismaticJoint11EnableMotorEb
vmb:__ZNSt3__26__treeINS_12__value_typeImPN14GGSoundManager7ChannelEEENS_19__map_value_compareImS5_NS_4lessImEELb1EEENS_9allocatorIS5_EEE25__emplace_unique_key_argsImJRKNS_21piecewise_construct_tENS_5tupleIJRKmEEENSH_IJEEEEEENS_4pairINS_15__tree_iteratorIS5_PNS_11__tree_nodeIS5_PvEEiEEbEERKT_DpOT0_
ZMc:_swapc
bQb:__ZNK11CPVRTString4sizeEv
tEd:__ZNSt3__212basic_stringIcNS_11char_traitsIcEENS_9allocatorIcEEE6insertENS_11__wrap_iterIPKcEEc
J8a:__ZN12MatrixBinderC2EP9lua_State
iDa:__ZN23b2ChainAndCircleContactC2EP9b2FixtureiS1_i
nja:_lineto
Fv:_emscripten_webgl_get_current_context
Tc:RegisteredPointer_fromWireType
C8a:__ZN9Transform6setXYZEfff
XQa:__ZL10crypto_md5P9lua_State
kpd:__ZNSt3__214codecvt_bynameIwc11__mbstate_tED0Ev
TWd:b36
vk:__embind_register_class_function
qzd:__ZNSt3__26locale5__imp12install_fromINS_7codecvtIDsc11__mbstate_tEEEEvRKS1_
daa:__ZNSt3__214__split_bufferIPPK6SpriteRNS_9allocatorIS4_EEE9push_backEOS4_
M9b:_snappy_uncompress
Jx:_glDrawElementsInstanced
CG:makeClassHandle
Wr:_emscripten_glGetShaderPrecisionFormat
LNd:__ZNSt9exceptionD2Ev
mI:FUNCTION_TABLE_viiiiiiiii
l$c:_rand
SSc:_dd_add
tLd:__ZTv0_n12_NSt3__210istrstreamD0Ev
Keb:__ZNSt3__26__treeINS_12__value_typeIPvP11GReferencedEENS_19__map_value_compareIS2_S5_NS_4lessIS2_EELb1EEENS_9allocatorIS5_EEE5eraseENS_21__tree_const_iteratorIS5_PNS_11__tree_nodeIS5_S2_EEiEE
cbc:_bad_skip_bytes
Cxc:_psh_glyph_find_strong_points
_Uc:_scalbf
MFc:_process_pan
wj:___syscall306
xj:___syscall307
uj:___syscall304
vj:___syscall305
sj:___syscall302
tj:___syscall303
qj:___syscall300
rj:___syscall301
kdd:__ZNKSt3__215basic_streambufIcNS_11char_traitsIcEEE5egptrEv
rid:__ZNSt3__26locale2id5__getEv
yj:___syscall308
l8c:__ZNSt3__212__rs_defaultC2ERKS0_
Ffa:__ZNSt3__26__treeIP20gl2ShaderBufferCacheNS_4lessIS2_EENS_9allocatorIS2_EEE12__find_equalIS2_EERPNS_16__tree_node_baseIPvEERPNS_15__tree_end_nodeISC_EERKT_
Fib:__ZNSt3__26__treeINS_12__value_typeImPN9g_private14TextureElementEEENS_19__map_value_compareImS5_NS_4lessImEELb1EEENS_9allocatorIS5_EEE16__insert_node_atEPNS_15__tree_end_nodeIPNS_16__tree_node_baseIPvEEEERSH_SH_
JW:__ZNSt3__26vectorINS_4pairINS_12basic_stringIcNS_11char_traitsIcEENS_9allocatorIcEEEEfEENS5_IS8_EEE6assignIPS8_EENS_9enable_ifIXaasr21__is_forward_iteratorIT_EE5valuesr16is_constructibleIS8_NS_15iterator_traitsISE_E9referenceEEE5valueEvE4typeESE_SE_
eRb:_noEdgeFlag
Lxc:_psh_hint_table_find_strong_points
Wz:_glVertexAttribDivisorNV
LDb:_png_write_hIST
dja:_wsp
bba:__ZNSt3__25dequeI7Matrix4NS_9allocatorIS1_EEE8__appendINS_16__deque_iteratorIS1_PKS1_RS7_PKS8_iLi0EEEEEvT_SD_PNS_9enable_ifIXsr21__is_forward_iteratorISD_EE5valueEvE4typeE
yI:__ZN11LayoutEvent5applyEP12EventVisitor
K8b:__ZN6snappyL9HashBytesEji
Cfb:__ZNSt3__214__split_bufferIPNS_12basic_stringIcNS_11char_traitsIcEENS_9allocatorIcEEEENS4_IS7_EEED2Ev
qld:__ZNSt3__220__get_up_to_n_digitsIwNS_19istreambuf_iteratorIwNS_11char_traitsIwEEEEEEiRT0_S5_RjRKNS_5ctypeIT_EEi
tf:_SDL_LockAudio
JZ:__ZNK6Sprite6matrixEv
Vrd:__ZNKSt3__215__codecvt_utf16IwLb1EE11do_encodingEv
j8a:__ZNSt3__23mapINS_12basic_stringIcNS_11char_traitsIcEENS_9allocatorIcEEEEN6Sprite11ShaderParamENS_4lessIS6_EENS4_INS_4pairIKS6_S8_EEEEEixERSC_
Sr:_emscripten_glGetQueryObjectuivEXT
gy:_glGetBooleanv
QWc:_getpid
lVa:__ZL6appendRNSt3__26vectorIcNS_9allocatorIcEEEEPKvj_107
Na:invoke_iiiiiii
O1c:_fgetwc
Zh:___resumeException
x1:__ZN13GRenderTarget5clearEjfiiii
iwb:_png_convert_to_rfc1123_buffer
y4b:__ZL17check_captureUTF8P14MatchStateUTF8i
L5c:_getlogin
WN:__ZNSt3__214__split_bufferI6Point2IfERNS_9allocatorIS2_EEE18__construct_at_endEj
G7c:__ZNSt3__218__insertion_sort_3IRNS_6__lessImmEEPmEEvT0_S5_T_
a0a:__ZN12Box2DBinder222b2DebugDraw_clearFlagsEP9lua_State
kxa:__ZNK12b2MouseJoint17GetReactionTorqueEf
O1a:__ZN12Box2DBinder230b2PrismaticJoint_getMotorSpeedEP9lua_State
TBa:__ZNK13b2DynamicTree13ComputeHeightEi
zqa:__ZNSt3__26__treeINS_12__value_typeImPN21GGSampleOpenALManager7ChannelEEENS_19__map_value_compareImS5_NS_4lessImEELb1EEENS_9allocatorIS5_EEE25__emplace_unique_key_argsImJRKNS_21piecewise_construct_tENS_5tupleIJRKmEEENSH_IJEEEEEENS_4pairINS_15__tree_iteratorIS5_PNS_11__tree_nodeIS5_PvEEiEEbEERKT_DpOT0_
v4b:__ZL13utf8_isxdigitj
zTc:_pone
Cka:__ZNK12luaException4whatEv
aDc:_hio_read32l
jnd:__ZNKSt3__217moneypunct_bynameIcLb0EE16do_thousands_sepEv
edb:_block_is_prev_free
ve:_SDL_GL_SetSwapInterval
web:__ZNSt3__24pairIKNS_12basic_stringIcNS_11char_traitsIcEENS_9allocatorIcEEEE8FileInfoED2Ev
h9a:__ZN12MatrixBinder8multiplyEP9lua_State
j6:__ZNK12GraphicsBase9getBoundsEPfS0_S0_S0_
UBa:__ZNK13b2DynamicTree13ComputeHeightEv
QWd:b33
RQd:__ZN10__cxxabiv112_GLOBAL__N_121parse_destructor_nameINS0_2DbEEEPKcS4_S4_RT_
hic:_tt_cmap2_get_info
Zic:_tt_cmap14_char_variants
CEa:__ZN16b2ParticleSystem16ReallocateBufferIiEEPT_S2_iiib
vua:__ZNK10emscripten8internal12WireTypePackIJNS_11memory_viewIhEEEEcvPKvEv
G4b:__ZL11utf8_tofoldj
Fec:_feed_seek_frame
DOa:__ZN24b2TypedIntrusiveListNodeI16b2ParticleHandleE23GetInstanceFromListNodeEP19b2IntrusiveListNode
Xx:_glGenFramebuffers
V5c:_nice
p8b:__ZN8pystring2os4path10dirname_ntERKNSt3__212basic_stringIcNS2_11char_traitsIcEENS2_9allocatorIcEEEE
eRc:_iswupper_l
Nla:__ZNSt3__26vectorIP17ginput_TouchEventNS_9allocatorIS2_EEE26__swap_out_circular_bufferERNS_14__split_bufferIS2_RS4_EE
PT:__ZNSt3__213__vector_baseIiNS_9allocatorIiEEED2Ev
ANd:__ZNK10__cxxabiv120__si_class_type_info27has_unambiguous_public_baseEPNS_19__dynamic_cast_infoEPvi
qOd:__ZN10__cxxabiv123__fundamental_type_infoD0Ev
Tmc:_ft_glyphslot_grid_fit_metrics
jxa:__ZNK12b2MouseJoint16GetReactionForceEf
PUc:_remainder
Nwb:_png_reciprocal
PP:__ZN7TileMap6doDrawERK7Matrix4ffff
BAa:__ZN6b2StatC2Ev
OJd:__ZNSt3__212_GLOBAL__N_110as_integerIyNS_12basic_stringIcNS_11char_traitsIcEENS_9allocatorIcEEEEEET_RKS7_RKT0_Pji
Ejc:_FT_Stream_ReadAt
_Fd:__ZNSt3__212basic_stringIwNS_11char_traitsIwEENS_9allocatorIwEEE18__get_long_pointerEv
pea:__ZNSt3__214__split_bufferIPN12ShaderEngine7ScissorERNS_9allocatorIS3_EEE9push_backEOS3_
hec:_mpg123_getstate
tzd:__ZNSt3__26locale5__imp12install_fromINS_10moneypunctIcLb0EEEEEvRKS1_
oFd:__ZNKSt3__212basic_stringIcNS_11char_traitsIcEENS_9allocatorIcEEE17find_first_not_ofEPKcj
$7c:__ZNSt3__27__sort3IRNS_6__lessIddEEPdEEjT0_S5_S5_T_
hjb:_gtexture_reuse
lMd:__ZNKSt3__215error_condition7messageEv
vId:__ZNKSt3__212basic_stringIwNS_11char_traitsIwEENS_9allocatorIwEEE4findEwj
Fq:_emscripten_glCompressedTexSubImage2D
wJc:_ialloc
hpc:_TT_Clear_CodeRange
kBa:__ZN12b2BroadPhaseC2Ev
vA:_glfwGetNumberOfProcessors
RAc:_load_face_in_embedded_rfork
g4:__ZNKSt3__26vectorIP11TextureBaseNS_9allocatorIS2_EEE8max_sizeEv
x4c:___strncasecmp_l
N0b:__ZL9base_openP9lua_State
q8a:__ZN6Sprite9setMatrixEPK9Transform
y0c:_tre_expand_macro
rY:__ZN11TextureBaseC2EP11ApplicationPKc6Filter4Wrap6Formatbjb
KZb:__ZL14closelistfieldP9FuncStateP11ConsControl
Twa:__ZN23b2EdgeAndPolygonContact8EvaluateEP10b2ManifoldRK11b2TransformS4_
aY:__ZN5Pixel13getDimensionsERfS0_
yEa:__ZN16b2ParticleSystem16ReallocateBufferI15b2ParticleColorEEPT_S3_iiib
zYa:__ZN15MovieClipBinder11clearActionEP9lua_State
uHb:_jpeg_idct_12x6
Uid:__ZNSt3__225__num_get_signed_integralIlEET_PKcS3_Rji
C$:__ZNSt3__214__split_bufferIN9MovieClip5FrameERNS_9allocatorIS2_EEEC2EjjS5_
YPa:__ZNSt3__26__treeINS_12__value_typeIP7ClosureP11ProfileInfoEENS_19__map_value_compareIS3_S6_NS_4lessIS3_EELb1EEENS_9allocatorIS6_EEEC2ERKSA_
N9b:_snappy_uncompressed_length
GZc:___bswap_32
jQ:__ZN5ColorC2Effff
rRd:__ZN10__cxxabiv112_GLOBAL__N_111short_allocINSt3__26vectorINS3_INS0_11string_pairENS1_IS4_Lj4096EEEEENS1_IS6_Lj4096EEEEELj4096EE8allocateEj
S3b:__ZL11utf8_lengthPKcS0_
xCa:__ZN9b2Contact7GetNextEv
Add:__ZNSt3__215basic_streambufIwNS_11char_traitsIwEEE5sgetcEv
Y9:__ZNSt3__212__deque_baseIPK6SpriteNS_9allocatorIS3_EEE3endEv
eed:__ZNKSt3__213basic_istreamIcNS_11char_traitsIcEEE6sentrycvbEv
jkc:_tt_face_get_metrics
Z$:__ZNSt3__23mapIiNS_6vectorIP8SlotBaseNS_9allocatorIS3_EEEENS_4lessIiEENS4_INS_4pairIKiS6_EEEEEixEOi
lja:_FT_Outline_Decompose_Ex
Bxa:__ZNK16b2PrismaticJoint10GetAnchorBEv
Ivc:_cff_parse_fixed_dynamic
rya:__ZNK11b2WeldJoint10GetAnchorAEv
FDd:__ZNSt3__212basic_stringIcNS_11char_traitsIcEENS_9allocatorIcEEE6resizeEj
Z1c:_fputwc
rE:_pthread_rwlockattr_getpshared
tQa:__ZN14LuaApplication9addTickerEP6Ticker
sDb:_png_write_sBIT
IOd:__ZN10__cxxabiv117__pbase_type_infoD0Ev
T4c:_wcsncat
EOb:__ZL9TwiddleUVjjjj
Vcd:__ZNSt3__215basic_streambufIcNS_11char_traitsIcEEE10pubseekposENS_4fposI11__mbstate_tEEj
KAb:_png_set_tRNS
t5c:_chdir
sl:__emval_typeof
tFa:__ZN16b2ParticleSystem21UserOverridableBufferI15b2ParticleColorEC2Ev
OIc:__ZN10emscripten8internal11LightTypeIDIdE3getEv
mac:_good_enc
Ju:_emscripten_set_mousemove_callback
Dsd:__ZNKSt3__215__codecvt_utf16IDiLb0EE13do_max_lengthEv
TNb:__ZN6ServerC2EtPKc
zVb:_luaH_set
UBc:_FT_Remove_Module
CQ:__ZN5GMeshD2Ev
xob:_gaudio_BackgroundMusicDelete
Hza:__ZN12b2WheelJoint24SolvePositionConstraintsERK12b2SolverData
Cp:_emscripten_exit_fullscreen
fyc:_ps_dimension_end_mask
E0c:_regerror
Q6b:__ZL8findfileP9lua_StatePKcS2_
xy:_glGetShaderiv
J0:__ZNK9EventTypeI13CompleteEventE4typeEv
RX:__ZN9TextField9setSampleEPKc
c4:__ZN5Shape14clearFillStyleEv
Pjc:_sfnt_done_face
pgd:__ZNSt3__213basic_ostreamIwNS_11char_traitsIwEEEC1EOS3_
NDd:__ZNKSt3__212basic_stringIcNS_11char_traitsIcEENS_9allocatorIcEEEixEj
W7:__ZNSt3__26vectorIcNS_9allocatorIcEEE6resizeEj
cib:__ZNSt3__26__treeINS_12__value_typeINS_6vectorIcNS_9allocatorIcEEEEPN9g_private14TextureElementEEENS_19__map_value_compareIS5_S9_NS_4lessIS5_EELb1EEENS3_IS9_EEE7destroyEPNS_11__tree_nodeIS9_PvEE
yic:_tt_cmap8_validate
ET:__ZN12GraphicsBaseC2ERKS_
eMc:___des_setkey
Dv:_emscripten_webgl_destroy_context
VDc:_it_load
HPa:__ZN15b2ParticleGroup18ApplyLinearImpulseERK6b2Vec2
Unc:_af_property_set
Yzb:_png_read_filter_row_up
qfd:__ZNKSt3__213basic_istreamIwNS_11char_traitsIwEEE6gcountEv
X4c:_wcsstr
xVb:__ZL10getfreeposP5Table
epc:_tt_size_ready_bytecode
LUb:__ZL7marktmuP12global_State
VW:__ZNSt3__26vectorIN11Application10ImageScaleENS_9allocatorIS2_EEE26__swap_out_circular_bufferERNS_14__split_bufferIS2_RS4_EE
dm:_alGenSources
$P:__ZN7TileMap3setEiittijP7GStatus
aKc:___toread
yma:_ginput_setTouchToMouseEnabled
W1c:_fputc
ewc:_cff_font_load
bic:_tt_cmap0_validate
GYb:__ZL8explist1P8LexStateP7expdesc
fAa:__Z5b2MaxIiET_S0_S0_
xtc:_cf2_getUnitsPerEm
Vpc:_Ins_ELSE
Rpa:__ZN21GGSampleOpenALManager16ChannelSetVolumeEmf
Hfb:__ZNSt3__214__split_bufferIPNS_12basic_stringIcNS_11char_traitsIcEENS_9allocatorIcEEEERNS4_IS7_EEE18__construct_at_endINS_13move_iteratorIPS7_EEEENS_9enable_ifIXsr21__is_forward_iteratorIT_EE5valueEvE4typeESG_SG_
Po:_ellipseColor
Mgd:__ZNSt3__213basic_ostreamIwNS_11char_traitsIwEEE5tellpEv
eqb:__ZNK8StringId5ltstrclEPKcS2_
O$a:__ZN12Box2DBinder226b2Contact_resetRestitutionEP9lua_State
Caa:__ZNSt3__25dequeI7Matrix4NS_9allocatorIS1_EEEC2ERKS4_
F9c:__ZNKSt3__223__future_error_category4nameEv
Jca:__ZNK9Transform6scaleXEv
Bjb:__ZN9g_private14TextureManager20RestoreRenderTargetsEv
a5c:_wmemmove
Nf:_SDL_RemoveTimer
Hwd:__ZNSt3__29money_putIcNS_19ostreambuf_iteratorIcNS_11char_traitsIcEEEEEC2Ej
dxa:__ZN22b2EdgeAndCircleContactD0Ev
I6c:__ZNSt3__26__sortIRNS_6__lessIwwEEPwEEvT0_S5_T_
dpc:_FT_Stream_GetChar
E4a:__ZN9b2WorldEDC2ERK6b2Vec2b
Zob:_gaudio_Mp3Seek
TYb:__ZL5boolKP9FuncStatei
D7a:__ZN12SpriteBinder17setAnchorPositionEP9lua_State
qhd:__ZNSt3__211__stdoutbufIwE4syncEv
rcc:_enc_name
Twc:_cff_get_mm_blend
A8a:__ZN9Transform9setRefXYZEfff
gIc:__ZN12_GLOBAL__N_1L20register_memory_viewIlEEvPKc
tBc:_FT_Done_Size
h4c:_bcopy
vd:_Mix_PlayChannel
Txa:__Z5b2DotRK6b2Vec3S1_
Aac:_INT123_defdec
ONa:__ZN6b2Rope8SetAngleEf
oF:_sysconf
COa:__ZN15b2TypedFreeListI16b2ParticleHandleE8AllocateEv
IVc:_dirname
CAc:_FT_Set_Transform
cub:_gz_comp
Q5b:__ZL13match_captureP10MatchStatePKci
hJc:__ZN10emscripten8internal11LightTypeIDIvE3getEv
Qub:_z_gzflush
ucc:_next_text
xE:_pthread_spin_destroy
fB:_glfwTerminate
n3a:__ZN12Box2DBinder215b2Body_isBulletEP9lua_State
xAd:__ZNSt3__28__sp_mut6unlockEv
_yb:_png_get_io_chunk_type
tLa:__ZN7b2World9DrawJointEP7b2Joint
axa:__ZN24b2ChainAndPolygonContact8EvaluateEP10b2ManifoldRK11b2TransformS4_
zmb:__ZNKSt3__26__treeINS_12__value_typeImPN14GGSoundManager7ChannelEEENS_19__map_value_compareImS5_NS_4lessImEELb1EEENS_9allocatorIS5_EEE10__root_ptrEv
C7a:__ZN12SpriteBinder11getPositionEP9lua_State
F3b:__ZL12Lutf8_insertP9lua_State
aed:__ZNSt3__213basic_ostreamIcNS_11char_traitsIcEEE5flushEv
RVc:_fmtmsg
JUc:_nextafterl
UJ:__ZNSt3__26vectorIfNS_9allocatorIfEEE26__swap_out_circular_bufferERNS_14__split_bufferIfRS2_EE
nWa:__ZN21TextInputDialogBinder4hideEP9lua_State
JWa:__ZN17AlertDialogBinder8destructEP9lua_State
WDa:__ZN16b2ParticleSystem10FreeBufferIPvEEvPPT_i
Rya:__ZNK11b2GearJoint10GetAnchorBEv
Xnb:__ZN14GGAudioManager12RegisterTypeEPKcR13GGAudioLoader
XWc:___ofl_unlock
i_a:__ZN13TileMapBinder7setTileEP9lua_State
VCa:__ZN22b2EdgeAndCircleContact6CreateEP9b2FixtureiS1_iP16b2BlockAllocator
Y6b:__ZL8readablePKc
_Ed:__ZNKSt3__212basic_stringIcNS_11char_traitsIcEENS_9allocatorIcEEE5rfindEPKcj
_pb:__ZNSt3__26__treeINS_12__value_typeIPKciEENS_19__map_value_compareIS3_S4_N8StringId5ltstrELb1EEENS_9allocatorIS4_EEE7destroyEPNS_11__tree_nodeIS4_PvEE
Xvc:_cff_font_done
_Dd:__ZNSt3__212basic_stringIcNS_11char_traitsIcEENS_9allocatorIcEEEpLESt16initializer_listIcE
k2:__ZNSt3__26__treeINS_12__value_typeIiN6TTFont9GlyphDataEEENS_19__map_value_compareIiS4_NS_4lessIiEELb1EEENS_9allocatorIS4_EEED2Ev
aRc:_iswlower_l
x2:__ZNSt3__214__split_bufferIN6TTFont8FontFaceERNS_9allocatorIS2_EEEC2EjjS5_
PLc:_ctan
sub:_z_inflateBackEnd
A4c:_strpbrk
oKb:_jpeg_write_m_header
cKd:__ZNSt3__212_GLOBAL__N_115as_float_helperIdNS_12basic_stringIwNS_11char_traitsIwEENS_9allocatorIwEEEEPFdPKwPPwEEET_RKNS2_IcNS3_IcEENS5_IcEEEERKT0_PjT1_
TPa:___cxx_global_var_init_199
fJc:__ZN10emscripten8internal6TypeIDIcE3getEv
_gd:__ZNSt3__2L13__ios_new_capIlEEjjj
NMa:__ZN15b2FrictionJoint11SetMaxForceEf
UC:_llvm_stackrestore
zA:_glfwGetVersion
ced:__ZNSt3__213basic_ostreamIcNS_11char_traitsIcEEE6sentryD2Ev
LI:__ZN12VertexBufferIfE6UpdateEv
Mkc:_FT_CMap_New
mJ:__ZN12VertexBufferItE6UpdateEv
xSc:_modf
QV:__ZN11Application12clearBuffersEv
EHb:_jpeg_idct_9x9
Nqd:__ZNSt3__215numpunct_bynameIwED0Ev
hRa:__ZL19lzstream_decompressP9lua_State
aAb:_png_check_chunk_name
OHc:__ZN12_GLOBAL__N_1L16register_integerIhEEvPKc
ydd:__ZNSt3__215basic_streambufIwNS_11char_traitsIwEEE6snextcEv
Q0c:_fstatat
wq:_emscripten_glCheckFramebufferStatus
iDd:__ZNSt3__212basic_stringIcNS_11char_traitsIcEENS_9allocatorIcEEEaSESt16initializer_listIcE
Coc:_FT_GlyphLoader_Add
fi:___syscall118
i1:__ZNSt3__26__treeINS_12__value_typeIiiEENS_19__map_value_compareIiS2_NS_4lessIiEELb1EEENS_9allocatorIS2_EEE25__emplace_unique_key_argsIiJRKNS_21piecewise_construct_tENS_5tupleIJRKiEEENSE_IJEEEEEENS_4pairINS_15__tree_iteratorIS2_PNS_11__tree_nodeIS2_PvEEiEEbEERKT_DpOT0_
Rb:invoke_viiddi
pk:__embind_finalize_value_object
i6b:__ZL9os_removeP9lua_State
oud:__ZNKSt3__28time_getIcNS_19istreambuf_iteratorIcNS_11char_traitsIcEEEEE3getES4_S4_RNS_8ios_baseERjP2tmcc
yBd:__ZNSt3__213random_deviceD2Ev
ei:___syscall114
tLb:_emit_eobrun
xmc:_af_latin_hints_compute_segments
as:_emscripten_glGetUniformLocation
X2:__ZN8TTBMFontD0Ev
_qa:__Z8getAppIdv
_lb:__ZNSt3__23setIPN14GGSoundManager7ChannelENS_4lessIS3_EENS_9allocatorIS3_EEED2Ev
Zoa:__ZNSt3__26__treeINS_12__value_typeImPN12_GLOBAL__N_121GGStreamOpenALManager7ChannelEEENS_19__map_value_compareImS6_NS_4lessImEELb1EEENS_9allocatorIS6_EEE25__emplace_unique_key_argsImJRKNS_21piecewise_construct_tENS_5tupleIJRKmEEENSI_IJEEEEEENS_4pairINS_15__tree_iteratorIS6_PNS_11__tree_nodeIS6_PvEEiEEbEERKT_DpOT0_
FWb:_lua_insert
gtd:__ZNKSt3__220__codecvt_utf8_utf16IDsE11do_encodingEv
c8b:__ZN8pystring2os4path13abspath_posixERKNSt3__212basic_stringIcNS2_11char_traitsIcEENS2_9allocatorIcEEEESA_
S$a:__ZN9b2Contact14SetRestitutionEf
RCc:_ft_gzip_stream_io
yRb:_AddVertex
ZAc:_raccess_guess_darwin_hfsplus
SBa:__ZNK13b2DynamicTree12GetAreaRatioEv
IJb:_jpeg_fdct_4x4
Z$c:_tre_ast_to_tnfa
atd:__ZNKSt3__220__codecvt_utf8_utf16IDiE9do_lengthER11__mbstate_tPKcS5_j
OT:__ZNSt3__26vectorIiNS_9allocatorIiEEE21__push_back_slow_pathIiEEvOT_
uka:__ZNSt3__23mapINS_12basic_stringIcNS_11char_traitsIcEENS_9allocatorIcEEEENS_6vectorIhNS4_IhEEEENS_4lessIS6_EENS4_INS_4pairIKS6_S9_EEEEEixEOS6_
RMb:__ZN17CPVRTResourceFileD0Ev
AN:__ZN12VertexBufferItEaSERKS0_
uOa:__ZZN16b2ParticleSystem12RotateBufferEiiiENK10NewIndicesixEi
qv:_emscripten_vr_get_display_name
Ou:_emscripten_set_pointerlockchange_callback
xnc:_af_indic_metrics_init
Zqb:_g_getInstance
Hhb:_gtexture_set_spritefactory
YQd:__ZN10__cxxabiv112_GLOBAL__N_111short_allocINS0_11string_pairELj4096EE8allocateEj
occ:_process_extra
Dob:_gaudio_BackgroundChannelSetPaused
gJd:__ZNSt3__212basic_stringIwNS_11char_traitsIwEENS_9allocatorIwEEE6__initEPKwjj
IL:__ZN13KeyboardEventD2Ev
Nrb:_g_fseeko
uyc:_ps_hints_t1stem3
A0c:_parse_bracket_terms
po:_eglChooseConfig
Wca:__ZN7Matrix49transposeEv
Rf:_SDL_SetColorKey
kqd:__ZNSt3__212ctype_bynameIwED0Ev
sTb:_unzOpen
iOa:__ZNSt3__212__rotate_gcdIPP15b2ParticleGroupEET_S4_S4_S4_
Ema:_ginput_removeCallback
Osa:__ZNK10emscripten8internal12WithPoliciesIJEE11ArgTypeListIJiNS_3valES4_RS4_NS_11memory_viewIhEES4_S4_iiiEE8getTypesEv
sua:__ZN10emscripten8internal12MethodCallerIvJNS_11memory_viewIhEEEE4callEPNS0_7_EM_VALEPKcOS3_
jKd:__ZNSt3__29to_stringEi
yna:__ZNSt3__26__treeINS_12__value_typeINS_12basic_stringIcNS_11char_traitsIcEENS_9allocatorIcEEEE13GGAudioLoaderEENS_19__map_value_compareIS7_S9_NS_4lessIS7_EELb1EEENS5_IS9_EEE25__emplace_unique_key_argsIS7_JRKNS_21piecewise_construct_tENS_5tupleIJOS7_EEENSK_IJEEEEEENS_4pairINS_15__tree_iteratorIS9_PNS_11__tree_nodeIS9_PvEEiEEbEERKT_DpOT0_
mKd:__ZNSt3__29to_stringEj
sKd:__ZNSt3__29to_stringEm
iob:_gaudio_ChannelIsPaused
Coa:__ZNSt3__212__deque_baseINS_4pairIjjEENS_9allocatorIS2_EEE5beginEv
Lcc:_INT123_init_layer3
HKd:__ZNSt3__29to_stringEe
EKd:__ZNSt3__29to_stringEd
HTa:__ZN5Pixel8setWidthEf
A2:__ZNSt3__214__split_bufferIN6TTFont8FontFaceERNS_9allocatorIS2_EEED2Ev
vKd:__ZNSt3__29to_stringEx
gYb:__ZL8txtTokenP8LexStatei
NCc:_ft_gzip_get_uncompressed_size
_cd:__ZNSt3__215basic_streambufIcNS_11char_traitsIcEEE5sgetcEv
epa:__ZNSt3__26__treeIPN12_GLOBAL__N_121GGStreamOpenALManager7ChannelENS_4lessIS4_EENS_9allocatorIS4_EEE16__insert_node_atEPNS_15__tree_end_nodeIPNS_16__tree_node_baseIPvEEEERSE_SE_
P_a:__ZN12Box2DBinder217getPulleyJointDefEP9lua_State
ssd:__ZNKSt3__215__codecvt_utf16IDsLb1EE13do_max_lengthEv
Zbd:__ZNSt3__29basic_iosIcNS_11char_traitsIcEEE7copyfmtERKS3_
_ub:_gz_decomp
aBa:__Z16b2GetPointStatesP12b2PointStateS0_PK10b2ManifoldS3_
Zk:__emval_call
pt:_emscripten_glVertexAttrib4f
TXd:b68
gkb:__ZN6gevent12EventManager15scope_exit_freeD2Ev
fc:invoke_viiidddiiddi
us:_emscripten_glPixelStorei
Cfd:__ZNSt3__213basic_istreamIwNS_11char_traitsIwEEE8readsomeEPwi
UG:throwUnboundTypeError
KBb:_png_set_gray_to_rgb
sna:__ZN14GGAudioManager30deleteBackgroundMusicInterfaceEv
YSb:_ftell_file_func
xuc:_cf2_hint_initZero
oma:__ZN6ginput12InputManager10callback_sEiPvS1_
WBb:_png_image_finish_read
Rqc:_Ins_EVEN
p$c:_initstate
uSa:__ZN12ScreenBinder5clearEP9lua_State
VEd:__ZNKSt3__212basic_stringIcNS_11char_traitsIcEENS_9allocatorIcEEE4findEPKcj
JAb:_png_set_bKGD
ymb:__ZNSt3__26__treeINS_12__value_typeImPN14GGSoundManager7ChannelEEENS_19__map_value_compareImS5_NS_4lessImEELb1EEENS_9allocatorIS5_EEE16__insert_node_atEPNS_15__tree_end_nodeIPNS_16__tree_node_baseIPvEEEERSH_SH_
_ad:__ZNSt3__213basic_istreamIcNS_11char_traitsIcEEED1Ev
H8b:__ZN6snappyL8EmitCopyEPcji
Aeb:__ZN5Event5applyEP12EventVisitor
yab:__ZNSt3__26__treeINS_12__value_typeIiNS_6vectorIP12CppLuaBridgeNS_9allocatorIS4_EEEEEENS_19__map_value_compareIiS8_NS_4lessIiEELb1EEENS5_IS8_EEE25__emplace_unique_key_argsIiJRKNS_21piecewise_construct_tENS_5tupleIJRKiEEENSJ_IJEEEEEENS_4pairINS_15__tree_iteratorIS8_PNS_11__tree_nodeIS8_PvEEiEEbEERKT_DpOT0_
L6:__ZNSt3__214__split_bufferIP5TimerRNS_9allocatorIS2_EEED2Ev
dgd:__ZNSt3__213basic_ostreamIcNS_11char_traitsIcEEElsEPKv
Sdc:_INT123_synth_2to1_mono
sFa:__ZN16b2ParticleSystem21UserOverridableBufferI6b2Vec2EC2Ev
yWa:__ZNK17GGTextInputDialog7getTextEv
Jyd:__ZNSt3__26locale5__imp7installINS_14collate_bynameIwEEEEvPT_
Vg:_XSendEvent
TF:_waitpid
LDa:__ZN16b2ParticleSystem25FreeUserOverridableBufferI15b2ParticleColorEEvPNS_21UserOverridableBufferIT_EE
gJ:__ZN9Particles11addParticleEffffi
Xda:__ZN12ShaderEngine8getColorERfS0_S0_S0_
aVa:__ZN12_GLOBAL__N_114GGSoundChannel4stopEv
ec:ftCall_viiiddddidi
xab:__ZNSt3__23mapIiNS_6vectorIP12CppLuaBridgeNS_9allocatorIS3_EEEENS_4lessIiEENS4_INS_4pairIKiS6_EEEEEixERSA_
C4:__ZL18createSolidPolygonffffRKNSt3__26vectorINS0_I6Point2IfENS_9allocatorIS2_EEEENS3_IS5_EEEEbR12GraphicsBase
OZc:___inet_aton
h6b:__ZL9os_getenvP9lua_State
ZI:__GLOBAL__sub_I_particles_cpp
Vjb:__ZNSt3__26__treeIPN9g_private14TextureManager18TempTextureElementENS_4lessIS4_EENS_9allocatorIS4_EEE25__emplace_unique_key_argsIS4_JRKS4_EEENS_4pairINS_15__tree_iteratorIS4_PNS_11__tree_nodeIS4_PvEEiEEbEERKT_DpOT0_
UYb:__ZL4addkP9FuncStateP10lua_TValueS2_
sp:_emscripten_autodebug_i8
Z6a:__ZN12SpriteBinder9getParentEP9lua_State
msd:__ZNKSt3__215__codecvt_utf16IDsLb1EE6do_outER11__mbstate_tPKDsS5_RS5_PcS7_RS7_
b2a:__ZN12Box2DBinder230b2RevoluteJoint_getMotorTorqueEP9lua_State
IMd:__ZNSt3__218__hidden_allocatorINS_4pairIPNS_18condition_variableEPNS_5mutexEEEE10deallocateEPS6_j
O5a:__ZNSt3__214__split_bufferIN8FontBase8FontSpecERNS_9allocatorIS2_EEED2Ev
Jzc:_ft_cubic_is_small_enough
aE:_pthread_mutexattr_destroy
UIa:__ZN16b2ParticleSystem16ConnectionFilterC2Ev
Zb:invoke_viidiiii
Cja:__ZN14NetworkManagerD2Ev
hBb:_png_read_start_row
RFd:__ZNKSt3__212basic_stringIwNS_11char_traitsIwEENS_9allocatorIwEEE7__allocEv
xKb:_write_marker_header
Uga:__ZN16ogl2ShaderEngine11bindTextureEiP13ShaderTexture
f8b:__ZN8pystring2os4path10join_posixERKNSt3__26vectorINS2_12basic_stringIcNS2_11char_traitsIcEENS2_9allocatorIcEEEENS7_IS9_EEEE
R9b:_INT123_compat_open
GSc:___DOUBLE_BITS_264
cyd:__ZNSt3__26locale5__imp7installINS_9money_putIwNS_19ostreambuf_iteratorIwNS_11char_traitsIwEEEEEEEEvPT_
ODb:_png_write_sCAL_s
sTd:_i64Add
uUc:_lrint
UNa:__ZNK15b2ParticleColor6IsZeroEv
Zha:__ZL13add_fill_quadP4pathffffffff
Ttb:_z_zcfree
Mhc:_Bezier_Down
lma:__ZN6ginput12InputManager7keyDownEPKcS2_
PMa:__ZN15b2FrictionJoint12SetMaxTorqueEf
Jfd:__ZNSt3__213basic_ostreamIcNS_11char_traitsIcEEEC2EPNS_15basic_streambufIcS2_EE
_ib:__ZNSt3__26__treeIPN9g_private14TextureElementENS_4lessIS3_EENS_9allocatorIS3_EEEC2ERKS5_
Nlb:__ZNSt3__26__treeINS_12__value_typeINS_12basic_stringIcNS_11char_traitsIcEENS_9allocatorIcEEEE13GGAudioLoaderEENS_19__map_value_compareIS7_S9_NS_4lessIS7_EELb1EEENS5_IS9_EEED2Ev
$Bd:__ZNSt11logic_errorC2ERKNSt3__212basic_stringIcNS0_11char_traitsIcEENS0_9allocatorIcEEEE
CMd:__ZNSt3__221__thread_specific_ptrINS_15__thread_structEE16__at_thread_exitEPv
FDc:_read16l
_Sc:___DOUBLE_BITS_269
FW:__ZNK11Application19getLogicalScaleModeEv
Wla:__ZNSt3__26vectorIP15ginput_KeyEventNS_9allocatorIS2_EEE26__swap_out_circular_bufferERNS_14__split_bufferIS2_RS4_EE
Gkb:__ZN6gevent12EventManager9equal_gidINS0_17EventQueueElementEEC2Em
V9:__ZNSt3__212__deque_baseIPK6SpriteNS_9allocatorIS3_EEE5clearEv
Dnb:__ZN14GGAudioManager21ChannelRemoveCallbackEmPFviPvS0_ES0_
lEb:_png_image_size
Ska:__ZNSt3__26vectorINS_12basic_stringIcNS_11char_traitsIcEENS_9allocatorIcEEEENS4_IS6_EEE21__push_back_slow_pathIS6_EEvOT_
A5:__ZN5TimerD0Ev
Bda:__ZN7Matrix47rotateZEf
NQd:__ZNSt3__212basic_stringIcNS_11char_traitsIcEEN10__cxxabiv112_GLOBAL__N_112malloc_allocIcEEE6insertIPKcEENS_9enable_ifIXaasr21__is_forward_iteratorIT_EE5valuesr38__libcpp_string_gets_noexcept_iteratorISC_EE5valueENS_11__wrap_iterIPcEEE4typeENSD_ISA_EESC_SC_
z1b:__ZL8load_auxP9lua_Statei
yea:__ZNSt3__214__split_bufferIPN12ShaderEngine12DepthStencilENS_9allocatorIS3_EEE9push_backEOS3_
H1:__ZNK11TTTextField11extraBoundsEPfS0_S0_S0_
e9c:__ZNSt3__28__c_node5__addEPNS_8__i_nodeE
Byb:_png_get_sRGB
Fod:__ZNKSt3__28messagesIcE6do_getEiiiRKNS_12basic_stringIcNS_11char_traitsIcEENS_9allocatorIcEEEE
cka:__ZNSt3__214__split_bufferINS_4pairINS_12basic_stringIcNS_11char_traitsIcEENS_9allocatorIcEEEEfEERNS5_IS8_EEED2Ev
bZc:_ether_ntoa
Nwa:__ZN25b2PolygonAndCircleContactD0Ev
Tba:__ZN14ColorTransform18setAlphaMultiplierEf
tsc:_tt_face_load_cvt
_Ra:__ZNSt3__23mapIP7ClosureP11ProfileInfoNS_4lessIS2_EENS_9allocatorINS_4pairIKS2_S4_EEEEEixERS9_
zda:__ZN7Matrix47rotateXEf
aib:__ZNSt3__26__treeINS_12__value_typeImPN9g_private14TextureElementEEENS_19__map_value_compareImS5_NS_4lessImEELb1EEENS_9allocatorIS5_EEE7destroyEPNS_11__tree_nodeIS5_PvEE
Bmd:__ZNSt3__210moneypunctIcLb1EED2Ev
m_c:___res_mkquery
L$b:_lua_yield
cba:__ZNSt3__25dequeI7Matrix4NS_9allocatorIS1_EEE19__add_back_capacityEj
b5c:_mkdtemp
Mwd:__ZNSt3__211__money_putIwEC2Ev
VRc:_wctrans_l
Tn:_ceilf
QIc:__ZN10emscripten8internal11LightTypeIDIfE3getEv
cNb:__ZN6snappy6SourceD0Ev
hY:__ZN5Pixel10setTextureEP11TextureBaseiPK7Matrix4
gYa:__ZNSt3__26vectorI12ghttp_HeaderNS_9allocatorIS1_EEE18__construct_at_endEj
Un:_ceill
wvb:_z_gzoffset
pba:__ZNSt3__25dequeI7Matrix4NS_9allocatorIS1_EEE19__add_back_capacityEv
b5:__ZN10Tesselator14VertexCallbackEPv
M5:__ZNSt3__24pairIKiNS_6vectorIP8SlotBaseNS_9allocatorIS4_EEEEED2Ev
a7a:__ZN12SpriteBinder16removeFromParentEP9lua_State
Pfc:_mpg123_clip
usa:__ZN10emscripten8internal11LightTypeIDIRmE3getEv
nd:_Mix_LoadMUS_RW
C2:__ZNSt3__26vectorIN8FontBase8FontSpecENS_9allocatorIS2_EEE18__construct_at_endIPS2_EENS_9enable_ifIXsr21__is_forward_iteratorIT_EE5valueEvE4typeES9_S9_j
c8:__ZN14TextureManager20createTextureFromDibERK3DibRK17TextureParameters
qza:__ZNK15b2DistanceJoint10GetAnchorAEv
Uo:_emscripten_alcDeviceResumeSOFT
wH:FUNCTION_TABLE_iiiiiiiiii
WMc:___lctrans
nCa:__ZN9b2Fixture7GetBodyEv
SUa:__ZN12_GLOBAL__N_114GGSoundChannel8isPausedEv
hsa:__ZN10emscripten8internal9SignatureIiJNS_3valES2_RS2_S2_S2_S2_iiiEE18init_method_callerEv
jac:_mpg123_fmt_none
Waa:__ZNSt3__214__split_bufferIP9_cliprectRNS_9allocatorIS2_EEED2Ev
JCa:__ZNK13b2DynamicTree11GetUserDataEi
dPa:__ZZN16b2ParticleSystem33CreateParticlesWithShapesForGroupEPKPK7b2ShapeiRK18b2ParticleGroupDefRK11b2TransformENK14CompositeShape11ComputeAABBEP6b2AABBSA_i
sRc:_vstrfmon_l
dgc:_mpg123_set_filesize
Inb:__ZN14GGAudioManager24BackgroundMusicGetLengthEm
aGd:__ZNSt3__212basic_stringIwNS_11char_traitsIwEENS_9allocatorIwEEEC2EPKwRKS4_
vMc:_processblock_63
mO:__ZN13TextFieldBaseD2Ev
Kzd:__ZNSt3__26locale5__imp12install_fromINS_8time_putIwNS_19ostreambuf_iteratorIwNS_11char_traitsIwEEEEEEEEvRKS1_
Ebd:__ZNKSt3__29basic_iosIcNS_11char_traitsIcEEEcvbEv
ekb:__ZNSt3__25dequeIN6gevent12EventManager17EventQueueElementENS_9allocatorIS3_EEE9pop_frontEv
Xqb:_g_pushInstance
P2a:__ZN12Box2DBinder218b2Body_ApplyTorqueEP9lua_State
q7a:__ZN12SpriteBinder4setXEP9lua_State
cac:_mpg123_encsize
Iva:__Z7b2CrossRK6b2Vec2S1_
nsb:_g_setVfs
Cra:__ZNSt3__26__treeINS_12__value_typeINS_12basic_stringIcNS_11char_traitsIcEENS_9allocatorIcEEEES7_EENS_19__map_value_compareIS7_S8_NS_4lessIS7_EELb1EEENS5_IS8_EEE25__emplace_unique_key_argsIS7_JRKNS_21piecewise_construct_tENS_5tupleIJRKS7_EEENSJ_IJEEEEEENS_4pairINS_15__tree_iteratorIS8_PNS_11__tree_nodeIS8_PvEEiEEbEERKT_DpOT0_
P1:__ZNK11TTTextField13letterSpacingEv
bmd:__ZNSt3__28time_putIcNS_19ostreambuf_iteratorIcNS_11char_traitsIcEEEEED0Ev
mdc:_INT123_synth_2to1_8bit
fva:__ZN11b2EdgeShapeaSERKS_
c1:__ZNSt3__26__treeINS_12__value_typeIiNS_6vectorIPN9MovieClip5FrameENS_9allocatorIS5_EEEEEENS_19__map_value_compareIiS9_NS_4lessIiEELb1EEENS6_IS9_EEE12__find_equalIiEERPNS_16__tree_node_baseIPvEERPNS_15__tree_end_nodeISK_EERKT_
jUc:_log10l
Fvd:__ZNKSt3__210moneypunctIcLb1EE11curr_symbolEv
QO:__ZNSt3__214__split_bufferIN11TexturePack4RectERNS_9allocatorIS2_EEED2Ev
bdd:__ZNSt3__215basic_streambufIcNS_11char_traitsIcEEE7sungetcEv
R2:__ZN13KeyboardEvent5applyEP12EventVisitor
wcc:_INT123_fi_add
JFc:_update_volume
Z1a:__ZN12Box2DBinder227b2RevoluteJoint_enableMotorEP9lua_State
Upc:_Ins_SMD
qma:__ZNSt3__26__treeINS_12__value_typeINS_12basic_stringIcNS_11char_traitsIcEENS_9allocatorIcEEEEiEENS_19__map_value_compareIS7_S8_NS_4lessIS7_EELb1EEENS5_IS8_EEE4findIS7_EENS_15__tree_iteratorIS8_PNS_11__tree_nodeIS8_PvEEiEERKT_
i0a:__ZN11b2DebugDraw15DrawSolidCircleERK6b2Vec2fS2_RK7b2Color
hJa:__ZL25b2ParticleContactIsZombieRK17b2ParticleContact
qbb:__ZNK15EnterFrameEvent9deltaTimeEv
Qfc:_mpg123_getformat
K6:__ZNSt3__26vectorIP5TimerNS_9allocatorIS2_EEE26__swap_out_circular_bufferERNS_14__split_bufferIS2_RS4_EE
uqa:__ZNSt3__26__treeINS_12__value_typeImPN21GGSampleOpenALManager7ChannelEEENS_19__map_value_compareImS5_NS_4lessImEELb1EEENS_9allocatorIS5_EEE13__lower_boundImEENS_15__tree_iteratorIS5_PNS_11__tree_nodeIS5_PvEEiEERKT_SI_PNS_15__tree_end_nodeIPNS_16__tree_node_baseISG_EEEE
Qnc:_FT_Get_Next_Char
Fta:_ggeolocation_isAvailable
bm:_alEnable
c$a:__ZL7toJointRK6BinderiPKc
_Ja:__ZNSt3__26__sortIRPFbRK21b2ParticleBodyContactS3_EPS1_EEvT0_S8_T_
Cwb:_png_muldiv
xOa:__ZN16b2ParticleSystem13RequestBufferIP16b2ParticleHandleEEPT_S4_
h_c:_labelof
Znd:__ZNSt3__29money_getIcNS_19istreambuf_iteratorIcNS_11char_traitsIcEEEEED0Ev
M4:__ZN10TesselatorD2Ev
S3:__ZNSt3__26__treeINS_12__value_typeIiN8TTBMFont12TextureGlyphEEENS_19__map_value_compareIiS4_NS_4lessIiEELb1EEENS_9allocatorIS4_EEEC2ERKS8_
Tgc:_ft_outline_glyph_copy
OR:__ZN13CompleteEvent5applyEP12EventVisitor
kA:_glfwDestroyThread
Bwc:_cff_vstore_load
$sa:_gui_cleanup
Aqb:_luaL_getdata
hA:_glfwCreateThread
aA:_glewGetString
q_a:__ZN9DibBinder8destructEP9lua_State
oH:FUNCTION_TABLE_iiii
Yqb:_g_isInstanceOf
Q8c:__ZNSt3__224__libcpp_debug_exceptionC2ERKNS_19__libcpp_debug_infoE
Acd:__ZNSt3__29basic_iosIwNS_11char_traitsIwEEE4initEPNS_15basic_streambufIwS2_EE
fEd:__ZNSt3__212basic_stringIcNS_11char_traitsIcEENS_9allocatorIcEEE4backEv
nq:_emscripten_glBindVertexArray
dk:___syscall9
ama:_ginput_cleanup
Aj:___syscall324
ai:___syscall1
ric:_tt_cmap4_set_range
zj:___syscall320
Vj:___syscall6
Rj:___syscall5
Nj:___syscall4
psc:_tt_done_blend
rVa:__ZN12_GLOBAL__N_17GGSoundD2Ev
tQc:_dngettext
_2b:__ZL3LeqP9lua_State
M7b:__ZN8pystring5countERKNSt3__212basic_stringIcNS0_11char_traitsIcEENS0_9allocatorIcEEEES8_ii
dOc:_iswlower
tFc:_smix_stereo_8bit_spline
QJ:__ZNSt3__26vectorIfNS_9allocatorIfEEE18__construct_at_endEj
ph:___block_all_sigs
nbd:__ZNSt3__213basic_ostreamIwNS_11char_traitsIwEEED1Ev
uXd:b53
Ujb:__ZNSt3__26__treeIPN9g_private14TextureManager18TempTextureElementENS_4lessIS4_EENS_9allocatorIS4_EEEC2ERKS6_
j3c:_tempnam
Bv:_emscripten_webgl_commit_frame
Ina:__ZN12_GLOBAL__N_121GGStreamOpenALManagerC2Ev
lod:__ZNSt3__29money_getIwNS_19istreambuf_iteratorIwNS_11char_traitsIwEEEEE8__do_getERS4_S4_bRKNS_6localeEjRjRbRKNS_5ctypeIwEERNS_10unique_ptrIwPFvPvEEERPwSM_
gP:__ZNSt3__213__vector_baseI3DibNS_9allocatorIS1_EEED2Ev
BHb:_jpeg_idct_12x12
Pna:__ZN12_GLOBAL__N_121GGStreamOpenALManager14SoundGetLengthEm
pab:__ZN21EventDispatcherBinderC2EP9lua_State
cwa:__ZNK13b2CircleShape7RayCastEP15b2RayCastOutputRK14b2RayCastInputRK11b2Transformi
iac:_mpg123_format_none
vCc:_FT_Stream_ReadULongLE
z9c:__ZNSt13exception_ptraSERKS_
Cs:_emscripten_glShaderBinary
XNb:__ZN6Server4tickEP12NetworkEvent
Dmb:__ZNKSt3__26__treeIPN14GGSoundManager7ChannelENS_4lessIS3_EENS_9allocatorIS3_EEE10__root_ptrEv
Zvb:_png_create_png_struct
Eo:_eglQueryAPI
kPb:__ZN11CPVRTString6assignEjc
_Da:__ZN15b2SlabAllocatorI16b2ParticleHandleE12FreeAllSlabsEv
Zm:_alSourceRewind
zEa:__ZN16b2ParticleSystem16ReallocateBufferI15b2ParticleColorEEPT_S3_ii
hGd:__ZNKSt3__212basic_stringIwNS_11char_traitsIwEENS_9allocatorIwEEE4sizeEv
g8c:__ZNSt3__27__sort4IRNS_6__lessIeeEEPeEEjT0_S5_S5_S5_T_
kc:ftCall_viiididi
FFb:_access_virt_sarray
GFd:__ZNSt3__212basic_stringIcNS_11char_traitsIcEENS_9allocatorIcEEE6__initEPKcjj
Bm:_alGetSource3f
irc:_Ins_DELTAC
DEc:_get_sample
Wyc:_FT_Glyph_Transform
w5b:__ZL6gmatchP9lua_State
c1a:__ZNK12b2WheelJoint17GetMaxMotorTorqueEv
jZc:___rtnetlink_enumerate
CS:__ZNK15MaxRectsBinPack37FindPositionForNewNodeBestLongSideFitEiiRiS0_
O3b:__ZL10Lutf8_gsubP9lua_State
ELd:__ZTv0_n12_NSt3__29strstreamD1Ev
Soc:_FT_Hypot
qFc:_smix_stereo_16bit_nearest
Xcc:_INT123_getbits_139
azc:_FT_Outline_GetOutsideBorder
xGb:_process_data_simple_main
rma:__ZNSt3__26__treeINS_12__value_typeINS_12basic_stringIcNS_11char_traitsIcEENS_9allocatorIcEEEEiEENS_19__map_value_compareIS7_S8_NS_4lessIS7_EELb1EEENS5_IS8_EEE13__lower_boundIS7_EENS_15__tree_iteratorIS8_PNS_11__tree_nodeIS8_PvEEiEERKT_SK_PNS_15__tree_end_nodeIPNS_16__tree_node_baseISI_EEEE
vKa:__ZNK12_GLOBAL__N_122TypedFixedSetAllocatorINS_15LightweightPairIP9b2FixtureiEEE9GetBufferEv
Xlb:__ZNSt3__26__treeINS_12__value_typeImPN14GGSoundManager7ChannelEEENS_19__map_value_compareImS5_NS_4lessImEELb1EEENS_9allocatorIS5_EEE14__erase_uniqueImEEjRKT_
_sa:_gui_init
$Qa:__ZL13lzlib_adler32P9lua_State
FAd:__ZNSt3__25mutexD2Ev
Xe:_SDL_HasSSE
t8:__ZNK6Sprite8getStageEv
mZ:__ZNSt3__26vectorIdNS_9allocatorIdEEEC2ERKS3_
rId:__ZNSt3__211char_traitsIwE7compareEPKwS3_j
OHb:_post_process_1pass
xMc:_vsprintf
Ll:_abort
mP:__ZNSt3__214__split_bufferI3DibRNS_9allocatorIS1_EEED2Ev
pO:__ZN13TextFieldBase13getDimensionsERfS0_
Q7b:__ZN8pystring2os4path13splitdrive_ntERNSt3__212basic_stringIcNS2_11char_traitsIcEENS2_9allocatorIcEEEES9_RKS8_
XG:validateThis
jz:_glTexImage2D
OGc:_xmp_release_module
jJ:__ZNSt3__26vectorIN9Particles5ColorENS_9allocatorIS2_EEE6resizeEj
bf:_SDL_JoystickGetAxis
AX:__ZNKSt3__26vectorIPNS0_IP11GReferencedNS_9allocatorIS2_EEEENS3_IS6_EEE8max_sizeEv
IWb:_lua_type
vOc:___iswpunct_l
cq:_emscripten_get_visibility_status
hna:__ZN6ginput12InputManager8touchEndEiiii
ihd:__ZNSt3__28ios_base4InitD2Ev
iqc:_Ins_CALL
cxc:_ps_check_extra_glyph_name
ewb:_png_data_freer
DGb:_jround_up
fFd:__ZNKSt3__212basic_stringIcNS_11char_traitsIcEENS_9allocatorIcEEE13find_first_ofEcj
uQc:_dgettext
WZc:_inet_ntop
Ixd:__ZNSt3__26locale5__imp7installINS_7num_getIcNS_19istreambuf_iteratorIcNS_11char_traitsIcEEEEEEEEvPT_
aTa:__ZN15ParticlesBinder8isPausedEP9lua_State
Wvc:_cff_make_private_dict
Mga:__ZN16ogl2ShaderEngine14setFramebufferEP12ShaderBuffer
bdb:__ZN6Binder18enableTypeCheckingEv
XUa:__ZN12_GLOBAL__N_114GGSoundChannel8setPitchEf
Ysd:__ZNKSt3__220__codecvt_utf8_utf16IDiE5do_inER11__mbstate_tPKcS5_RS5_PDiS7_RS7_
UI:__ZNSt3__213__vector_baseIN9Particles5ColorENS_9allocatorIS2_EEED2Ev
KWb:_lua_iscfunction
cKa:__ZNK9b2Fixture9TestPointERK6b2Vec2
A4b:__ZL13add_valueUTF8P14MatchStateUTF8P11luaL_BufferPKcS4_i
Kua:__ZNK11b2EdgeShape7RayCastEP15b2RayCastOutputRK14b2RayCastInputRK11b2Transformi
W8:__ZN9TransformC2Ev
Dta:_ggeolocation_cleanup
I_b:__ZL5errorP9LoadStatePKc
Vpd:__ZNKSt3__25ctypeIcE10do_toupperEc
uvd:__ZNKSt3__210moneypunctIcLb0EE8groupingEv
MYb:__ZL7exp2regP9FuncStateP7expdesci
uIa:__ZN16b2ParticleSystem16ReallocateBufferINS_5TriadEEEPT_S3_ii
Hf:_SDL_PushEvent
T1c:_mwrite
jGa:__ZN9b2Contact10SetEnabledEb
y4:__ZN5Shape7endPathEv
mPc:_pntz
PW:__ZNSt3__27__sort4IRNS_6__lessIN11Application10ImageScaleES3_EEPS3_EEjT0_S7_S7_S7_T_
R$c:___tre_mem_new_impl
ajc:_tt_cmap14_get_info
Xs:_emscripten_glUniform2iv
V8b:__ZN6snappy18SnappyDecompressorC2EPNS_6SourceE
Dvd:__ZNKSt3__210moneypunctIcLb1EE13thousands_sepEv
TLb:_start_pass_downsample
Bid:__ZNSt3__215__num_get_floatIeEET_PKcS3_Rj
iGa:__ZN6b2Body7AdvanceEf
aZa:__ZN17ApplicationBinder7openUrlEP9lua_State
aSd:__ZSt15get_new_handlerv
$Nd:__ZNSt13runtime_errorD0Ev
anc:_af_glyph_hints_done
vY:__ZN6ScreenD0Ev
ena:_ginputp_touchMove
Skd:__ZNKSt3__220__time_get_c_storageIwE8__monthsEv
zP:__ZNK8Matrix2D3m12Ev
_r:_emscripten_glGetTexParameterfv
y0a:__ZN12Box2DBinder224b2RopeJoint_setMaxLengthEP9lua_State
xRc:_strncasecmp
m0c:_tre_ast_new_node
lG:floatReadValueFromPointer
jK:__ZN9Particles10setTextureEP11TextureBase
UEc:_player_set_fadeout
Y6a:__ZN12SpriteBinder10getChildAtEP9lua_State
SRb:_RemoveDegenerateFaces
Cjc:_FT_Stream_ReadUShort
Ycd:__ZNSt3__215basic_streambufIcNS_11char_traitsIcEEE6snextcEv
ZUb:_luaH_new
Kv:_emscripten_wget_data
Twb:_is_ICC_signature
dBa:__ZN6b2Vec2clEi
Sxc:_psh_blues_scale_zones
Yhd:__ZNKSt3__27collateIwE12do_transformEPKwS3_
PRd:__ZN10__cxxabiv112_GLOBAL__N_111short_allocINSt3__26vectorINS3_INS0_11string_pairENS1_IS4_Lj4096EEEEENS1_IS6_Lj4096EEEEELj4096EEC2ERNS0_5arenaILj4096EEE
S1c:_mread_2625
zL:__ZNK9EventTypeI10TouchEventE4typeEv
l4:__ZN5Shape9beginPathENS_11WindingRuleE
rsb:_g_fprintf
PG:shallowCopyInternalPointer
JB:_glutReshapeWindow
XGd:__ZNKSt3__212basic_stringIwNS_11char_traitsIwEENS_9allocatorIwEEE8max_sizeEv
jSc:_cbrtf
HVc:_basename
Zqd:__ZNKSt3__25ctypeIwE8do_widenEPKcS3_Pw
j1b:__ZL9luaB_loadP9lua_State
lQa:__ZN14LuaApplicationD2Ev
Pgd:__ZNSt3__213basic_ostreamIwNS_11char_traitsIwEEEC2Ev
Rmc:_ft_glyphslot_clear
nJd:__ZNSt3__24stoiERKNS_12basic_stringIcNS_11char_traitsIcEENS_9allocatorIcEEEEPji
YVa:__ZN10MeshBinder20getTextureCoordinateEP9lua_State
_ya:__ZNK13b2PulleyJoint10GetAnchorBEv
cLb:_start_pass_huff
PUa:__ZN12_GLOBAL__N_114GGSoundChannel16setWorldPositionEffffff
Ksa:__ZN10emscripten8internal11BindingTypeINS_11memory_viewIhEEE10toWireTypeERKS3_
gqb:__ZN8StringId8instanceEv
cIc:__ZN12_GLOBAL__N_1L20register_memory_viewIsEEvPKc
Jpc:_Ins_ISECT
Okd:__ZNKSt3__28time_getIwNS_19istreambuf_iteratorIwNS_11char_traitsIwEEEEE16do_get_monthnameES4_S4_RNS_8ios_baseERjP2tm
tVb:_luaC_link
asa:__ZN10emscripten8internal24GenericWireTypeConverterIiE4fromEd
e2c:_ftell
Xha:__ZN6Path2D10fillBoundsEP12VertexBufferIfEPfP11TextureDataN12ShaderEngine12DepthStencilEP13ShaderProgramPK7Matrix4
Sma:_ginputp_mouseUp
b6a:__ZN11StageBinder14setOrientationEP9lua_State
Rkb:__ZNK6gevent12EventManager10equal_typeINS0_17EventQueueElementEEclERKS2_
kCb:_png_create_colormap_entry
Mqd:__ZNSt3__215numpunct_bynameIcED0Ev
JL:__ZNK9EventTypeI13KeyboardEventE4typeEv
uXc:_strstr
NU:__ZNK16GiderosException6statusEv
cv:_emscripten_set_webglcontextrestored_callback
z:tempValue
DYc:_mbrtoc32
WId:__ZNKSt3__212basic_stringIwNS_11char_traitsIwEENS_9allocatorIwEEE16find_last_not_ofEwj
qJc:_memalign
ePc:_rewinddir
_od:__ZNSt3__215messages_bynameIwED2Ev
Prb:_g_fgets
Clc:_gray_record_cell
GKa:__ZNSt3__227__insertion_sort_incompleteIRPFbRKN12_GLOBAL__N_115LightweightPairIP9b2FixtureiEES7_EPS5_EEbT0_SC_T_
Tra:__ZN10emscripten3valC2IbEEOT_
cza:__ZN13b2PulleyJoint11ShiftOriginERK6b2Vec2
jnb:__ZN14GGAudioManager19SoundCreateFromFileEPKcbP12gaudio_Error
BVb:_luaO_rawequalObj
iW:__ZN11Application7keyCharEPKc
Nv:_emscripten_yield
wSa:__ZN12ScreenBinder7setSizeEP9lua_State
ylc:_gray_convert_glyph_inner
bsb:_g_fgetc
Vea:__ZN16ogl2ShaderBuffer11prepareDrawEv
F5c:_fchownat
Nga:__ZN16ogl2ShaderEngine19createShaderProgramEPKcS1_iPKN13ShaderProgram12ConstantDescEPKNS2_8DataDescE
$ed:__ZNSt3__213basic_istreamIwNS_11char_traitsIwEEErsEPFRS3_S4_E
PZa:__ZN17ApplicationBinder3getEP9lua_State
Hkd:__ZNSt3__220__get_up_to_n_digitsIcNS_19istreambuf_iteratorIcNS_11char_traitsIcEEEEEEiRT0_S5_RjRKNS_5ctypeIT_EEi
mTb:_unz64local_SearchCentralDir
hkb:__ZNSt3__26vectorIN19gevent_CallbackList8CallbackENS_9allocatorIS2_EEE21__push_back_slow_pathIRKS2_EEvOT_
h5:__GLOBAL__sub_I_blendfunc_cpp
dNb:__ZN6snappy15ByteArraySourceD0Ev
Ezb:_png_do_gray_to_rgb
L8c:__ZNSt3__224__libcpp_debug_exception28__libcpp_debug_exception_impD2Ev
eXc:_fscanf
$eb:_SubBytes
YJd:__ZNSt3__212_GLOBAL__N_115as_float_helperIfNS_12basic_stringIwNS_11char_traitsIwEENS_9allocatorIwEEEEPFfPKwPPwEEET_RKNS2_IcNS3_IcEENS5_IcEEEERKT0_PjT1_
QSb:_call_zopen64
TH:FUNCTION_TABLE_viidd
PH:FUNCTION_TABLE_vidid
Z3b:__ZL17push_capturesUTF8P14MatchStateUTF8PKcS2_
Awc:_cff_subfont_load
XH:FUNCTION_TABLE_viidi
gUb:_luaD_throw
tra:_ghttp_onload
Uzb:_png_do_read_swap_alpha
JVd:_sched_yield__wrapper
WR:__ZN15MyTexturePackerD2Ev
Fa:invoke_iiiii
FJa:__ZNSt3__218__insertion_sort_3IRPFbRKN12_GLOBAL__N_115LightweightPairIiiEES5_EPS3_EEvT0_SA_T_
mza:__ZN11b2RopeJointD0Ev
Ptb:_z__tr_flush_bits
nVd:mftCall_viiiii
Xna:__ZN12_GLOBAL__N_121GGStreamOpenALManager16ChannelIsPlayingEm
$b:invoke_viii
Oca:__ZNK9Transform1yEv
igb:__ZN9g_private12TimerManagerC2Ev
pe:_SDL_GL_ExtensionSupported
iZa:__ZN17ApplicationBinder11getLanguageEP9lua_State
fsd:__ZNKSt3__215__codecvt_utf16IDsLb0EE16do_always_noconvEv
TN:__ZNSt3__26vectorI6Point2IfENS_9allocatorIS2_EEE8__appendEj
JDb:_png_write_tRNS
Jb:invoke_viid
e8c:__ZNSt3__26__sortIRNS_6__lessIeeEEPeEEvT0_S5_T_
bLa:__ZN16b2ParticleSystem16SetParticleFlagsEij
iFd:__ZNKSt3__212basic_stringIcNS_11char_traitsIcEENS_9allocatorIcEEE12find_last_ofEPKcjj
Uxa:__ZN6b2Vec3C2Efff
KRc:_towupper_l
YUa:__ZN12_GLOBAL__N_114GGSoundChannel9getVolumeEv
uNa:__ZNK13b2PulleyJoint17GetCurrentLengthAEv
hG:ensureOverloadTable
tpa:__ZNSt3__26__treeINS_12__value_typeImPN12_GLOBAL__N_121GGStreamOpenALManager7ChannelEEENS_19__map_value_compareImS6_NS_4lessImEELb1EEENS_9allocatorIS6_EEE7destroyEPNS_11__tree_nodeIS6_PvEE
gmc:_af_latin_hints_apply
uTa:__ZN11PixelBinder18getTexturePositionEP9lua_State
jTb:_unz64local_getLong
kKd:__ZNKSt3__212_GLOBAL__N_114initial_stringINS_12basic_stringIcNS_11char_traitsIcEENS_9allocatorIcEEEEiLb0EEclEv
AGb:_set_wraparound_pointers
Dud:__ZNSt3__218__time_get_storageIcE9__analyzeEcRKNS_5ctypeIcEE
JYb:_luaK_storevar
iza:__ZNK11b2RopeJoint10GetAnchorBEv
fNc:_sha256_sum
Sh:___libc_current_sigrtmax
URd:___cxa_guard_abort
pN:__ZN12GraphicsBaseC2Ev
C$a:__ZN12Box2DBinder220b2Contact_isTouchingEP9lua_State
U9c:__ZNSt3__217__assoc_sub_state4copyEv
f4:__ZNSt3__26vectorIP11TextureBaseNS_9allocatorIS2_EEE21__push_back_slow_pathIRKS2_EEvOT_
eSa:__ZNSt3__26__treeINS_12__value_typeIP7ClosureP11ProfileInfoEENS_19__map_value_compareIS3_S6_NS_4lessIS3_EELb1EEENS_9allocatorIS6_EEE16__insert_node_atEPNS_15__tree_end_nodeIPNS_16__tree_node_baseIPvEEEERSI_SI_
Fo:_eglQueryContext
Etb:_build_bl_tree
bB:_glfwSignalCond
npd:__ZNKSt3__27codecvtIwc11__mbstate_tE10do_unshiftERS1_PcS4_RS4_
mhc:_Set_High_Precision
fed:__ZNSt3__213basic_istreamIcNS_11char_traitsIcEEErsEPFRS3_S4_E
Ib:ftCall_vii
xhd:__ZNSt3__211__stdoutbufIcE4syncEv
H1b:__ZL14db_getregistryP9lua_State
wzc:_FT_Vector_Unit
KKd:__ZNSt3__210to_wstringEi
NKd:__ZNSt3__210to_wstringEj
cKc:_strtoll
tkb:__ZN6gevent12EventManager12enqueueEventEmPFviPvS1_EiS1_iS1_
TKd:__ZNSt3__210to_wstringEm
$gc:_FT_MulFix
nR:__ZNK5GMesh17getIndexArraySizeEv
eG:emscriptenWebGLGetUniform
xH:FUNCTION_TABLE_iiiiiiiiiii
aLd:__ZNSt3__210to_wstringEf
WKd:__ZNSt3__210to_wstringEx
Swc:_cff_set_mm_blend
z8:__ZNSt3__26__treeIP6SpriteNS_4lessIS2_EENS_9allocatorIS2_EEE5eraseENS_21__tree_const_iteratorIS2_PNS_11__tree_nodeIS2_PvEEiEE
Ufa:__GLOBAL__sub_I_gl2ShaderProgram_cpp
rd:_Mix_Pause
W6c:__ZNSt3__27__sort4IRNS_6__lessIhhEEPhEEjT0_S5_S5_S5_T_
o3a:__ZN12Box2DBinder225b2Body_setSleepingAllowedEP9lua_State
O:Math_log
jMb:_prepare_for_pass
jmd:__ZNKSt3__210__time_put8__do_putEPwRS1_PK2tmcc
Jv:_emscripten_wget
UZb:__ZL13inclinenumberP8LexState
uSd:runPostSets17
ZQ:__ZNSt3__26vectorIfNS_9allocatorIfEEE18__construct_at_endIPKfEENS_9enable_ifIXsr21__is_forward_iteratorIT_EE5valueEvE4typeES8_S8_j
ied:__ZNSt3__213basic_istreamIcNS_11char_traitsIcEEErsEPNS_15basic_streambufIcS2_EE
Bi:___syscall178
f_:__ZL15easeInOutBounced
cya:__ZN15b2FrictionJoint4DumpEv
Jhd:__ZNSt3__210__stdinbufIcE5imbueERKNS_6localeE
Z8:___cxx_global_var_init_316
WCa:__ZN22b2EdgeAndCircleContact7DestroyEP9b2ContactP16b2BlockAllocator
q3b:__ZL5LnindP9lua_State
cHb:_arith_decode
iHd:__ZNKSt3__212basic_stringIwNS_11char_traitsIwEENS_9allocatorIwEEE5emptyEv
Hbb:__ZN14EventBinderMapD2Ev
bu:_emscripten_request_pointerlock
tGb:_start_pass_main
ptd:__ZNKSt3__27collateIwE7compareEPKwS3_S3_S3_
iFa:__ZN13b2PulleyJointC2EPK16b2PulleyJointDef
fHd:__ZNSt3__212basic_stringIwNS_11char_traitsIwEENS_9allocatorIwEEE26__invalidate_all_iteratorsEv
Mta:_ggeolocation_startUpdatingHeading
Oaa:__ZNSt3__212__deque_baseI9_cliprectNS_9allocatorIS1_EEED2Ev
sBc:_FT_Reference_Face
Jgd:__ZNSt3__213basic_ostreamIwNS_11char_traitsIwEEElsEPNS_15basic_streambufIwS2_EE
$C:_localtime
Trb:___sfvwrite
sU:__ZNSt3__215basic_stringbufIcNS_11char_traitsIcEENS_9allocatorIcEEE7seekoffExNS_8ios_base7seekdirEj
vDa:__ZNSt3__27__sort5IRPFbRK6b2PairS3_EPS1_EEjT0_S8_S8_S8_S8_T_
Lyd:__ZNSt3__26locale5__imp7installINS_12ctype_bynameIwEEEEvPT_
nvd:__ZNSt3__215time_put_bynameIcNS_19ostreambuf_iteratorIcNS_11char_traitsIcEEEEEC2EPKcj
Zga:__ZN16ogl2ShaderEngine13getPropertiesERNSt3__23mapINS0_12basic_stringIcNS0_11char_traitsIcEENS0_9allocatorIcEEEES7_NS0_4lessIS7_EENS5_INS0_4pairIKS7_S7_EEEEEE
ftb:__Z13pathForFileExPKcS0_
rwa:__ZN17b2ContactListener12BeginContactEP16b2ParticleSystemP21b2ParticleBodyContact
Asa:__ZNSt3__26__treeINS_12__value_typeIm12GHttpContextEENS_19__map_value_compareImS3_NS_4lessImEELb1EEENS_9allocatorIS3_EEE16__construct_nodeIJRKNS_21piecewise_construct_tENS_5tupleIJRKmEEENSF_IJEEEEEENS_10unique_ptrINS_11__tree_nodeIS3_PvEENS_22__tree_node_destructorINS8_ISN_EEEEEEDpOT_
kXd:_glDeleteRenderbuffers__wrapper
Nud:__ZNSt3__215__time_get_tempIcEC2ERKNS_12basic_stringIcNS_11char_traitsIcEENS_9allocatorIcEEEE
e1b:__ZL10luaB_errorP9lua_State
Brd:__ZNKSt3__214__codecvt_utf8IDiE10do_unshiftER11__mbstate_tPcS4_RS4_
IFc:_read_event
m_a:__ZN13TileMapBinder10setTextureEP9lua_State
Qxb:_png_safe_warning
Nyc:_BBox_Conic_Check
Fca:__ZNK9Transform4refYEv
dvb:_z_gzungetc
K3c:_labs
zta:_gui_isSecureInput
GP:__ZN8Matrix2DC2Effffff
kac:_mpg123_format_all
mAd:__ZNKSt3__219__shared_weak_count13__get_deleterERKSt9type_info
Aa:ftCall_iiddi
Whc:_ft_raster1_render
cWd:b15
ZX:__ZN5PixelD2Ev
qLd:__ZNSt3__210istrstreamD1Ev
J8b:__ZN6snappyL17GetUint32AtOffsetEPKci
Vmb:__ZN14GGSoundManager16ChannelIsLoopingEm
czc:_ft_stroke_border_init
ura:__ZNSt3__26__treeINS_12__value_typeIm12GHttpContextEENS_19__map_value_compareImS3_NS_4lessImEELb1EEENS_9allocatorIS3_EEE4findImEENS_15__tree_iteratorIS3_PNS_11__tree_nodeIS3_PvEEiEERKT_
nCd:__ZNKSt3__221__basic_string_commonILb1EE20__throw_length_errorEv
DCd:__ZNSt3__212basic_stringIcNS_11char_traitsIcEENS_9allocatorIcEEEC2EPKc
akd:__ZNKSt3__28time_getIcNS_19istreambuf_iteratorIcNS_11char_traitsIcEEEEE13do_date_orderEv
Ng:_TTF_SizeText
p:fb
E5b:__ZL9str_upperP9lua_State
Iyc:_BBox_Line_To
zqb:_luaL_setdata
grd:__ZNKSt3__214__codecvt_utf8IwE6do_outER11__mbstate_tPKwS5_RS5_PcS7_RS7_
LVd:b12
oL:__ZN5Stage10mouseHoverEiiiiffff
Dod:__ZNSt3__28messagesIcED0Ev
ycc:_INT123_do_layer1
Vxa:__ZN6b2Vec3pLERKS_
nvb:_z_gzopen64
bt:_emscripten_glUniform4fv
LX:__ZNK9TextField4textEv
oub:_z_inflateBackInit_
Tub:_z_adler32_combine
Cd:_Mix_Quit
ND:_pthread_condattr_getpshared
_Kc:___ldexp_cexp
D6b:__ZL4set2P9lua_Stateii
Ee:_SDL_GetKeyState
rNd:__ZNK10__cxxabiv117__class_type_info27has_unambiguous_public_baseEPNS_19__dynamic_cast_infoEPvi
eCc:_FT_Library_Version
nFa:__ZN7b2World20CreateParticleSystemEPK19b2ParticleSystemDef
Pzb:_png_do_check_palette_indexes
Ssa:_ghttp_IgnoreSSLErrors
QXa:__ZNSt3__26vectorI12ghttp_HeaderNS_9allocatorIS1_EEE6resizeEj
tHd:__ZNSt3__212basic_stringIwNS_11char_traitsIwEENS_9allocatorIwEEE6appendEPKw
Wlc:_af_dummy_hints_init
gGd:__ZNSt3__212basic_stringIwNS_11char_traitsIwEENS_9allocatorIwEEEC2ERKS5_jjRKS4_
Pvd:__ZNKSt3__210moneypunctIwLb0EE11curr_symbolEv
Jl:__softFullscreenResizeWebGLRenderTarget
ANc:_encrypt
xId:__ZNSt3__210__find_endIPFbwwEPKwS4_EET0_S5_S5_T1_S6_T_NS_26random_access_iterator_tagES8_
vka:__ZNSt3__26__treeINS_12__value_typeINS_12basic_stringIcNS_11char_traitsIcEENS_9allocatorIcEEEENS_6vectorIhNS5_IhEEEEEENS_19__map_value_compareIS7_SB_NS_4lessIS7_EELb1EEENS5_ISB_EEE25__emplace_unique_key_argsIS7_JRKNS_21piecewise_construct_tENS_5tupleIJOS7_EEENSM_IJEEEEEENS_4pairINS_15__tree_iteratorISB_PNS_11__tree_nodeISB_PvEEiEEbEERKT_DpOT0_
hRd:__ZN10__cxxabiv112_GLOBAL__N_119parse_discriminatorEPKcS2_
__:__ZL14easeOutElasticddd
b2:__ZNK6TTFont7getTypeEv
Sna:__ZN12_GLOBAL__N_121GGStreamOpenALManager11ChannelStopEm
tBa:__ZNK10b2TreeNode6IsLeafEv
Era:__ZNSt3__26__treeINS_12__value_typeIm12GHttpContextEENS_19__map_value_compareImS3_NS_4lessImEELb1EEENS_9allocatorIS3_EEE13__lower_boundImEENS_15__tree_iteratorIS3_PNS_11__tree_nodeIS3_PvEEiEERKT_SG_PNS_15__tree_end_nodeIPNS_16__tree_node_baseISE_EEEE
Zhb:__ZNSt3__26__treeINS_12__value_typeImPN9g_private14TextureManager18TempTextureElementEEENS_19__map_value_compareImS6_NS_4lessImEELb1EEENS_9allocatorIS6_EEED2Ev
$Vb:_luaF_getlocalname
ZOc:_fstat
tdd:__ZNSt3__215basic_streambufIwNS_11char_traitsIwEEE9pubsetbufEPwi
gVb:__ZL9lessequalP9lua_StatePK10lua_TValueS3_
aNb:__ZN6snappy4Sink15GetAppendBufferEjPc
HUd:mftCall_vdddddi
HGd:__ZNSt3__212basic_stringIwNS_11char_traitsIwEENS_9allocatorIwEEE5beginEv
RLb:_pre_process_data
PVb:_luaG_ordererror
BGc:_check_delay
g9:__ZN10GridInsetsC2Effff
CW:__ZN11Application14getDefaultFontEv
KVd:b11
dA:_glfwBroadcastCond
nic:_tt_cmap4_get_info
HC:_llvm_mono_store_i16_p0i16
Jnb:__ZN14GGAudioManager19BackgroundMusicPlayEmb
_9a:__ZNK5Timer11repeatCountEv
dwd:__ZNSt3__217moneypunct_bynameIcLb0EEC2EPKcj
kn:_alcCaptureOpenDevice
vy:_glGetShaderPrecisionFormat
xfc:_INT123_set_synth_functions
XB:_killpg
Qrc:_SetSuperRound
Qua:__Z5b2MulRK11b2TransformRK6b2Vec2
Rca:__ZN7Matrix214getDeterminantEv
_Vc:_write
$0c:___statfs
z$b:__ZL9findlocalP9lua_StateP8CallInfoi
oba:__ZNSt3__25dequeI7Matrix4NS_9allocatorIS1_EEE9push_backERKS1_
Ced:__ZNSt3__213basic_istreamIcNS_11char_traitsIcEEE3getERNS_15basic_streambufIcS2_EE
c0c:_tre_stack_push_voidptr
lL:__ZN9EventTypeI5EventEC2EPKc
Xyd:__ZNSt3__26locale5__imp7installINS_17moneypunct_bynameIwLb1EEEEEvPT_
GA:_glfwLoadTexture2D
AHd:__ZNSt3__212basic_stringIwNS_11char_traitsIwEENS_9allocatorIwEEE8pop_backEv
dUd:_llvm_nearbyint_f32
Nyb:_png_get_sBIT
pdd:__ZNKSt3__215basic_streambufIcNS_11char_traitsIcEEE5epptrEv
Js:_emscripten_glStencilOpSeparate
$4b:__ZL10math_frexpP9lua_State
Wna:__ZN12_GLOBAL__N_121GGStreamOpenALManager15ChannelIsPausedEm
Y2b:__ZL4LaddP9lua_State
Ona:__ZN12_GLOBAL__N_121GGStreamOpenALManager11SoundDeleteEm
Dnc:_af_loader_init
v3a:__ZN6b2Body9SetBulletEb
SGd:__ZNKSt3__212basic_stringIwNS_11char_traitsIwEENS_9allocatorIwEEE4cendEv
pKa:__ZN16b2ParticleSystem21RequestGrowableBufferI21b2ParticleBodyContactEEPT_S3_iPi
a0:__ZN4SlotI9MovieClip15EnterFrameEventEeqERKS2_
yNa:__ZN18b2DistanceJointDef10InitializeEP6b2BodyS1_RK6b2Vec2S4_
Gfc:_frame_buffercheck
T7:__ZNK3Dib18baseOriginalHeightEv
MD:_pthread_condattr_getclock
TRb:___gl_pqSortDeletePriorityQ
yyb:_png_get_cHRM_fixed
Gvd:__ZNKSt3__210moneypunctIcLb1EE13positive_signEv
bwb:_png_destroy_info_struct
IHb:_jpeg_idct_4x4
lWc:_flockfile
$qa:__Z18getSafeDisplayAreaRiS_S_S_
M8c:__ZNSt3__28__c_nodeD2Ev
bqa:__ZN21GGSampleOpenALManager8postTickEv
s7c:__ZNSt3__27__sort4IRNS_6__lessIjjEEPjEEjT0_S5_S5_S5_T_
Wqc:_Ins_DELTAP
iz:_glStencilOpSeparate
O1b:__ZL12db_settypemtP9lua_State
xBb:_png_set_read_status_fn
PUb:__ZL13traversetableP12global_StateP5Table
Jr:_emscripten_glGetError
J3:__ZL4readP13FT_StreamRec_mPhm_233
eTb:_unzStringFileNameCompare
baa:__ZNSt3__214__split_bufferIPPK6SpriteNS_9allocatorIS4_EEE9push_backEOS4_
l5c:_cfsetispeed
QPa:__GLOBAL__sub_I_applicationbinder_cpp
g5c:_mktemp
pU:__ZNSt3__26__treeINS_12__value_typeIiN4Font12TextureGlyphEEENS_19__map_value_compareIiS4_NS_4lessIiEELb1EEENS_9allocatorIS4_EEE16__insert_node_atEPNS_15__tree_end_nodeIPNS_16__tree_node_baseIPvEEEERSG_SG_
Oab:__ZNK9EventTypeI8LuaEventE2idEv
gb:ftCall_vid
rX:__ZN11Application18getBackgroundColorEPfS0_S0_
h3b:__ZL5LbandP9lua_State
cG:emscriptenWebGLGet
_Xa:__ZN11GGUrlLoader8callbackEiPv
Mvb:_png_zalloc
xwc:_cff_index_get_string
Ewc:_cff_encoding_load
Nvd:__ZNKSt3__210moneypunctIwLb0EE13thousands_sepEv
hEd:__ZNSt3__212basic_stringIcNS_11char_traitsIcEENS_9allocatorIcEEE6assignENS_17basic_string_viewIcS2_EE
Qb:ftCall_viidddddd
Rn:_boxRGBA
etd:__ZNKSt3__220__codecvt_utf8_utf16IDsE5do_inER11__mbstate_tPKcS5_RS5_PDsS7_RS7_
CHb:_jpeg_idct_11x11
Nbc:_INT123_ntom_frame_outsamples
hga:__ZN13ShaderProgram8DataDescC2ERKS0_
Dqc:_Ins_SCFS
vK:__ZN5Stage30dispatchToSpritesWithListenersEP5Event
BSc:_exp2f
_za:__ZN10b2FreeList4FreeEP19b2IntrusiveListNode
MO:__ZNSt3__26vectorIN11TexturePack4RectENS_9allocatorIS2_EEE21__push_back_slow_pathIRKS2_EEvOT_
Mwa:__ZN25b2PolygonAndCircleContact8EvaluateEP10b2ManifoldRK11b2TransformS4_
vHa:__ZNK16b2ParticleSystem17ForceCanBeAppliedEj
rzc:_ft_stroker_outside
lw:_ftime
fxd:__ZNSt3__214codecvt_bynameIDsc11__mbstate_tEC2ERKNS_12basic_stringIcNS_11char_traitsIcEENS_9allocatorIcEEEEj
jDa:__ZN23b2EdgeAndPolygonContactC2EP9b2FixtureS1_
mKa:__ZNK6b2Body10GetInertiaEv
ZLd:__ZNKSt3__214error_category10equivalentERKNS_10error_codeEi
cDb:_png_set_check_for_invalid_index
ILd:__ZNSt3__212strstreambufC2EPFPvjEPFvS1_E
_6a:__ZN12SpriteBinder8containsEP9lua_State
hvd:__ZNSt3__210__time_putC2ERKNS_12basic_stringIcNS_11char_traitsIcEENS_9allocatorIcEEEE
gFc:_read_row
WP:__ZNSt3__214__split_bufferIN7TileMap6TileIdERNS_9allocatorIS2_EEEC2EjjS5_
rub:_z_inflate_fast
fPa:__ZN6b2AABB7CombineERKS_
mv:_emscripten_vr_display_presenting
gw:_floor
Gs:_emscripten_glStencilMask
Gf:_SDL_PumpEvents
tWd:b19
Ffd:__ZNSt3__213basic_istreamIwNS_11char_traitsIwEEE4syncEv
v1:__ZN13GRenderTargetC2EP11Applicationii6Filter4Wrapb
DBc:_FT_Face_GetCharVariantIndex
Mra:__ZNSt3__23mapIm12GHttpContextNS_4lessImEENS_9allocatorINS_4pairIKmS1_EEEEEixERS6_
MId:__ZNKSt3__212basic_stringIwNS_11char_traitsIwEENS_9allocatorIwEEE12find_last_ofEwj
mra:__Z13g_setPropertyPKcS0_
JVa:__ZN10MeshBinder17resizeVertexArrayEP9lua_State
IM:__ZNK7Vector3ngEv
evc:_cf2_getStdVW
o8c:__ZNSt3__223mersenne_twister_engineIjLj32ELj624ELj397ELj31ELj2567483615ELj11ELj4294967295ELj7ELj2636928640ELj15ELj4022730752ELj18ELj1812433253EE4seedEj
OUa:__ZN12_GLOBAL__N_114GGSoundChannel11getStreamIdEv
gPd:__ZN10__cxxabiv112_GLOBAL__N_111short_allocINSt3__26vectorINS3_INS0_11string_pairENS1_IS4_Lj4096EEEEENS1_IS6_Lj4096EEEEELj4096EE10deallocateEPS8_j
iAc:_hash_num_compare
s0a:__ZThn508_N11b2DebugDraw13DrawParticlesEPK6b2Vec2fPK15b2ParticleColori
UQc:_isupper_l
IMa:__ZN16b2PrismaticJoint13SetMotorSpeedEf
EMa:__ZNK16b2PrismaticJoint13GetUpperLimitEv
p8:__ZNK15EventDispatcher16hasEventListenerI11LayoutEventEEbRK9EventTypeIT_E
g6c:_do_setxid
dw:_filledEllipseColor
hsd:__ZNKSt3__215__codecvt_utf16IDsLb0EE13do_max_lengthEv
hSd:runPostSets4
EB:_glutMouseFunc
xSa:__ZN12ScreenBinder7getSizeEP9lua_State
tta:_gui_isVisible
Kb:ftCall_viid
Kob:_gaudio_BackgroundChannelAddCallback
Nqc:_Ins_GTEQ
ac:ftCall_viii
xqd:__ZNSt3__25ctypeIcE13classic_tableEv
z$c:_fnmatch
QDa:__ZN16b2ParticleSystem10FreeBufferINS_5ProxyEEEvPPT_i
cBa:__Z5b2AbsRK6b2Vec2
fia:__ZNSt3__26vectorI8vector4fNS_9allocatorIS1_EEE10deallocateEv
cs:_emscripten_glGetUniformiv
Jj:___syscall345
WYc:_dn_skipname
QI:__ZN12VertexBufferIfED2Ev
qyd:__ZNSt3__26vectorIPNS_6locale5facetENS_15__sso_allocatorIS3_Lj28EEEE6resizeEj
Jea:__ZNSt3__212__deque_baseIN12ShaderEngine12DepthStencilENS_9allocatorIS2_EEE5clearEv
xMa:__ZNK6b2Body8GetAngleEv
_Pb:__ZNK11CPVRTString8max_sizeEv
FMb:_jpeg_simple_progression
DQc:___pthread_self_139
fQc:___pthread_self_132
eBb:_png_read_sig
rQd:__ZN10__cxxabiv112_GLOBAL__N_117parse_typeid_exprINS0_2DbEEEPKcS4_S4_RT_
x2c:_getchar
aSa:__ZNSt3__26__treeINS_12__value_typeINS_12basic_stringIcNS_11char_traitsIcEENS_9allocatorIcEEEEdEENS_19__map_value_compareIS7_S8_NS_4lessIS7_EELb1EEENS5_IS8_EEEC2ERKSC_
mMc:_strncmp
gUd:mftCall_dd
OM:__ZN10BitmapDataC2EP11TextureBase
iTb:_unz64local_SearchCentralDir64
FWa:__ZN17GGTextInputDialogD2Ev
r7:__ZNSt3__214__split_bufferIPNS_4pairIP5TimeriEENS_9allocatorIS5_EEE9push_backEOS5_
JNd:__ZNSt9bad_allocD0Ev
S2:__ZN10TouchEventD0Ev
U0:__ZNSt3__26__treeIP15EventDispatcherNS_4lessIS2_EENS_9allocatorIS2_EEE12__find_equalIS2_EERPNS_16__tree_node_baseIPvEERPNS_15__tree_end_nodeISC_EERKT_
yxa:__Z5b2LogPKcz
HUc:_nextafterf
rbc:_INT123_frame_buffers_reset
K5:__ZNSt3__26__treeINS_12__value_typeIiNS_6vectorIP8SlotBaseNS_9allocatorIS4_EEEEEENS_19__map_value_compareIiS8_NS_4lessIiEELb1EEENS5_IS8_EEED2Ev
f5a:__ZN19AccelerometerBinder6createEP9lua_State
cSc:_asinh
Rr:_emscripten_glGetQueryObjectui64vEXT
In:_asinl
cTa:__ZN15ParticlesBinder10setTextureEP9lua_State
wHd:__ZNSt3__212basic_stringIwNS_11char_traitsIwEENS_9allocatorIwEEEpLESt16initializer_listIwE
i7b:__ZN8pystring5rfindERKNSt3__212basic_stringIcNS0_11char_traitsIcEENS0_9allocatorIcEEEES8_ii
UFc:_get_lfo_st3
wY:__ZN6Screen10setVisibleEb
Uc:RegisteredPointer_getPointee
Bkb:__ZNSt3__214__split_bufferIPN6gevent12EventManager17EventQueueElementENS_9allocatorIS4_EEE10push_frontEOS4_
JAa:__Z14b2SetNumAllocsi
Z$a:__ZN12Box2DBinder220b2DebugDraw_setFlagsEP9lua_State
xrb:_g_flockfile
gHa:__ZltRKN16b2ParticleSystem5ProxyEj
wCd:__ZNKSt3__212basic_stringIcNS_11char_traitsIcEENS_9allocatorIcEEE18__get_long_pointerEv
sDd:__ZNKSt3__212basic_stringIcNS_11char_traitsIcEENS_9allocatorIcEEE4rendEv
t8c:__ZNSt12experimental15fundamentals_v112bad_any_castD0Ev
fRa:__ZL12lzstream_newP9lua_Statei
sZa:__ZN17ApplicationBinder13getDeviceInfoEP9lua_State
Nd:_SDL_AllocRW
jja:_hasNumber
Lta:_ggeolocation_startUpdatingLocation
hL:__ZNSt3__214__split_bufferIPP6SpriteNS_9allocatorIS3_EEED2Ev
J5:__ZNSt3__23mapIiNS_6vectorIP8SlotBaseNS_9allocatorIS3_EEEENS_4lessIiEENS4_INS_4pairIKiS6_EEEEED2Ev
m2:__ZNSt3__26__treeINS_12__value_typeIiN6TTFont9GlyphDataEEENS_19__map_value_compareIiS4_NS_4lessIiEELb1EEENS_9allocatorIS4_EEEC2ERKS8_
k4:__ZN5Shape12setLineStyleEfjf
o1b:__ZL11luaB_rawgetP9lua_State
MUc:___FLOAT_BITS_336
Hka:__ZNK14LuaApplication14getApplicationEv
Nrc:_Normalize
IUc:___FLOAT_BITS_335
kPd:__ZN10__cxxabiv112_GLOBAL__N_111short_allocINS0_11string_pairELj4096EE10deallocateEPS2_j
BRd:__ZNSt3__212basic_stringIcNS_11char_traitsIcEEN10__cxxabiv112_GLOBAL__N_112malloc_allocIcEEE5eraseEjj
Ufc:_mpg123_tell
aK:__ZN9Particles6getTtlEi
xud:__ZNKSt3__28time_getIwNS_19istreambuf_iteratorIwNS_11char_traitsIwEEEEE3getES4_S4_RNS_8ios_baseERjP2tmcc
AMc:_printf_core
Fgb:__ZNSt3__26__treeINS_12__value_typeIiN9g_private12TimerManager12TimerElementEEENS_19__map_value_compareIiS5_NS_4lessIiEELb1EEENS_9allocatorIS5_EEE16__construct_nodeIJRKNS_21piecewise_construct_tENS_5tupleIJRKiEEENSH_IJEEEEEENS_10unique_ptrINS_11__tree_nodeIS5_PvEENS_22__tree_node_destructorINSA_ISP_EEEEEEDpOT_
M1:__ZN11TTTextField12setTextColorEj
KY:___cxx_global_var_init_162
r4c:_rindex
qg:_SDL_WM_ToggleFullScreen
uqc:_Ins_RTDG
ika:__ZN18ApplicationManager14setProjectNameEPKc
Gbd:__ZNKSt3__29basic_iosIcNS_11char_traitsIcEEEntEv
DMa:__ZNK16b2PrismaticJoint13GetLowerLimitEv
OMa:__ZNK15b2FrictionJoint11GetMaxForceEv
_5b:__ZL10scanformatP9lua_StatePKcPc
cB:_glfwSleep
W_b:_luaU_dump
$1a:__ZN12Box2DBinder229b2RevoluteJoint_getMotorSpeedEP9lua_State
Yc:_IMG_Quit
ndd:__ZNKSt3__215basic_streambufIcNS_11char_traitsIcEEE5pbaseEv
vkb:__ZNSt3__25dequeIN6gevent12EventManager17EventQueueElementENS_9allocatorIS3_EEE19__add_back_capacityEv
dz:_glStencilFunc
ebb:__ZN16PushEventVisitor5visitEP10ErrorEvent
TId:__ZNKSt3__212basic_stringIwNS_11char_traitsIwEENS_9allocatorIwEEE16find_last_not_ofENS_17basic_string_viewIwS2_EEj
Sfa:__ZN17ShaderBufferCacheD0Ev
U0c:_lchmod
G7a:__ZN12SpriteBinder14getAnchorPointEP9lua_State
vxa:__ZNK6b2Body7GetMassEv
Gia:__ZL7arc_todP12reduced_pathdddddiidd
E6a:__ZNSt3__214__split_bufferIPKcRNS_9allocatorIS2_EEEC2EjjS5_
mx:_glDeleteProgram
cDc:_load_instruments
Yfc:_mpg123_seek
$wa:__ZN13b2TempPolygonC2Ev
$Ta:__ZN12Path2DBinder7setPathEP9lua_State
lk:__addDays
Ce:_SDL_GetError
Vud:__ZNSt3__214__scan_keywordIPwPNS_12basic_stringIwNS_11char_traitsIwEENS_9allocatorIwEEEENS_5ctypeIwEEEET0_RT_SC_SB_SB_RKT1_Rjb
Y_b:__ZL12DumpFunctionPK5ProtoPK7TStringP9DumpState
Toa:__ZNSt3__26__treeINS_12__value_typeImPN12_GLOBAL__N_121GGStreamOpenALManager7ChannelEEENS_19__map_value_compareImS6_NS_4lessImEELb1EEENS_9allocatorIS6_EEE4findImEENS_15__tree_iteratorIS6_PNS_11__tree_nodeIS6_PvEEiEERKT_
R4c:_wcsdup
ix:_glCreateShader
Q_a:__ZN12Box2DBinder216getMouseJointDefEP9lua_State
T0:__ZNSt3__26__treeIP15EventDispatcherNS_4lessIS2_EENS_9allocatorIS2_EEE25__emplace_unique_key_argsIS2_JRKS2_EEENS_4pairINS_15__tree_iteratorIS2_PNS_11__tree_nodeIS2_PvEEiEEbEERKT_DpOT0_
Oy:_glIsShader
SZb:__ZL6yindexP8LexStateP7expdesc
Sb:ftCall_viiddi
jEd:__ZNSt3__212basic_stringIcNS_11char_traitsIcEENS_9allocatorIcEEE6assignEOS5_
cuc:_cf2_glyphpath_curveTo
LDd:__ZNSt3__212basic_stringIcNS_11char_traitsIcEENS_9allocatorIcEEE5clearEv
Lka:__ZN18ApplicationManager14surfaceCreatedEv
e0c:_tre_stack_pop_int
VDa:__ZN16b2ParticleSystem10FreeBufferIiEEvPPT_i
PNa:__ZNK6b2Rope4DrawEP6b2Draw
pX:__ZNSt3__26__treeIP6TickerNS_4lessIS2_EENS_9allocatorIS2_EEE13__lower_boundIS2_EENS_15__tree_iteratorIS2_PNS_11__tree_nodeIS2_PvEEiEERKT_SD_PNS_15__tree_end_nodeIPNS_16__tree_node_baseISB_EEEE
sS:__ZN13TexturePackerD0Ev
jhd:__ZNSt3__210__stdinbufIcEC2EP8_IO_FILEP11__mbstate_t
OYa:__ZN12MovieClipLua8setFieldEi9Parameterf
Amc:_af_axis_hints_new_edge
CKa:__ZNSt3__27__sort3IRPFbRKN12_GLOBAL__N_115LightweightPairIP9b2FixtureiEES7_EPS5_EEjT0_SC_SC_T_
Pic:_tt_cmap13_get_info
iya:__ZNK15b2RevoluteJoint10GetAnchorBEv
$yc:_FT_Outline_GetInsideBorder
o9a:__ZN12MatrixBinder12getRotationXEP9lua_State
WSb:_fread_file_func
i9a:__ZN12MatrixBinder6invertEP9lua_State
eCb:_png_image_read_background
MPb:__ZNK11CPVRTStringixEj
VRb:_DeleteRegion
y8c:__ZNSt3__26chrono12steady_clock3nowEv
Urd:__ZNKSt3__215__codecvt_utf16IwLb1EE10do_unshiftER11__mbstate_tPcS4_RS4_
lHc:_get_size
Yod:__ZNSt3__215messages_bynameIcED2Ev
tEb:_png_set_filter_heuristics
JOd:__ZN10__cxxabiv129__pointer_to_member_type_infoD0Ev
Dkb:__ZNSt3__214__split_bufferIPN6gevent12EventManager17EventQueueElementERNS_9allocatorIS4_EEE10push_frontERKS4_
F7c:__ZNSt3__27__sort5IRNS_6__lessImmEEPmEEjT0_S5_S5_S5_S5_T_
fya:__ZN15b2FrictionJoint24SolveVelocityConstraintsERK12b2SolverData
KEb:_png_image_write_init
nac:_mpg123_format
Ij:___syscall340
rG:getLiveInheritedInstances
Q3c:_strtof_l
ld:_Mix_Linked_Version
APc:_feholdexcept
lR:__ZN5GMesh15clearColorArrayEv
MJ:__ZNSt3__214__split_bufferIhRNS_9allocatorIhEEE18__construct_at_endEj
nW:__ZN11Application13touchesCancelEP17ginput_TouchEvent
v2:__ZNSt3__26vectorIN6TTFont8FontFaceENS_9allocatorIS2_EEE18__construct_at_endEj
j5a:__ZN19AccelerometerBinder4stopEP9lua_State
pka:__ZNSt3__26__treeINS_12__value_typeINS_12basic_stringIcNS_11char_traitsIcEENS_9allocatorIcEEEENS_6vectorIhNS5_IhEEEEEENS_19__map_value_compareIS7_SB_NS_4lessIS7_EELb1EEENS5_ISB_EEE12__find_equalIS7_EERPNS_16__tree_node_baseIPvEERPNS_15__tree_end_nodeISM_EERKT_
p0a:__ZThn508_N11b2DebugDraw16DrawSolidPolygonEPK6b2Vec2iRK7b2Color
dp:_emscripten_async_wget
IEb:_png_write_png
OCa:__ZN15b2CircleContact6CreateEP9b2FixtureiS1_iP16b2BlockAllocator
Drc:_Ins_GETDATA
eJc:__ZN10emscripten8internal11LightTypeIDIaE3getEv
khb:__ZL11term_sourceP22jpeg_decompress_struct
i5:___cxx_global_var_init_237
Opa:__ZN21GGSampleOpenALManager16ChannelSetPausedEmb
OCc:_ft_gzip_file_io
DRa:__ZN3Rnd7MT1993710ExtractU32Ev
JCd:__ZNSt3__212basic_stringIcNS_11char_traitsIcEENS_9allocatorIcEEEC2EjcRKS4_
s4:__ZNSt3__26vectorINS0_I6Point2IfENS_9allocatorIS2_EEEENS3_IS5_EEE26__swap_out_circular_bufferERNS_14__split_bufferIS5_RS6_EE
z6a:__ZN17TexturePackBinder8destructEP9lua_State
Isb:_gpath_addDrivePrefix
Gg:_TTF_Init
cbd:__ZNSt3__213basic_istreamIcNS_11char_traitsIcEEED2Ev
IC:_llvm_mono_store_i32_p0i32
R1c:_fmemopen
igd:__ZNSt3__213basic_ostreamIcNS_11char_traitsIcEEE5seekpENS_4fposI11__mbstate_tEE
KDc:_mseek
Jwd:__ZNKSt3__29money_putIcNS_19ostreambuf_iteratorIcNS_11char_traitsIcEEEEE3putES4_bRNS_8ios_baseEce
yPd:__ZNSt3__26vectorIN10__cxxabiv112_GLOBAL__N_111string_pairENS2_11short_allocIS3_Lj4096EEEEC2EjRKS3_RKS5_
eDb:_png_get_user_transform_ptr
FFc:_smix_stereo_8bit_linear_filter
Ox:_glEnable
DA:_glfwIconifyWindow
BCb:_png_set_gamma
LGd:__ZNSt3__212basic_stringIwNS_11char_traitsIwEENS_9allocatorIwEEE3endEv
X0b:__ZL11luaB_ipairsP9lua_State
yy:_glGetString
H4:__ZL18createGraphicsBaseRKNSt3__26vectorINS0_I6Point2IfENS_9allocatorIS2_EEEENS3_IS5_EEEER12GraphicsBasebbffPK7Matrix4
TOa:__ZN16b2ParticleSystem32CreateParticlesFillShapeForGroupEPK7b2ShapeRK18b2ParticleGroupDefRK11b2Transform
oMa:__ZN12b2MouseJoint11SetMaxForceEf
uda:__ZN7Matrix49translateEfff
SFc:_get_lfo
mha:__Z16ogl2SetupShadersb
q2a:__ZNSt3__214__split_bufferI6b2Vec2RNS_9allocatorIS1_EEEC2EjjS4_
FS:__ZN15MaxRectsBinPack13SplitFreeNodeE4RectRKS0_
kJd:__ZNSt3__212basic_stringIwNS_11char_traitsIwEENS_9allocatorIwEEE19__move_assign_allocERS5_
vna:__ZN14GGSoundManager14interfacesInitEv
dG:emscriptenWebGLGetTexPixelData
KYa:__ZNSt3__26vectorI9ParameterNS_9allocatorIS1_EEE26__swap_out_circular_bufferERNS_14__split_bufferIS1_RS3_EE
N1a:__ZN12Box2DBinder230b2PrismaticJoint_setMotorSpeedEP9lua_State
CGa:__ZN16b2ParticleSystem11SolvePowderERK10b2TimeStep
V4c:_wcspbrk
Ew:_gettimeofday
qpa:__ZNSt3__26__treeINS_12__value_typeImPN12_GLOBAL__N_121GGStreamOpenALManager5SoundEEENS_19__map_value_compareImS6_NS_4lessImEELb1EEENS_9allocatorIS6_EEED2Ev
DN:__ZNSt3__26vectorIhNS_9allocatorIhEEE6assignIPhEENS_9enable_ifIXaasr21__is_forward_iteratorIT_EE5valuesr16is_constructibleIhNS_15iterator_traitsIS7_E9referenceEEE5valueEvE4typeES7_S7_
IGc:_readmem24l
zgc:_mpg123_spf
yyd:__ZNSt3__214__split_bufferIPNS_6locale5facetERNS_15__sso_allocatorIS3_Lj28EEEED2Ev
TFd:__ZNSt3__212basic_stringIwNS_11char_traitsIwEENS_9allocatorIwEEE6__initEPKwj
Ksb:__ZNSt3__26__treeINS_12basic_stringIcNS_11char_traitsIcEENS_9allocatorIcEEEENS_4lessIS6_EENS4_IS6_EEE12__find_equalIS6_EERPNS_16__tree_node_baseIPvEERPNS_15__tree_end_nodeISF_EERKT_
nAd:__ZNSt3__214__shared_count12__add_sharedEv
H0a:__ZN12Box2DBinder227b2WeldJoint_setDampingRatioEP9lua_State
Zgd:__ZNSt3__28ios_base5iwordEi
wCb:_png_set_background
tva:__ZN14b2TrackedBlockC2Ev
ivd:__ZNSt3__28time_putIwNS_19ostreambuf_iteratorIwNS_11char_traitsIwEEEEEC2Ej
E4c:_strtok_r
Ibc:_INT123_ntom_ins2outs
iHb:_jpeg_idct_2x4
kXa:__ZN17GeolocationBinder11getAccuracyEP9lua_State
pHb:_jpeg_idct_2x1
nkb:__ZNK19gevent_CallbackList9equal_gidclERKNS_8CallbackE
vbb:__ZN16EventTypeVisitor5visitEP10TouchEvent
RK:__ZNSt3__26vectorIP6SpriteNS_9allocatorIS2_EEE26__swap_out_circular_bufferERNS_14__split_bufferIS2_RS4_EE
lzc:_ft_stroker_subpath_start
FH:FUNCTION_TABLE_viddd
dta:__ZNSt3__23mapIm8UiDialogNS_4lessImEENS_9allocatorINS_4pairIKmS1_EEEEEixERS6_
A3c:_atol
SWb:_lua_tointeger
Khc:_New_Profile
T0a:__ZN12Box2DBinder230b2WheelJoint_setMaxMotorTorqueEP9lua_State
w3c:_atof
Loc:_TT_Hint_Glyph
iWb:__ZL9tryfuncTMP9lua_StateP10lua_TValue
RY:__ZNKSt3__26__treeIP6ScreenNS_4lessIS2_EENS_9allocatorIS2_EEE10__root_ptrEv
$8c:__ZNSt3__212_GLOBAL__N_13mutEv
BSd:runPostSets24
jGb:_jinit_2pass_quantizer
lKd:__ZNSt3__212_GLOBAL__N_19as_stringINS_12basic_stringIcNS_11char_traitsIcEENS_9allocatorIcEEEEPFiPcjPKczEiEET_T0_SD_PKNSD_10value_typeET1_
z5b:__ZL9str_lowerP9lua_State
Rkc:_sfnt_open_font
ag:_SDL_StopTextInput
kLb:_encode_mcu_huff
t4c:_strcasestr
$db:_tlsf_ffs
sRa:__ZL17lzstream_readlineP9lua_State
zYb:__ZL9breakstatP8LexState
TWa:__ZN15GyroscopeBinderC2EP9lua_State
pw:_getenv
Mia:__ZL16subdivide_cubic4PKdPd
P5c:_getppid
ESd:runPostSets27
c6b:__ZL8os_clockP9lua_State
Bdb:_block_set_free
yu:_emscripten_set_gamepaddisconnected_callback
Jsa:__ZNK10emscripten8internal12WireTypePackIJNS_3valES2_RS2_NS_11memory_viewIhEES2_S2_iiiEEcvPKvEv
xPb:__ZNK11CPVRTString7compareEjjPKc
Dzc:_FT_Vector_Rotate
UFd:__ZNKSt3__212basic_stringIwNS_11char_traitsIwEENS_9allocatorIwEEE18__get_long_pointerEv
rQc:_dummy
g5b:__ZL8math_powP9lua_State
Cad:__ZNSt3__215basic_streambufIcNS_11char_traitsIcEEE6xsgetnEPci
Ejd:__ZNKSt3__27num_putIcNS_19ostreambuf_iteratorIcNS_11char_traitsIcEEEEE6do_putES4_RNS_8ios_baseEcPKv
rzb:_png_push_fill_buffer
oBd:__ZdaPvSt11align_val_t
isd:__ZNSt3__2L22utf16be_to_ucs2_lengthEPKhS1_jmNS_12codecvt_modeE
e4c:_wcstoimax
MUd:mftCall_vidddd
mda:__ZNK7Matrix2mlERKS_
iVc:_sincosf
ZDd:__ZNSt3__212basic_stringIcNS_11char_traitsIcEENS_9allocatorIcEEE9push_backEc
fY:___cxx_global_var_init_150
G_a:__ZN12Box2DBinder221b2ChainShape_destructEP9lua_State
jCc:_FT_Outline_Reverse
bda:__ZN7Matrix412invertAffineEv
kVc:_sincosl
Xwd:__ZNSt3__215messages_bynameIcEC2EPKcj
_ia:__ZN6Path2D7setPathEiPKhiPKf
nSa:__ZNSt3__214__split_bufferIPN14LuaApplication12AsyncLuaTaskERNS_9allocatorIS3_EEE9push_backEOS3_
zY:__ZN6Screen11setPositionEii
Rdb:_adjust_request_size
sRb:_internal_gluGetTessProperty
bJ:__ZN12VertexBufferIhEC2Ev
gKd:__ZNSt3__25stoldERKNS_12basic_stringIwNS_11char_traitsIwEENS_9allocatorIwEEEEPj
fGa:__ZNK6b2Body8IsBulletEv
ljc:_sfnt_get_charset_id
Wwc:_cff_get_var_design
pQc:_skipspace
iKa:__ZNSt3__227__insertion_sort_incompleteIRPFbRK21b2ParticleBodyContactS3_EPS1_EEbT0_S8_T_
hgb:_gtimer_init
K6a:__ZN17TextureBaseBinderC2EP9lua_State
TQc:_isspace_l
yEc:_mixer_setpan
bNa:__ZN15b2RevoluteJoint9SetLimitsEff
WEa:__ZN7b2World11CreateJointEPK10b2JointDef
x9c:__ZNSt13exception_ptrD2Ev
xQd:__ZN10__cxxabiv112_GLOBAL__N_121parse_unresolved_typeINS0_2DbEEEPKcS4_S4_RT_
hUb:_luaD_call
tVc:_tgammal
nA:_glfwExtensionSupported
vFc:_smix_mono_8bit_spline_filter
fvd:__ZNSt3__210__time_putC2EPKc
QEa:__ZN7b2World11DestroyBodyEP6b2Body
iOd:__ZNSt8bad_castD2Ev
sVc:_tgammaf
j4b:__ZL14min_expandUTF8P14MatchStateUTF8PKcS2_S2_
BVa:__ZN10MeshBinder10setIndicesEP9lua_State
zrd:__ZNKSt3__214__codecvt_utf8IDiE6do_outER11__mbstate_tPKDiS5_RS5_PcS7_RS7_
cUb:_luaG_runerror
hqb:__ZN8StringId2idEPKc
YEb:_start_input_pass_10
VG:unregisterInheritedInstance
YJc:___intscan
vL:__ZNSt3__26vectorIP6SpriteNS_9allocatorIS2_EEE18__construct_at_endEj
c2:__ZN6TTFont17checkLogicalScaleEv
YK:__ZNSt3__25dequeIP6SpriteNS_9allocatorIS2_EEE19__add_back_capacityEv
tkd:__ZNKSt3__28time_getIcNS_19istreambuf_iteratorIcNS_11char_traitsIcEEEEE3getES4_S4_RNS_8ios_baseERjP2tmPKcSC_
Pxc:_psh_dimension_quantize_len
sQc:_dcgettext
V3b:__ZL12lmemfindUTF8PKcjS0_j
a2:__ZN6TTFont13getLineHeightEv
_jd:__ZNSt3__28time_getIcNS_19istreambuf_iteratorIcNS_11char_traitsIcEEEEED2Ev
KFa:__ZN8b2Island3AddEP9b2Contact
zdd:__ZNSt3__215basic_streambufIwNS_11char_traitsIwEEE6sbumpcEv
Mfb:__ZNSt3__214__split_bufferIPNS_12basic_stringIcNS_11char_traitsIcEENS_9allocatorIcEEEERNS4_IS7_EEE10push_frontERKS7_
cTb:_ftell64_file_func
C9:__ZNSt3__212__deque_baseINS_4pairIP6SpritebEENS_9allocatorIS4_EEE3endEv
B0a:__ZN12Box2DBinder227b2FrictionJoint_setMaxForceEP9lua_State
Avb:_z_deflateSetDictionary
Hn:_asinf
wJd:__ZNSt3__212_GLOBAL__N_117as_integer_helperIlNS_12basic_stringIwNS_11char_traitsIwEENS_9allocatorIwEEEEPFlPKwPPwiEEET_RKNS2_IcNS3_IcEENS5_IcEEEERKT0_PjiT1_
Su:_emscripten_set_socket_close_callback
JYa:__ZNSt3__214__split_bufferI9ParameterRNS_9allocatorIS1_EEEC2EjjS4_
veb:__ZNSt3__26__treeINS_12__value_typeINS_12basic_stringIcNS_11char_traitsIcEENS_9allocatorIcEEEE8FileInfoEENS_19__map_value_compareIS7_S9_NS_4lessIS7_EELb1EEENS5_IS9_EEE7destroyEPNS_11__tree_nodeIS9_PvEE
FHb:_jpeg_idct_7x7
Voa:__ZNSt3__26__treeINS_12__value_typeImPN12_GLOBAL__N_121GGStreamOpenALManager5SoundEEENS_19__map_value_compareImS6_NS_4lessImEELb1EEENS_9allocatorIS6_EEE4findImEENS_15__tree_iteratorIS6_PNS_11__tree_nodeIS6_PvEEiEERKT_
Tb:invoke_viidi
vnc:_af_cjk_metrics_init_blues
pI:FUNCTION_TABLE_viiiiiiiiiiiii
ZFa:__ZN24b2PositionSolverManifoldC2Ev
_Wa:__ZN11GGGyroscope15getRotationRateEPdS0_S0_
f$:__ZL13easeOutInBackdd
Eva:__ZNK14b2PolygonShape11ComputeAABBEP6b2AABBRK11b2Transformi
JHd:__ZNSt3__212basic_stringIwNS_11char_traitsIwEENS_9allocatorIwEEE6assignEjw
r2c:_getwc
Lb:invoke_viidd
sEc:_virt_reset
rza:__ZNK15b2DistanceJoint10GetAnchorBEv
gN:__ZL13alphaFunctionf
mZb:__ZL9getbinopri
AW:__ZNSt3__26vectorIP15EventDispatcherNS_9allocatorIS2_EEE18__construct_at_endINS_21__tree_const_iteratorIS2_PNS_11__tree_nodeIS2_PvEEiEEEENS_9enable_ifIXsr21__is_forward_iteratorIT_EE5valueEvE4typeESE_SE_j
_3a:__ZN22b2ParticleSystemSpriteC2EP14LuaApplicationP16b2ParticleSystemP9b2WorldED
Tcd:__ZNSt3__215basic_streambufIcNS_11char_traitsIcEEE9pubsetbufEPci
yi:___syscall153
xi:___syscall152
wi:___syscall151
vi:___syscall150
U5b:__ZL11match_classii
lua:__ZN8JSNativeD0Ev
bVc:_scalblnf
$Ia:__ZNSt3__26__sortIRNS_6__lessIN16b2ParticleSystem5ProxyES3_EEPS3_EEvT0_S7_T_
u4a:__ZN15MyQueryCallbackD0Ev
bo:_cos
mVb:_luaF_newLclosure
E6:__ZNSt3__26__treeIP5TimerNS_4lessIS2_EENS_9allocatorIS2_EEE25__emplace_unique_key_argsIS2_JRKS2_EEENS_4pairINS_15__tree_iteratorIS2_PNS_11__tree_nodeIS2_PvEEiEEbEERKT_DpOT0_
wU:__ZNSt3__215basic_stringbufIcNS_11char_traitsIcEENS_9allocatorIcEEE8overflowEi
mG:flushPendingDeletes
bqc:_Ins_DEPTH
tJc:_valloc
Esb:__ZN5DriveC2Ev
Hhc:_Conic_To
A_:__ZL11easeOutSined
ayc:_ps_mask_table_set_bits
S$:__ZN9MovieClip9gotoFrameEi
zyb:_png_get_gAMA_fixed
mB:_gluPerspective
TGb:_decode_mcu_6
rq:_emscripten_glBlendEquationSeparate
MOb:__Z17PVRTDecompressETCPKvRKjS2_PvRKi
b9b:__ZN6snappy15ByteArraySourceC2EPKcj
O9b:_snappy_validate_compressed_buffer
gCa:__ZN12b2ChainShape10CreateLoopEPK6b2Vec2i
nNc:_BF_decode
vNc:_to64
w5:__Z14glPopBlendFuncv
qW:__ZNK11Application19hardwareOrientationEv
RWd:b34
HB:_glutPostRedisplay
Whd:__ZNSt3__27collateIwED0Ev
RRd:___cxa_get_globals
xcc:_INT123_fi_set
zna:__ZNSt3__26__treeINS_12__value_typeINS_12basic_stringIcNS_11char_traitsIcEENS_9allocatorIcEEEE13GGAudioLoaderEENS_19__map_value_compareIS7_S9_NS_4lessIS7_EELb1EEENS5_IS9_EEE12__find_equalIS7_EERPNS_16__tree_node_baseIPvEERPNS_15__tree_end_nodeISK_EERKT_
UZ:__ZNSt3__24pairIKiNS_6vectorIPN9MovieClip5FrameENS_9allocatorIS5_EEEEED2Ev
jea:__ZNSt3__212__deque_baseIN12ShaderEngine7ScissorENS_9allocatorIS2_EEE3endEv
zDd:__ZNKSt3__212basic_stringIcNS_11char_traitsIcEENS_9allocatorIcEEE8max_sizeEv
uoc:_tt_face_get_device_metrics
qKb:_jpeg_write_tables
_Ib:_jpeg_finish_output
Gga:__ZN16ogl2ShaderEngineD0Ev
fwd:__ZNSt3__2L30checked_string_to_char_convertERcPKcP15__locale_struct
Jyc:_BBox_Conic_To
aDd:__ZNSt3__212basic_stringIcNS_11char_traitsIcEENS_9allocatorIcEEE13__move_assignERS5_NS_17integral_constantIbLb1EEE
qca:__ZNK6Sprite6scaleXEv
g8a:__ZN6Sprite11ShaderParamC2Ev
WIc:__ZN10emscripten8internal11LightTypeIDIjE3getEv
IDd:__ZNSt3__212basic_stringIcNS_11char_traitsIcEENS_9allocatorIcEEE18__set_long_pointerEPc
cic:_tt_cmap0_get_info
VAc:_raccess_guess_apple_double
kYc:_mlockall
Dzb:_png_do_rgb_to_gray
T8:__ZN18SpriteProxyFactory11createProxyEP11ApplicationPvPFvS2_RK7Matrix4ffffEPFvS2_E
B2b:__ZL6tofileP9lua_State
kQb:__ZplRK11CPVRTStringS1_
gHb:_jpeg_idct_ifast
v$c:_rand_r
uja:__ZL7printJSPKciPv
emd:__ZNSt3__212_GLOBAL__N_17countofIcEEjPKT_S4_
Rnd:__ZNKSt3__217moneypunct_bynameIwLb1EE11do_groupingEv
rL:__ZNSt3__26vectorIP6SpriteNS_9allocatorIS2_EEE6resizeEj
av:_emscripten_set_visibilitychange_callback
Bo:_eglGetProcAddress
z1:__ZN13GRenderTarget9getPixelsEiiiiPv
_Td:_llvm_ctpop_i64
AYc:_mblen
Scd:__ZNKSt3__215basic_streambufIcNS_11char_traitsIcEEE6getlocEv
OW:__ZNSt3__27__sort3IRNS_6__lessIN11Application10ImageScaleES3_EEPS3_EEjT0_S7_S7_T_
Aq:_emscripten_glClearDepthf
dia:__ZL19kh_destroy_vector4fP13kh_vector4f_t
yk:__embind_register_emval
_ba:__ZN9Transform9setScaleZEf
fsc:_Direct_Move_X
xnb:__ZN14GGAudioManager15ChannelSetPitchEmf
aqb:__ZNSt3__26__treeINS_12__value_typeIPKciEENS_19__map_value_compareIS3_S4_N8StringId5ltstrELb1EEENS_9allocatorIS4_EEE12__find_equalIS3_EERPNS_16__tree_node_baseIPvEERPNS_15__tree_end_nodeISG_EERKT_
cPb:__ZNK17CPVRTResourceFile7DataPtrEv
Bnd:__ZNKSt3__217moneypunct_bynameIcLb1EE13do_neg_formatEv
vCd:__ZNSt3__212basic_stringIcNS_11char_traitsIcEENS_9allocatorIcEEE6__initEPKcj
Bma:__ZN6ginput12InputManager18setMouseTouchOrderEi
NHd:__ZNSt3__212basic_stringIwNS_11char_traitsIwEENS_9allocatorIwEEE6insertEjNS_17basic_string_viewIwS2_EE
oKd:__ZNSt3__212_GLOBAL__N_19as_stringINS_12basic_stringIcNS_11char_traitsIcEENS_9allocatorIcEEEEPFiPcjPKczEjEET_T0_SD_PKNSD_10value_typeET1_
Wza:__ZN7b2TimerC2Ev
hJb:_jpeg_stdio_src
pSa:__ZN12ScreenBinderC2EP9lua_State
Lud:__ZNSt3__218__time_get_storageIcEC2ERKNS_12basic_stringIcNS_11char_traitsIcEENS_9allocatorIcEEEE
$Vc:_read
lq:_emscripten_glBindRenderbuffer
xwd:__ZNSt3__217moneypunct_bynameIwLb1EE4initEPKc
Evd:__ZNKSt3__210moneypunctIcLb1EE8groupingEv
udc:_INT123_synth_ntom_8bit
wIc:__ZN10emscripten8internal11LightTypeIDINS_11memory_viewIjEEE3getEv
Ckb:__ZNSt3__214__split_bufferIPN6gevent12EventManager17EventQueueElementERNS_9allocatorIS4_EEE9push_backEOS4_
sxd:__ZNSt3__26locale5__imp7installINS_5ctypeIcEEEEvPT_
QGa:__ZN16b2ParticleSystem10SolveRigidERK10b2TimeStep
mY:__ZN5Pixel13getMixedColorEiif
pu:_emscripten_set_dblclick_callback
vMd:__ZNSt3__26threadD2Ev
eYc:_reap
Xea:__ZN16ogl2ShaderBuffer7unboundEv
Asb:__ZNSt3__26__treeINS_12__value_typeIi5DriveEENS_19__map_value_compareIiS3_NS_4lessIiEELb1EEENS_9allocatorIS3_EEE25__emplace_unique_key_argsIiJRKNS_21piecewise_construct_tENS_5tupleIJRKiEEENSF_IJEEEEEENS_4pairINS_15__tree_iteratorIS3_PNS_11__tree_nodeIS3_PvEEiEEbEERKT_DpOT0_
tD:_powl
iOb:__ZNSt3__26vectorIcNS_9allocatorIcEEE21__push_back_slow_pathIcEEvOT_
dFd:__ZNKSt3__212basic_stringIcNS_11char_traitsIcEENS_9allocatorIcEEE13find_first_ofEPKcjj
A_c:_ns_put32
sD:_powf
HEa:__ZN15b2SlabAllocatorI16b2ParticleHandleE15SetItemsPerSlabEj
JTc:_jnf
UXc:___openlog
Fob:_gaudio_BackgroundChannelIsPlaying
Nlc:_gray_split_conic
jL:__ZNK9EventTypeI10MouseEventE4typeEv
xed:__ZNKSt3__213basic_istreamIcNS_11char_traitsIcEEE6gcountEv
Yta:__Z14mouse_callbackiPK20EmscriptenMouseEventPv
rPc:_versionsort
oCd:__ZNKSt3__221__basic_string_commonILb1EE20__throw_out_of_rangeEv
BO:__ZNSt3__26__treeINS_12__value_typeINS_12basic_stringIcNS_11char_traitsIcEENS_9allocatorIcEEEEiEENS_19__map_value_compareIS7_S8_NS_4lessIS7_EELb1EEENS5_IS8_EEED2Ev
VIa:__ZZN16b2ParticleSystem41UpdatePairsAndTriadsWithReactiveParticlesEvEN14ReactiveFilterD0Ev
Xxc:_psh_hint_table_record
w5c:_dup
v8a:__ZN9Transform9setSkewXYEff
X5:__GLOBAL__sub_I_timer_cpp
e4b:__ZL9utf8_prevPKcS0_
nKd:__ZNKSt3__212_GLOBAL__N_114initial_stringINS_12basic_stringIcNS_11char_traitsIcEENS_9allocatorIcEEEEjLb0EEclEv
iYc:_mincore
HYa:__ZN12MovieClipLua8addFrameEiiP6SpriteiRKNSt3__26vectorI9ParameterNS2_9allocatorIS4_EEEEP7GStatus
nrc:_Ins_ROFF
FUb:_luaC_barrierf
NFd:__ZNSt3__212basic_stringIwNS_11char_traitsIwEENS_9allocatorIwEEEC2Ev
hBd:__ZnwjSt11align_val_t
Ria:__ZL19init_path_renderingv
ZUd:mftCall_viidd
yWc:_getopt_long
OEd:__ZNKSt3__212basic_stringIcNS_11char_traitsIcEENS_9allocatorIcEEE6substrEjj
guc:_cf2_doFlex
vFb:_jpeg_mem_init
tgd:__ZNSt3__213basic_ostreamIwNS_11char_traitsIwEEElsEPFRS3_S4_E
R$b:__ZL9f_luaopenP9lua_StatePv
IAa:__Z23b2SetAllocFreeCallbacksPFPviS_EPFvS_S_ES_
E8:__ZNKSt3__26__treeIP6SpriteNS_4lessIS2_EENS_9allocatorIS2_EEE10__root_ptrEv
$Rb:_ConnectRightVertex
QMb:__ZN17CPVRTResourceFileD2Ev
Nua:__ZplRK6b2Vec2S1_
jGd:__ZNSt3__212basic_stringIwNS_11char_traitsIwEENS_9allocatorIwEEEC2ERKS5_jRKS4_
cHc:_adjust_string
XZa:__ZNK14LuaApplication15getLogicalWidthEv
nib:__ZNSt3__26__treeINS_12__value_typeImPN9g_private19RenderTargetElementEEENS_19__map_value_compareImS5_NS_4lessImEELb1EEENS_9allocatorIS5_EEE5eraseENS_21__tree_const_iteratorIS5_PNS_11__tree_nodeIS5_PvEEiEE
Ojb:__ZNSt3__26__treeINS_12__value_typeImPN9g_private14TextureManager18TempTextureElementEEENS_19__map_value_compareImS6_NS_4lessImEELb1EEENS_9allocatorIS6_EEE5eraseENS_21__tree_const_iteratorIS6_PNS_11__tree_nodeIS6_PvEEiEE
w8a:__ZN6Sprite11setScaleXYZEfff
Cmb:__ZNSt3__26__treeIPN14GGSoundManager7ChannelENS_4lessIS3_EENS_9allocatorIS3_EEE16__insert_node_atEPNS_15__tree_end_nodeIPNS_16__tree_node_baseIPvEEEERSD_SD_
yib:__ZN9g_private14TextureManager19genAndUploadTextureEPNS_13CommonElementEPKv
wL:__ZNSt3__214__split_bufferIP6SpriteRNS_9allocatorIS2_EEE18__construct_at_endEj
ogb:__ZNSt3__26__treeINS_12__value_typeIdNS_6vectorIiNS_9allocatorIiEEEEEENS_19__map_value_compareIdS6_NS_4lessIdEELb1EEENS3_IS6_EEE7destroyEPNS_11__tree_nodeIS6_PvEE
OKd:__ZNKSt3__212_GLOBAL__N_114initial_stringINS_12basic_stringIwNS_11char_traitsIwEENS_9allocatorIwEEEEjLb0EEclEv
ava:__ZN6b2Vec23SetEff
mVd:mftCall_viiiiddi
p9a:__ZN12MatrixBinder12getRotationYEP9lua_State
DHc:_xmp_smix_play_sample
xja:__ZNSt3__26__treeINS_12__value_typeINS_12basic_stringIcNS_11char_traitsIcEENS_9allocatorIcEEEENS_6vectorIhNS5_IhEEEEEENS_19__map_value_compareIS7_SB_NS_4lessIS7_EELb1EEENS5_ISB_EEEC2ERKSF_
H4b:__ZL10utf8_widthji
r6c:_symlink
DTc:_common_303
yTc:_common_302
E3:__ZNSt3__26__treeINS_12__value_typeIiN8TTBMFont12TextureGlyphEEENS_19__map_value_compareIiS4_NS_4lessIiEELb1EEENS_9allocatorIS4_EEED2Ev
Lbd:__ZNSt3__28ios_base7failureC2EPKcRKNS_10error_codeE
fZb:_luaK_nil
Ygc:_FT_Outline_Transform
yza:__ZN15b2DistanceJoint24SolvePositionConstraintsERK12b2SolverData
KDd:__ZNSt3__212basic_stringIcNS_11char_traitsIcEENS_9allocatorIcEEE13shrink_to_fitEv
MBb:_png_rtran_ok
upd:__ZNSt3__214codecvt_bynameIDsc11__mbstate_tED2Ev
lbd:__ZTv0_n12_NSt3__213basic_ostreamIcNS_11char_traitsIcEEED0Ev
kca:__ZNK6Sprite1xEv
jI:FUNCTION_TABLE_viiiiiii
Ywc:_ps_unicode_value
ita:__ZNSt3__26__treeINS_12__value_typeIm8UiDialogEENS_19__map_value_compareImS3_NS_4lessImEELb1EEENS_9allocatorIS3_EEE16__insert_node_atEPNS_15__tree_end_nodeIPNS_16__tree_node_baseIPvEEEERSF_SF_
f2c:___do_orphaned_stdio_locks
pId:__ZNSt3__218__search_substringIwNS_11char_traitsIwEEEEPKT_S5_S5_S5_S5_
hzc:_ft_stroke_border_done
dP:__ZN11TexturePack4RectC2Eiiiiiiii
Yma:__ZN6ginput12InputManager10touchBeginEiiii
VA:_glfwSetMouseWheelCallback
Rud:__ZNSt3__215__time_get_tempIwEC2EPKc
z1a:__ZNK15b2DistanceJoint15GetDampingRatioEv
u:nan
ml:__emval_register
Xac:_mpg123_init_string
Dxc:_psh_glyph_find_blue_points
Wac:_mpg123_free_string
Lxd:__ZNSt3__212_GLOBAL__N_14makeINS_7num_putIcNS_19ostreambuf_iteratorIcNS_11char_traitsIcEEEEEEjEERT_T0_
Tza:__ZN24b2TypedIntrusiveListNodeI14b2TrackedBlockE23GetInstanceFromListNodeEP19b2IntrusiveListNode
BTb:_unzLocateFile
Vuc:_cf2_glyphpath_computeOffset
Vlb:__ZN14GGSoundManager11SoundDeleteEm
_Q:__ZNSt3__26vectorIfNS_9allocatorIfEEE10deallocateEv
R8a:__ZN12MatrixBinder5getTyEP9lua_State
OHd:__ZNSt3__212basic_stringIwNS_11char_traitsIwEENS_9allocatorIwEEE6insertEjRKS5_jj
K2b:__ZL7f_writeP9lua_State
XYc:_sethostent
ZBa:__Z5b2AbsIiET_S0_
ytd:__ZNKSt3__27num_getIcNS_19istreambuf_iteratorIcNS_11char_traitsIcEEEEE3getES4_S4_RNS_8ios_baseERjRm
WBc:_ft_set_current_renderer
Bk:__embind_register_float
Kxa:__ZN6b2Vec3C2Ev
Bdd:__ZNSt3__215basic_streambufIwNS_11char_traitsIwEEE5sgetnEPwi
afd:__ZNSt3__213basic_istreamIwNS_11char_traitsIwEEErsEPFRNS_9basic_iosIwS2_EES6_E
r1:__ZNSt3__26__treeINS_12__value_typeIiiEENS_19__map_value_compareIiS2_NS_4lessIiEELb1EEENS_9allocatorIS2_EEE5eraseENS_21__tree_const_iteratorIS2_PNS_11__tree_nodeIS2_PvEEiEE
Qla:__ZNSt3__26__treeINS_12__value_typeIjNS_6vectorIP17ginput_TouchEventNS_9allocatorIS4_EEEEEENS_19__map_value_compareIjS8_NS_4lessIjEELb1EEENS5_IS8_EEE12__find_equalIjEERPNS_16__tree_node_baseIPvEERPNS_15__tree_end_nodeISJ_EERKT_
hFa:__ZN7b2Joint8GetBodyBEv
Tec:_stream_lseek
IZa:__ZN17ApplicationBinder16getScreenDensityEP9lua_State
rPd:__ZNSt3__26vectorINS0_IN10__cxxabiv112_GLOBAL__N_111string_pairENS2_11short_allocIS3_Lj4096EEEEENS4_IS6_Lj4096EEEE24__emplace_back_slow_pathIJS5_EEEvDpOT_
jpc:_tt_size_init_bytecode
V5a:__ZN14FontBaseBinder9getBoundsEP9lua_State
qdc:_INT123_synth_4to1_8bit
pmc:_af_iup_interp
WPc:_bind_textdomain_codeset
zUa:__ZN11AudioBinder21SoundChannel_destructEP9lua_State
Ywb:_png_icc_check_header
lpd:__ZNKSt3__27codecvtIwc11__mbstate_tE6do_outERS1_PKwS5_RS5_PcS7_RS7_
sbd:__ZNSt3__214basic_iostreamIcNS_11char_traitsIcEEED1Ev
L6c:__ZNSt3__27__sort5IRNS_6__lessIwwEEPwEEjT0_S5_S5_S5_S5_T_
gF:_sqrt
hqd:__ZNKSt3__212ctype_bynameIcE10do_tolowerEc
JKa:__ZN16b2ParticleHandle8SetIndexEi
oxa:__ZN12b2MouseJointD0Ev
Yna:__ZN12_GLOBAL__N_121GGStreamOpenALManager16ChannelSetVolumeEmf
fyd:__ZNSt3__212_GLOBAL__N_14makeINS_8time_getIwNS_19istreambuf_iteratorIwNS_11char_traitsIwEEEEEEjEERT_T0_
f4b:__ZL21matchbracketclassUTF8jPKcS0_
tq:_emscripten_glBlendFuncSeparate
Knd:__ZNKSt3__217moneypunct_bynameIwLb0EE14do_frac_digitsEv
kDa:__ZN22b2EdgeAndCircleContactC2EP9b2FixtureS1_
fP:__ZN3Dib8getPixelEiiPh
hFc:_inject_event
kQa:__ZN8MemCache7CleanupEv
sfa:__Z16ogl2BuildProgramjjNSt3__212basic_stringIcNS_11char_traitsIcEENS_9allocatorIcEEEE
ry:_glGetQueryObjectuivEXT
gaa:__ZN6Sprite8addChildEPS_P7GStatus
o:gb
oUa:__ZN18RenderTargetBinderC2EP9lua_State
dh:___assert_fail
OId:__ZNKSt3__212basic_stringIwNS_11char_traitsIwEENS_9allocatorIwEEE17find_first_not_ofENS_17basic_string_viewIwS2_EEj
Rbb:__ZL20eventClosureWithDataP9lua_State
ukc:_tt_face_load_sbix_image
Lu:_emscripten_set_mouseover_callback
bOb:__ZN10ByteBufferC2Ev
VAa:__ZNK15b2DistanceProxy9GetVertexEi
qja:_close_806
acd:__ZNKSt3__28ios_base6getlocEv
QFa:__ZN9b2Fixture11SynchronizeEP12b2BroadPhaseRK11b2TransformS4_
U1c:_mseek_2626
zI:__ZN9ParticlesD2Ev
ifa:__ZN17ogl2ShaderProgram11setConstantEiN13ShaderProgram12ConstantTypeEiPKv
JFa:__ZNK9b2Contact9IsEnabledEv
bwd:__ZNKSt3__210moneypunctIwLb1EE10pos_formatEv
ZHd:__ZNSt3__212basic_stringIwNS_11char_traitsIwEENS_9allocatorIwEEE7replaceEjjPKwj
eJb:_init_mem_destination
Yza:__ZNK7b2Timer15GetMillisecondsEv
oWc:_putc
MUb:__ZL10cleartableP8GCObject
Odc:_INT123_synth_1to1_mono
jrc:_Ins_SROUND
eVd:mftCall_viidiiii
KRd:__ZN10__cxxabiv112_GLOBAL__N_110save_valueIbED2Ev
vlc:_gray_raster_render
LHb:_jpeg_idct_1x1
S2c:_puts
T2c:_putw
CBa:__ZN13b2DynamicTree8FreeNodeEi
Fua:__ZN11b2EdgeShapeD0Ev
cAd:__ZNSt3__214collate_bynameIcEC2EPKcj
tMb:_jpeg_write_scanlines
Hpa:__ZN21GGSampleOpenALManager11SoundDeleteEm
hka:__ZNSt3__26__treeINS_12__value_typeINS_12basic_stringIcNS_11char_traitsIcEENS_9allocatorIcEEEENS_6vectorIhNS5_IhEEEEEENS_19__map_value_compareIS7_SB_NS_4lessIS7_EELb1EEENS5_ISB_EEE13__lower_boundIS7_EENS_15__tree_iteratorISB_PNS_11__tree_nodeISB_PvEEiEERKT_SN_PNS_15__tree_end_nodeIPNS_16__tree_node_baseISL_EEEE
Ara:__ZNSt3__26__treeINS_12__value_typeINS_12basic_stringIcNS_11char_traitsIcEENS_9allocatorIcEEEES7_EENS_19__map_value_compareIS7_S8_NS_4lessIS7_EELb1EEENS5_IS8_EEE7destroyEPNS_11__tree_nodeIS8_PvEE
d4a:__ZN9b2WorldED12SetDebugDrawEP11b2DebugDraw
_2a:__ZN12Box2DBinder224b2Body_getAngularDampingEP9lua_State
lLa:__ZNK7b2World7RayCastEP17b2RayCastCallbackRK6b2Vec2S4_
Kdd:__ZNSt3__215basic_streambufIwNS_11char_traitsIwEEE4swapERS3_
LJb:_jpeg_fdct_1x1
$h:___set_network_callback
ODc:_hio_read32b
hKb:_jpeg_fdct_1x2
Hhd:__ZNSt3__210__stdinbufIcED2Ev
hM:__ZN7GStatusC2ERKS_
g3a:__ZN12Box2DBinder220b2Body_getWorldPointEP9lua_State
r2b:__ZL8io_writeP9lua_State
N1:__ZNK11TTTextField9textColorEv
lCb:_png_set_packing
sja:___cxx_global_var_init_455
ad:_Mix_FadeInChannelTimed
uKb:_write_scan_header
tk:__embind_register_class_class_property
mKc:_hypot
WV:__ZNK11Application16getLogicalScaleYEv
o3:__ZNKSt3__26vectorIP11TextureDataNS_9allocatorIS2_EEE8max_sizeEv
Mpd:__ZNSt3__214collate_bynameIcED0Ev
c7a:__ZN12SpriteBinder7getClipEP9lua_State
vI:setThrew
$3c:_wcstox_776
cGd:__ZNSt3__212basic_stringIwNS_11char_traitsIwEENS_9allocatorIwEEEC2EPKwjRKS4_
K7:__ZN14TextureManagerD2Ev
a2b:__ZL9io_fcloseP9lua_State
BMa:__ZNK16b2PrismaticJoint14IsLimitEnabledEv
n_b:_luaK_self
mGa:__ZN7b2World4StepEfiii
hua:_g_pluginMain_JSNative
Cl:__pthread_cleanup_pop
FFa:__ZNK6b2Body8IsActiveEv
Xvb:_png_safecat
Ojc:_sfnt_load_face
kAb:_png_handle_sRGB
_vc:_cff_subfont_done
QDc:_c2spd_to_note
$nc:_tt_face_done
cdc:_INT123_frame_cpu_opt
jE:_pthread_rwlock_rdlock
k7c:__ZNSt3__26__sortIRNS_6__lessIiiEEPiEEvT0_S5_T_
BCa:__ZNK6b2Body12GetTransformEv
I5b:__ZL5matchP10MatchStatePKcS2_
qQc:___strchrnul
Sv:_execle
Y7:__ZNSt3__26vectorIcNS_9allocatorIcEEE18__construct_at_endEj
j6c:_setpgid
kRc:_localeconv
oMc:_sprintf
nRc:_setlocale
zfa:__ZN20gl2ShaderBufferCacheC2Ev
csb:_g_getc
lRd:__ZNSt3__26vectorINS0_INS0_IN10__cxxabiv112_GLOBAL__N_111string_pairENS2_11short_allocIS3_Lj4096EEEEENS4_IS6_Lj4096EEEEENS4_IS8_Lj4096EEEE24__emplace_back_slow_pathIJS5_EEEvDpOT_
a4:__ZN7Matrix43setEv
Tv:_execlp
WRd:__ZNSt20bad_array_new_lengthC2Ev
Gw:_glAttachShader
psd:__ZNKSt3__215__codecvt_utf16IDsLb1EE11do_encodingEv
PGb:_decode_mcu_DC_first_4
V0:__ZNSt3__26__treeIP15EventDispatcherNS_4lessIS2_EENS_9allocatorIS2_EEE16__construct_nodeIJRKS2_EEENS_10unique_ptrINS_11__tree_nodeIS2_PvEENS_22__tree_node_destructorINS5_ISE_EEEEEEDpOT_
En:_asctime
_jc:_tt_face_load_pclt
Ysa:__ZNSt3__24pairIKm8UiDialogED2Ev
fcb:__ZNK9EventTypeI10ErrorEventE4typeEv
Jfb:__ZNSt3__214__split_bufferIPNS_12basic_stringIcNS_11char_traitsIcEENS_9allocatorIcEEEENS4_IS7_EEE9push_backEOS7_
KAc:_FT_Done_Face
Kzb:_png_do_quantize
uPb:__ZNK11CPVRTString7compareEjjRKS_
vz:_glUniform2i
tz:_glUniform2f
Zva:__ZN13b2CircleShapeD0Ev
Xga:__ZN16ogl2ShaderEngine7setClipEiiii
Ncc:_INT123_dct36
Vhb:__ZNSt3__23mapINS_6vectorIcNS_9allocatorIcEEEEPN9g_private14TextureElementENS_4lessIS4_EENS2_INS_4pairIKS4_S7_EEEEED2Ev
kgc:_mpg123_enc_from_id3
NRc:___wcscoll_l
gwd:__ZNSt3__2L10__init_patIcEEvRNS_10money_base7patternERNS_12basic_stringIT_NS_11char_traitsIS5_EENS_9allocatorIS5_EEEEbcccS5_
DJc:_malloc_set_footprint_limit
Bpa:__ZN21GGSampleOpenALManagerC2Ev
lUd:mftCall_diidi
ood:__ZNSt3__211__money_getIwE13__gather_infoEbRKNS_6localeERNS_10money_base7patternERwS8_RNS_12basic_stringIcNS_11char_traitsIcEENS_9allocatorIcEEEERNS9_IwNSA_IwEENSC_IwEEEESJ_SJ_Ri
CHc:_xmp_smix_play_instrument
OCb:_png_set_gAMA
jHb:_jpeg_idct_3x6
Pxa:__ZNK6b2Vec3ngEv
Qo:_ellipseRGBA
lW:__ZN11Application11touchesMoveEP17ginput_TouchEvent
w_a:__ZN12Box2DBinder215b2Body_destructEP9lua_State
ohd:__ZNSt3__211__stdoutbufIwED0Ev
lVb:_luaC_barrierback
snb:__ZN14GGAudioManager15ChannelIsPausedEm
JXa:__ZN15UrlLoaderBinder15ignoreSslErrorsEP9lua_State
AO:__ZNSt3__213__vector_baseIN11TexturePack4RectENS_9allocatorIS2_EEED2Ev
Kba:__ZN6Sprite7setRefZEf
Jza:__ZN14b2TrackedBlock4FreeEPS_
JU:__ZN8FontBaseC2EP11Application
VSb:_fopen_file_func
aqa:__ZN21GGSampleOpenALManager7preTickEv
jSd:runPostSets6
wg:_SDL_malloc
bld:__ZNKSt3__28time_getIwNS_19istreambuf_iteratorIwNS_11char_traitsIwEEEEE15__get_monthnameERiRS4_S4_RjRKNS_5ctypeIwEE
wQa:__ZL7l_allocPvS_jj
MVc:_ffsl
kBb:_png_gamma_threshold
d1b:__ZL11luaB_dofileP9lua_State
T3b:__ZL10utf8_indexPKcS0_i
Rbd:__ZNSt3__29basic_iosIcNS_11char_traitsIcEEE10exceptionsEj
T$c:_tre_parse
RBc:_FT_Set_Renderer
rcd:__ZNKSt3__29basic_iosIwNS_11char_traitsIwEEE7rdstateEv
deb:_tlsf_free
qL:__ZN5Stage10enterFrameEid
eZ:__ZNSt3__26vectorIdNS_9allocatorIdEEE18__construct_at_endEj
sCc:_FT_Stream_GetULongLE
cR:__ZNSt3__26vectorItNS_9allocatorItEEE18__construct_at_endIPKtEENS_9enable_ifIXsr21__is_forward_iteratorIT_EE5valueEvE4typeES8_S8_j
uNd:__ZNK10__cxxabiv117__class_type_info29process_static_type_below_dstEPNS_19__dynamic_cast_infoEPKvi
oXc:_addmntent
cRb:___gl_memInit
IN:__ZNSt3__26vectorI6Point2IfENS_9allocatorIS2_EEE18__construct_at_endIPS2_EENS_9enable_ifIXsr21__is_forward_iteratorIT_EE5valueEvE4typeES9_S9_j
t$b:_lua_sethook
CR:__GLOBAL__sub_I_bitmap_cpp
stb:_z__tr_stored_block
xbc:_frame_free_buffers
$9:__ZNSt3__214__split_bufferIPPK6SpriteRNS_9allocatorIS4_EEE18__construct_at_endINS_13move_iteratorIPS4_EEEENS_9enable_ifIXsr21__is_forward_iteratorIT_EE5valueEvE4typeESE_SE_
Jvc:_cff_get_var_blend
JD:_pthread_cond_timedwait
jnc:_af_cjk_hint_edges
Ow:_glBindVertexArray
uta:_gui_setText
ORd:__ZNSt3__26vectorINS0_IN10__cxxabiv112_GLOBAL__N_111string_pairENS2_11short_allocIS3_Lj4096EEEEENS4_IS6_Lj4096EEEEC2EjRKS6_RKS7_
NUb:__ZL9isclearedPK10lua_TValuei
Axc:_psh_glyph_compute_extrema
Yia:__ZN6Path2D9setConvexEb
XJa:__ZN16b2ParticleSystem26RemoveSpuriousBodyContactsEv
jG:exposePublicSymbol
Occ:_INT123_do_layer3
hQ:___cxx_global_var_init_51
DR:___cxx_global_var_init_56
Jwc:_cff_get_ros
yFa:__ZN16b2ParticleSystem19SetDestructionByAgeEb
K9b:_snappy_compress
xbd:__ZTv0_n12_NSt3__214basic_iostreamIcNS_11char_traitsIcEEED0Ev
Eld:__ZThn8_NKSt3__215time_get_bynameIcNS_19istreambuf_iteratorIcNS_11char_traitsIcEEEEE3__cEv
u5a:__ZN15TextFieldBinder7setFontEP9lua_State
pDd:__ZNSt3__212basic_stringIcNS_11char_traitsIcEENS_9allocatorIcEEE6rbeginEv
Ucd:__ZNSt3__215basic_streambufIcNS_11char_traitsIcEEE10pubseekoffExNS_8ios_base7seekdirEj
Owb:_png_colorspace_set_endpoints
Q4b:__ZL9math_acosP9lua_State
Yvb:_png_get_header_ver
D3b:__ZL10Lutf8_charP9lua_State
$Wa:__ZN11GGGyroscope4stopEv
oB:_gluUnProject
owc:_cff_cmap_encoding_char_index
JId:__ZNKSt3__212basic_stringIwNS_11char_traitsIwEENS_9allocatorIwEEE12find_last_ofENS_17basic_string_viewIwS2_EEj
Z4a:__ZN20EventContactListener8PreSolveEP9b2ContactPK10b2Manifold
vxd:__ZNSt3__212_GLOBAL__N_14makeINS_7codecvtIcc11__mbstate_tEEjEERT_T0_
fqd:__ZNKSt3__212ctype_bynameIcE10do_toupperEc
Fk:__embind_register_smart_ptr
hZa:__ZN17ApplicationBinder9getLocaleEP9lua_State
y1c:___freadahead
V5:__ZNSt3__26__treeIP15EventDispatcherNS_4lessIS2_EENS_9allocatorIS2_EEE5clearEv
fxa:__ZN23b2ChainAndCircleContact8EvaluateEP10b2ManifoldRK11b2TransformS4_
ggb:__ZNK9g_private9StopWatch8isPausedEv
ygb:__ZNSt3__26__treeINS_12__value_typeIdNS_6vectorIiNS_9allocatorIiEEEEEENS_19__map_value_compareIdS6_NS_4lessIdEELb1EEENS3_IS6_EEE25__emplace_unique_key_argsIdJRKNS_21piecewise_construct_tENS_5tupleIJOdEEENSH_IJEEEEEENS_4pairINS_15__tree_iteratorIS6_PNS_11__tree_nodeIS6_PvEEiEEbEERKT_DpOT0_
Wed:__ZNSt3__213basic_istreamIwNS_11char_traitsIwEEE6sentryC2ERS3_b
CNa:__ZNK12b2WheelJoint14IsMotorEnabledEv
L0b:__ZL5panicP9lua_State
ZY:__ZNSt3__26vectorIiNS_9allocatorIiEEEC2Ej
DSb:___gl_dictListNewDict
kSb:_GetIntersectData
Tib:_gtexture_getUserData
Qf:_SDL_SetClipRect
cma:_ginput_isAccelerometerAvailable
rSb:___gl_transSign
Th:___libc_current_sigrtmin
GS:__Z13IsContainedInRK4RectS1_
da:invoke_di
Y3:__ZNSt3__210__list_impI12GraphicsBaseNS_9allocatorIS1_EEED2Ev
HR:__ZN6Bitmap14setAnchorPointEff
x:tempBigInt
Krb:_lflush
voa:__ZNSt3__214__split_bufferIPNS_4pairIjjEERNS_9allocatorIS3_EEE18__construct_at_endINS_13move_iteratorIPS3_EEEENS_9enable_ifIXsr21__is_forward_iteratorIT_EE5valueEvE4typeESD_SD_
kt:_emscripten_glVertexAttrib1fv
zrb:___srefill
rOa:__ZNSt3__214__rotate_rightIPP16b2ParticleHandleEET_S4_S4_
Oha:__ZL17arc_length_helperdddd
oI:FUNCTION_TABLE_viiiiiiiiiii
eVc:_significandf
TJa:__ZNK16b2ParticleSystem16GetParticleCountEv
C4c:_strsignal
nZa:__ZN17ApplicationBinder20getLogicalTranslateXEP9lua_State
nlb:__ZNSt3__26vectorIN19gevent_CallbackList15CallbackCommandENS_9allocatorIS2_EEE26__swap_out_circular_bufferERNS_14__split_bufferIS2_RS4_EE
kX:__ZNSt3__26__treeIP6TickerNS_4lessIS2_EENS_9allocatorIS2_EEE14__erase_uniqueIS2_EEjRKT_
LOa:__ZZN16b2ParticleSystem23DestroyParticlesInShapeERK7b2ShapeRK11b2TransformbEN31DestroyParticlesInShapeCallback9DestroyedEv
yJd:__ZNSt3__212_GLOBAL__N_110as_integerIlNS_12basic_stringIcNS_11char_traitsIcEENS_9allocatorIcEEEEEET_RKS7_RKT0_Pji
Eud:__ZNSt3__214__scan_keywordIPcPNS_12basic_stringIcNS_11char_traitsIcEENS_9allocatorIcEEEENS_5ctypeIcEEEET0_RT_SC_SB_SB_RKT1_Rjb
y9b:__ZN6snappyL25InternalUncompressAllTagsINS_28SnappyDecompressionValidatorEEEbPNS_18SnappyDecompressorEPT_jj
Wbb:__ZN4SlotI12CppLuaBridge8LuaEventEC2ERKS2_
re:_SDL_GL_GetProcAddress
_Ad:__ZnwjRKSt9nothrow_t
iQd:__ZN10__cxxabiv112_GLOBAL__N_125parse_noexcept_expressionINS0_2DbEEEPKcS4_S4_RT_
LOc:___towctrans_l
Yfb:__Z15refreshLocalIPsv
f_b:__ZL11trydecpointP8LexStateP7SemInfo
cpb:_gaudio_XmpSeek
ioc:_FT_Select_Metrics
hRb:_noError
rjc:_FT_Stream_EnterFrame
C0b:__ZL11adjuststackP11luaL_Buffer
Wma:_ginputp_touchBegin
Kjb:__ZNKSt3__26__treeINS_12__value_typeImPN9g_private14TextureManager18TempTextureElementEEENS_19__map_value_compareImS6_NS_4lessImEELb1EEENS_9allocatorIS6_EEE10__root_ptrEv
POb:__ZN11CPVRTString6assignEPKc
LZc:_if_nameindex
uBd:__ZNSt19bad_optional_accessD2Ev
X$a:__ZL5getb2P9lua_State
QXc:_do_setrlimit
KMb:_transencode_master_selection
C4b:__ZL11utf8_encodePcj
gjc:_tt_cmap14_char_map_def_binary
o4:__ZNSt3__26vectorINS0_I6Point2IfENS_9allocatorIS2_EEEENS3_IS5_EEE21__push_back_slow_pathIS5_EEvOT_
IWc:_getsubopt
_8:___cxx_global_var_init_1_317
kpc:_TT_Done_Context
dkc:_tt_face_load_font_dir
wzd:__ZNSt3__26locale5__imp12install_fromINS_10moneypunctIwLb1EEEEEvRKS1_
e0:__ZNSt3__26__treeINS_12__value_typeIiNS_6vectorIP8SlotBaseNS_9allocatorIS4_EEEEEENS_19__map_value_compareIiS8_NS_4lessIiEELb1EEENS5_IS8_EEE16__insert_node_atEPNS_15__tree_end_nodeIPNS_16__tree_node_baseIPvEEEERSJ_SJ_
bnd:__ZNKSt3__210moneypunctIwLb1EE16do_positive_signEv
uHd:__ZNSt3__212basic_stringIwNS_11char_traitsIwEENS_9allocatorIwEEEpLEw
A0a:__ZN11b2RopeJoint12SetMaxLengthEf
WDb:_png_write_end
ega:__ZN13ShaderProgram12ConstantDescC2Ev
kSc:_cbrtl
LUd:mftCall_viddd
V7:__ZNSt3__213__vector_baseIcNS_9allocatorIcEEED2Ev
bvc:_cf2_getNormalizedVector
TYc:_match
lD:_pixelRGBA
ubb:__ZN16EventTypeVisitor5visitEP10MouseEvent
Rad:__ZNSt3__215basic_streambufIwNS_11char_traitsIwEEE9underflowEv
Hnc:_af_face_globals_get_metrics
VPc:___libc_get_version
Mgc:_ft_mem_qalloc
wEd:__ZNSt3__212basic_stringIcNS_11char_traitsIcEENS_9allocatorIcEEE6insertIPKcEENS_9enable_ifIXaasr21__is_forward_iteratorIT_EE5valuesr38__libcpp_string_gets_noexcept_iteratorISA_EE5valueENS_11__wrap_iterIPcEEE4typeENSB_IS8_EESA_SA_
qX:__ZN11Application18setBackgroundColorEfff
N4c:_wcsncasecmp
gwc:_FT_Vector_Transform_Scaled
D7:__ZN14TimerContainer7suspendEv
EU:__ZThn8_NSt3__218basic_stringstreamIcNS_11char_traitsIcEENS_9allocatorIcEEED0Ev
V7c:__ZNSt3__27__sort3IRNS_6__lessIffEEPfEEjT0_S5_S5_T_
W1b:__ZL8settabssP9lua_StatePKcS2_
XIb:_jpeg_read_scanlines
Zcc:_INT123_prepare_decode_tables
CEb:_png_set_text_compression_mem_level
vr:_emscripten_glGenBuffers
yqa:__ZNSt3__23mapImPN21GGSampleOpenALManager7ChannelENS_4lessImEENS_9allocatorINS_4pairIKmS3_EEEEEixERS8_
mPb:__ZN11CPVRTString6appendERKS_
dUb:_luaO_pushvfstring
H0b:__ZL7errfileP9lua_StatePKci
Yhc:_ft_raster1_get_cbox
K3:__ZL5closeP13FT_StreamRec__234
iZ:__ZNSt3__26vectorIdNS_9allocatorIdEEE26__swap_out_circular_bufferERNS_14__split_bufferIdRS2_EE
t0:__ZNSt3__26vectorIPN9MovieClip5FrameENS_9allocatorIS3_EEE21__push_back_slow_pathIRKS3_EEvOT_
oPd:__ZN10__cxxabiv112_GLOBAL__N_118parse_block_invokeINS0_2DbEEEPKcS4_S4_RT_
vPa:__ZN16b2ParticleSystem14SetColorBufferEP15b2ParticleColori
mBc:_ft_raccess_sort_ref_by_id
X7:__ZNSt3__26vectorIcNS_9allocatorIcEEE8__appendEj
bac:_mpg123_encodings
Isa:__ZN10emscripten8internal12WireTypePackIJNS_3valES2_RS2_NS_11memory_viewIhEES2_S2_iiiEEC2EOS2_S7_S3_OS5_S7_S7_OiS9_S9_
DO:__ZNSt3__24pairIKNS_12basic_stringIcNS_11char_traitsIcEENS_9allocatorIcEEEEiED2Ev
yud:__ZNSt3__215time_get_bynameIcNS_19istreambuf_iteratorIcNS_11char_traitsIcEEEEEC2EPKcj
dR:__ZN5GMesh13setColorArrayEPKjPKfj
vHc:_hio_read24l
XBa:__ZNK13b2DynamicTree8ValidateEv
uyd:__ZNKSt3__26vectorIPNS_6locale5facetENS_15__sso_allocatorIS3_Lj28EEEE8max_sizeEv
IAc:_load_mac_face
Ua:ftCall_iiiiiiiiii
WXd:b71
yIb:_find_nearby_colors
oYb:__ZL8testnextP8LexStatei
AV:__ZN11Application30calculateLogicalTransformationEv
k1:__ZNSt3__26__treeINS_12__value_typeIiiEENS_19__map_value_compareIiS2_NS_4lessIiEELb1EEENS_9allocatorIS2_EEE16__construct_nodeIJRKNS_21piecewise_construct_tENS_5tupleIJRKiEEENSE_IJEEEEEENS_10unique_ptrINS_11__tree_nodeIS2_PvEENS_22__tree_node_destructorINS7_ISM_EEEEEEDpOT_
Bsd:__ZNKSt3__215__codecvt_utf16IDiLb0EE16do_always_noconvEv
Mn:_atan2l
Ke:_SDL_GetRGBA
N0c:_chmod
Bab:__ZNSt3__26__treeINS_12__value_typeIiNS_6vectorIP12CppLuaBridgeNS_9allocatorIS4_EEEEEENS_19__map_value_compareIiS8_NS_4lessIiEELb1EEENS5_IS8_EEE16__insert_node_atEPNS_15__tree_end_nodeIPNS_16__tree_node_baseIPvEEEERSJ_SJ_
Jid:__ZNSt3__29__num_getIcE17__stage2_int_prepERNS_8ios_baseEPcRc
Ln:_atan2f
fBc:_FT_Raccess_Get_HeaderInfo
mJb:_term_source
JSa:__ZN15ParticlesBinder12addParticlesEP9lua_State
VCd:__ZNSt3__212basic_stringIcNS_11char_traitsIcEENS_9allocatorIcEEEaSERKS5_
CRc:___pthread_self_217
vRc:___pthread_self_216
Ddc:_INT123_synth_2to1_8bit_m2s
nab:__ZN4SlotI13TimerListener10TimerEventEeqERKS2_
TOc:___pthread_self_212
_h:___setErrNo
CUc:_nanf
DUd:mftCall_iiiiiiiiiii
zdb:_align_down
lt:_emscripten_glVertexAttrib2f
m3b:__ZL4LshrP9lua_State
UMb:___cxx_global_var_init_1303
Asc:_TT_Access_Glyph_Frame
p4b:__ZL12utf8_isgraphj
w6:__ZNSt3__213__vector_baseIP5TimerNS_9allocatorIS2_EEED2Ev
ctb:__Z21setDocumentsDirectoryPKc
$md:__ZNKSt3__210moneypunctIwLb1EE11do_groupingEv
evd:__ZNSt3__28time_putIcNS_19ostreambuf_iteratorIcNS_11char_traitsIcEEEEEC2EPKcj
p5b:__ZL15createmetatableP9lua_State
eac:_cap_fit
Yzc:_FT_Glyph_StrokeBorder
cPa:__ZZN16b2ParticleSystem33CreateParticlesWithShapesForGroupEPKPK7b2ShapeiRK18b2ParticleGroupDefRK11b2TransformENK14CompositeShape7RayCastEP15b2RayCastOutputRK14b2RayCastInputSA_i
VOc:_closedir
zga:__ZN13ShaderTextureD2Ev
iA:_glfwDestroyCond
_4a:__ZN20EventContactListener9PostSolveEP9b2ContactPK16b2ContactImpulse
io:_dladdr
ro:_eglCreateWindowSurface
sga:__ZN13ShaderProgram12ConstantDescC2EOS0_
Uvb:_png_reset_crc
e2b:__ZL9io_pcloseP9lua_State
qvb:_z_gzrewind
Uhd:__ZNSt3__26locale5facetD2Ev
NEa:__ZN7b2World12SetDebugDrawEP6b2Draw
bVa:__ZN11AudioBinder10Sound_playEP9lua_State
SAc:_FT_Raccess_Guess
Urb:___swsetup
Klc:_gray_render_scanline
uzd:__ZNSt3__26locale5__imp12install_fromINS_10moneypunctIcLb1EEEEEvRKS1_
HNa:__ZN6b2RopeC2Ev
ugd:__ZNSt3__213basic_ostreamIwNS_11char_traitsIwEEElsEPFRNS_9basic_iosIwS2_EES6_E
U7b:__ZN8pystring2os4path11isabs_posixERKNSt3__212basic_stringIcNS2_11char_traitsIcEENS2_9allocatorIcEEEE
kka:__ZN14NetworkManager14setMd5FileNameEPKc
r0b:_luaL_register
RJb:_jpeg_fdct_14x14
B8a:__ZN6Sprite6setXYZEfff
X1:__ZN6TTFontD2Ev
LOb:__Z20ETCTextureDecompressPKvRKiS2_S0_S2_
xI:__ZN11LayoutEventD0Ev
Cab:__ZNKSt3__26__treeINS_12__value_typeIiNS_6vectorIP12CppLuaBridgeNS_9allocatorIS4_EEEEEENS_19__map_value_compareIiS8_NS_4lessIiEELb1EEENS5_IS8_EEE10__root_ptrEv
qra:__GLOBAL__sub_I_ghttp_js_cpp
BAb:_png_inflate_claim
XO:__ZN16GiderosExceptionD0Ev
Ijb:__ZNSt3__26__treeINS_12__value_typeImPN9g_private14TextureManager18TempTextureElementEEENS_19__map_value_compareImS6_NS_4lessImEELb1EEENS_9allocatorIS6_EEE16__construct_nodeIJRKNS_21piecewise_construct_tENS_5tupleIJRKmEEENSI_IJEEEEEENS_10unique_ptrINS_11__tree_nodeIS6_PvEENS_22__tree_node_destructorINSB_ISQ_EEEEEEDpOT_
a$:__ZL16easeInOutElasticddd
eAa:__ZN16b2StackAllocator8AllocateEi
ZCd:__ZNSt3__212basic_stringIcNS_11char_traitsIcEENS_9allocatorIcEEE19__copy_assign_allocERKS5_
ATb:_unzGoToNextFile
PAd:__ZNSt3__211timed_mutexD2Ev
yhc:_Init_Linked
Eta:_ggeolocation_stopUpdatingLocation
pNa:__ZNK11b2GearJoint8GetRatioEv
AEa:__ZN16b2ParticleSystem16ReallocateBufferIfEEPT_S2_ii
lV:__ZN3Dib15intelligentFillEv
uxb:_png_build_16bit_table
end:__ZNKSt3__210moneypunctIwLb1EE13do_pos_formatEv
W2c:_remove
Iqb:__ZNSt3__214__split_bufferI8GGPluginRNS_9allocatorIS1_EEEC2EjjS4_
nzc:_ft_stroke_border_lineto
cla:__ZN20GGApplicationManagerC2Ev
Nw:_glBindTexture
tRc:_snprintf
dtc:_cff_glyph_load
qud:__ZNSt3__220__time_get_c_storageIwEC2Ev
tia:__ZL9gen_pathsi
a9b:__ZN6snappy13RawUncompressEPKcjPc
Gqb:__ZNSt3__26vectorI8GGPluginNS_9allocatorIS1_EEE21__push_back_slow_pathIRKS1_EEvOT_
Xzb:_png_read_filter_row_sub
_sc:_cff_face_done
YWb:_lua_tothread
kid:__ZNKSt3__27num_getIcNS_19istreambuf_iteratorIcNS_11char_traitsIcEEEEE6do_getES4_S4_RNS_8ios_baseERjRe
iid:__ZNKSt3__27num_getIcNS_19istreambuf_iteratorIcNS_11char_traitsIcEEEEE6do_getES4_S4_RNS_8ios_baseERjRf
fs:_emscripten_glGetVertexAttribiv
X6c:__ZNSt3__27__sort5IRNS_6__lessIhhEEPhEEjT0_S5_S5_S5_S5_T_
psb:_g_vfprintf
cid:__ZNKSt3__27num_getIcNS_19istreambuf_iteratorIcNS_11char_traitsIcEEEEE6do_getES4_S4_RNS_8ios_baseERjRl
gid:__ZNKSt3__27num_getIcNS_19istreambuf_iteratorIcNS_11char_traitsIcEEEEE6do_getES4_S4_RNS_8ios_baseERjRm
gAb:_png_push_have_info
jT:__ZNK4Font7getTypeEv
_Fa:__ZN24b2PositionSolverManifold10InitializeEP27b2ContactPositionConstraintRK11b2TransformS4_i
B1a:__ZNK15b2DistanceJoint12GetFrequencyEv
HOb:__ZL18InterpolateColoursPKiS0_S0_S0_iiiPi
J3c:_imaxdiv
pma:__ZN6ginput12InputManager14deleteKeyEventEP15ginput_KeyEvent
hid:__ZNKSt3__27num_getIcNS_19istreambuf_iteratorIcNS_11char_traitsIcEEEEE6do_getES4_S4_RNS_8ios_baseERjRy
z9b:__ZN6snappy28SnappyDecompressionValidator17SetExpectedLengthEj
Gcc:_II_select_table
lZc:_recv
DSa:__ZN12ScreenBinder5getIdEP9lua_State
FYa:__ZN9ParameterC2EOS_
bVd:mftCall_viidi
jFc:_mixer_softmixer
Wtc:_cf2_hintmask_isValid
Bc:invoke_viiiiiiiiii
eNd:__ZNSt3__26gslice6__initEj
wfc:_INT123_synth_ntom_set_step
ybc:_INT123_fi_exit
ABb:_png_set_strip_16
OK:__ZNK6Sprite5childEi
Lp:_emscripten_get_canvas_element_size
xAa:__ZNK19b2IntrusiveListNode9GetLengthEv
sNa:__ZNK13b2PulleyJoint10GetLengthBEv
RNc:___ispunct_l
lf:_SDL_JoystickNumHats
h0a:__ZN11b2DebugDraw10DrawCircleERK6b2Vec2fRK7b2Color
ota:__ZL14gui_eventInputmiPKcS0_
e0a:__ZN11b2DebugDraw6doDrawERK7Matrix4ffff
Vlc:_ft_smooth_render_lcd_v
N8a:__ZN12MatrixBinder6getM12EP9lua_State
h5a:__ZN19AccelerometerBinder11isAvailableEP9lua_State
Gfa:__ZNSt3__26__treeIP20gl2ShaderBufferCacheNS_4lessIS2_EENS_9allocatorIS2_EEE16__construct_nodeIJS2_EEENS_10unique_ptrINS_11__tree_nodeIS2_PvEENS_22__tree_node_destructorINS5_ISC_EEEEEEDpOT_
B2a:__ZN12Box2DBinder223b2Fixture_GetFilterDataEP9lua_State
tVa:__ZN10MeshBinderC2EP9lua_State
PFc:_get_instrument
kza:__ZNK11b2RopeJoint17GetReactionTorqueEf
PEc:_virt_setbend
H6c:__ZNSt3__227__insertion_sort_incompleteIRNS_6__lessIccEEPcEEbT0_S5_T_
c1b:__ZL19luaB_collectgarbageP9lua_State
E1c:_ungetc
r$:__ZN9ParameterC2EPKcffS1_
fMd:__ZNSt3__215system_categoryEv
fp:_emscripten_async_wget2_abort
_Ia:__ZNK16b2ParticleSystem16ConnectionFilter11IsNecessaryEi
FPb:__ZNK11CPVRTString5emptyEv
rA:_glfwGetKey
_8c:__ZNKSt3__211__libcpp_db15__find_c_from_iEPv
bwa:__ZNK13b2CircleShape15ComputeDistanceERK11b2TransformRK6b2Vec2PfPS3_i
J9:__ZNSt3__214__split_bufferIPNS_4pairIP6SpritebEERNS_9allocatorIS5_EEE10push_frontERKS5_
Gvb:_z_deflateCopy
I0b:__ZL4getFP9lua_StatePvPj
Rp:_emscripten_get_element_css_size
IBa:__Z5b2MinIiET_S0_S0_
g6:__ZN10ErrorEvent5applyEP12EventVisitor
Skb:_gevent_Init
qVd:mftCall_viiiiiiid
HJ:__ZNSt3__214__split_bufferIN9Particles5ColorERNS_9allocatorIS2_EEED2Ev
vld:__ZNKSt3__215time_get_bynameIcNS_19istreambuf_iteratorIcNS_11char_traitsIcEEEEE8__monthsEv
Y9a:__ZN5Timer14setRepeatCountEi
Uza:__ZN24b2TypedIntrusiveListNodeI14b2TrackedBlockE13GetNodeOffsetEP19b2IntrusiveListNode
xqb:_luaL_rawgetptr
rba:__ZNK6Sprite9getBoundsEPKS_PfS2_S2_S2_
rVd:mftCall_viiiiiiii
mNa:__ZN12b2MotorJoint16SetAngularOffsetEf
xm:_alGetListenerfv
NLd:__ZNSt3__212strstreambufC2EPKai
xBd:__ZNSt3__213random_deviceC2ERKNS_12basic_stringIcNS_11char_traitsIcEENS_9allocatorIcEEEE
iQ:___cxx_global_var_init_1_52
j7b:__ZNSt3__210__find_endIPFbccEPKcS4_EET0_S5_S5_T1_S6_T_NS_26random_access_iterator_tagES8_
Sz:_glVertexAttribDivisor
uec:_stream_skip_bytes
UMa:__ZNK15b2RevoluteJoint14IsMotorEnabledEv
VMb:___cxx_global_var_init_2_1304
$5b:__ZL9addintlenPc
NXb:_luaF_newupval
G2c:_ms_close
rCa:__ZN6b2Body8SetAwakeEb
gpc:_tt_size_run_prep
cIa:__ZNSt3__216__insertion_sortIRPFbRKN16b2ParticleSystem5TriadES4_EPS2_EEvT0_S9_T_
_sd:__ZNKSt3__220__codecvt_utf8_utf16IDiE11do_encodingEv
Ez:_glUniform4iv
dea:__ZNK7Matrix44dataEv
Ekc:_tt_sbit_decoder_alloc_bitmap
$Wc:___fflush_unlocked
QAc:_IsMacResource
qMa:__ZN12b2MouseJoint12SetFrequencyEf
An:_alcOpenDevice
fR:__ZN5GMesh17resizeVertexArrayEj
cC:_llvm_copysign_f32
d0:__ZNSt3__26__treeINS_12__value_typeIiNS_6vectorIP8SlotBaseNS_9allocatorIS4_EEEEEENS_19__map_value_compareIiS8_NS_4lessIiEELb1EEENS5_IS8_EEE16__construct_nodeIJRKNS_21piecewise_construct_tENS_5tupleIJOiEEENSJ_IJEEEEEENS_10unique_ptrINS_11__tree_nodeIS8_PvEENS_22__tree_node_destructorINS5_ISQ_EEEEEEDpOT_
ixc:_ps_hints_done
y1a:__ZN12Box2DBinder231b2DistanceJoint_getDampingRatioEP9lua_State
JEa:__ZN16b2ParticleSystem16ReallocateBufferIP16b2ParticleHandleEEPT_S4_ii
JMc:_strerror
NP:__ZN7TileMapD0Ev
g2b:__ZL7newfileP9lua_State
Iuc:_cf2_arrstack_push
gra:__Z9getLocalev
Ffb:__ZNSt3__25dequeINS_12basic_stringIcNS_11char_traitsIcEENS_9allocatorIcEEEENS4_IS6_EEE19__add_back_capacityEv
bMa:__ZN6b2Body13ResetMassDataEv
vpb:__ZNSt3__26__treeINS_12__value_typeIi8FileInfoEENS_19__map_value_compareIiS3_NS_4lessIiEELb1EEENS_9allocatorIS3_EEE25__emplace_unique_key_argsIiJRKNS_21piecewise_construct_tENS_5tupleIJRKiEEENSF_IJEEEEEENS_4pairINS_15__tree_iteratorIS3_PNS_11__tree_nodeIS3_PvEEiEEbEERKT_DpOT0_
U2c:_putwc
bra:__Z21setKeyboardVisibilityb
H$a:__ZN12Box2DBinder221b2Contact_getFixtureBEP9lua_State
slb:_gevent_RemoveCallbackWithGid
Exc:_psh_glyph_interpolate_strong_points
fw:_flock
OEc:_free_voice
Ekd:__ZNKSt3__28time_getIcNS_19istreambuf_iteratorIcNS_11char_traitsIcEEEEE10__get_yearERiRS4_S4_RjRKNS_5ctypeIcEE
e9a:__ZN12MatrixBinder5scaleEP9lua_State
DT:__ZNSt3__214__split_bufferI12GraphicsBaseRNS_9allocatorIS1_EEED2Ev
gdb:_block_size
LAd:__ZNSt3__215recursive_mutex4lockEv
a_:__ZL15easeCosineCurved
AJa:__ZN12_GLOBAL__N_117FixedSetAllocator8SetCountEi
wGc:_set_lfo_depth
CZc:_herror
zXd:_emscripten_set_main_loop__wrapper
$Md:__ZNSt3__215__thread_struct25notify_all_at_thread_exitEPNS_18condition_variableEPNS_5mutexE
i8b:__ZN8pystring2os4path4joinERKNSt3__26vectorINS2_12basic_stringIcNS2_11char_traitsIcEENS2_9allocatorIcEEEENS7_IS9_EEEE
bz:_glShaderBinary
W7c:__ZNSt3__27__sort4IRNS_6__lessIffEEPfEEjT0_S5_S5_S5_T_
v4:__ZN5Shape13ensureSubpathEff
Vp:_emscripten_get_mouse_status
Wmd:__ZNKSt3__210moneypunctIwLb0EE13do_neg_formatEv
_qb:_g_setInstance
Ybb:__ZNKSt3__26vectorIP12CppLuaBridgeNS_9allocatorIS2_EEE8max_sizeEv
WSc:___DOUBLE_BITS_334
ojb:__ZNSt3__23mapImPN9g_private19RenderTargetElementENS_4lessImEENS_9allocatorINS_4pairIKmS3_EEEEEixERS8_
zoa:__ZNSt3__214__split_bufferIPNS_4pairIjjEERNS_9allocatorIS3_EEE9push_backEOS3_
K_a:__ZN12Box2DBinder210b2GetScaleEP9lua_State
lPb:__ZN11CPVRTStringC2Ec
KIb:_create_colorindex
uFd:__ZNKSt3__212basic_stringIcNS_11char_traitsIcEENS_9allocatorIcEEE16find_last_not_ofEcj
Vwa:__Z23b2CollideEdgeAndPolygonP10b2ManifoldPK11b2EdgeShapeRK11b2TransformPK14b2PolygonShapeS6_
W$b:_lua_getprintfunc
S8b:__ZN6snappy17UNALIGNED_STORE32EPvj
i2b:__ZL8io_flushP9lua_State
fAb:_png_handle_PLTE
JMd:__ZNSt3__219__thread_struct_imp25notify_all_at_thread_exitEPNS_18condition_variableEPNS_5mutexE
uE:_pthread_setcancelstate
n6a:__ZN12BitmapBinder14setAnchorPointEP9lua_State
L_c:_res_querydomain
Did:__ZNKSt3__27num_getIcNS_19istreambuf_iteratorIcNS_11char_traitsIcEEEEE23__do_get_floating_pointIdEES4_S4_S4_RNS_8ios_baseERjRT_
OOc:___pthread_self
rxd:__ZNSt3__212_GLOBAL__N_14makeINS_5ctypeIcEEDnbjEERT_T0_T1_T2_
x6b:__ZL7tinsertP9lua_State
wYa:__ZN15MovieClipBinder13setStopActionEP9lua_State
eMb:_rgb_convert_158
Xyc:_FT_Glyph_Get_CBox
Sga:__ZN16ogl2ShaderEngine8setModelE7Matrix4
Xid:__ZNSt3__27num_getIwNS_19istreambuf_iteratorIwNS_11char_traitsIwEEEEED0Ev
PQa:__ZN14LuaApplication18Core_profilerResetEP9lua_State
Mpa:__ZN21GGSampleOpenALManager18ChannelSetPositionEmj
QCa:__ZN9b2Contact7AddTypeEPFPS_P9b2FixtureiS2_iP16b2BlockAllocatorEPFvS0_S4_EN7b2Shape4TypeESA_
n8:__ZN6Sprite6doDrawERK7Matrix4ffff
aAd:__ZNKSt3__26locale9has_facetERNS0_2idE
Vz:_glVertexAttribDivisorEXT
S_:__ZL8easeNoned
Wg:_XSetWMHints
X4:__ZNKSt3__26vectorIPdNS_9allocatorIS1_EEE8max_sizeEv
u3a:__ZN6b2Body18SetSleepingAllowedEb
Yz:_glVertexPointer
rXb:_lua_getfenv
lDc:_pattern_alloc
V0c:_mkdir
RZ:__ZN9ParameterD2Ev
fWa:__ZNSt3__214__split_bufferIjRNS_9allocatorIjEEEC2EjjS3_
cja:_parse
nUb:__ZL13propagatemarkP12global_State
sQd:__ZN10__cxxabiv112_GLOBAL__N_111string_pairC2ILj6EEERAT__Kc
JKc:_cargl
kpb:__ZL7s_closei
s5c:_acct
Ajb:_gtexture_RestoreRenderTargets
kKa:__ZZN16b2ParticleSystem18UpdateBodyContactsEvEN26UpdateBodyContactsCallback13ReportFixtureEP9b2Fixture
lIa:__ZNSt3__212__rotate_gcdIPN16b2ParticleSystem5TriadEEET_S4_S4_S4_
Cfa:__ZNSt3__26__treeIP20gl2ShaderBufferCacheNS_4lessIS2_EENS_9allocatorIS2_EEEC2ERKS4_
xZa:__ZN17ApplicationBinder14setOrientationEP9lua_State
rD:_pow
zZc:_getservbyport_r
DWa:__ZN17GGTextInputDialog10callback_sEiPvS0_
uYa:__ZN15MovieClipBinder11gotoAndPlayEP9lua_State
fHb:_jpeg_idct_float
T4:__ZN10Tesselator14EdgeCallback_sEhPv
Igb:_gtimer_stop
Fwd:__ZNKSt3__29money_getIwNS_19istreambuf_iteratorIwNS_11char_traitsIwEEEEE3getES4_S4_bRNS_8ios_baseERjRe
bq:_emscripten_get_preloaded_image_data_from_FILE
BWc:_permute
se:_SDL_GL_GetSwapInterval
Jad:__ZNSt3__215basic_streambufIwNS_11char_traitsIwEEED0Ev
HD:_pthread_cond_init
Kaa:__ZNSt3__25dequeI9_cliprectNS_9allocatorIS1_EEE9push_backERKS1_
X$:__ZN4SlotI9MovieClip15EnterFrameEventEC2EPS0_MS0_FvPS1_E
vf:_SDL_LockSurface
Vnc:_af_property_get
iqb:__ZNSt3__26__treeINS_12__value_typeIPKciEENS_19__map_value_compareIS3_S4_N8StringId5ltstrELb1EEENS_9allocatorIS4_EEE4findIS3_EENS_15__tree_iteratorIS4_PNS_11__tree_nodeIS4_PvEEiEERKT_
wOc:___iswspace_l
v$:__ZNSt3__26__treeINS_12__value_typeIP6SpriteiEENS_19__map_value_compareIS3_S4_NS_4lessIS3_EELb1EEENS_9allocatorIS4_EEEC2ERKS8_
K8c:__ZNKSt3__224__libcpp_debug_exception4whatEv
Aud:__ZNSt3__210__time_getC2EPKc
Qia:__ZN6Path2DC2EP11Application
kFd:__ZNKSt3__212basic_stringIcNS_11char_traitsIcEENS_9allocatorIcEEE12find_last_ofEcj
dLd:__ZNSt3__210to_wstringEd
Ugc:_ft_outline_glyph_transform
s$c:_loadstate
Kgd:__ZNSt3__213basic_ostreamIwNS_11char_traitsIwEEE3putEw
kzc:_FT_Vector_From_Polar
Itd:__ZNKSt3__27num_getIwNS_19istreambuf_iteratorIwNS_11char_traitsIwEEEEE3getES4_S4_RNS_8ios_baseERjRt
xkb:__ZNSt3__214__split_bufferIPN6gevent12EventManager17EventQueueElementERNS_9allocatorIS4_EEEC2EjjS7_
aJc:__ZN10emscripten8internal11LightTypeIDIsE3getEv
GRc:_tolower_l
Eyb:_png_get_hIST
LHd:__ZNSt3__212basic_stringIwNS_11char_traitsIwEENS_9allocatorIwEEE6insertEjRKS5_
Cia:__ZL7line_toP12reduced_pathffff
eoa:__ZN12_GLOBAL__N_121GGStreamOpenALManager21ChannelRemoveCallbackEmPFviPvS1_ES1_
bRb:_internal_gluNewTess
B4:__ZNSt3__24listI12GraphicsBaseNS_9allocatorIS1_EEE9push_backEOS1_
xva:__ZN19b2IntrusiveListNode10InitializeEv
fYb:_luaX_lexerror
APb:__ZNK11CPVRTStringeqEPKc
zMc:_vfprintf
o0:__ZNSt3__26__treeINS_12__value_typeIiiEENS_19__map_value_compareIiS2_NS_4lessIiEELb1EEENS_9allocatorIS2_EEE4findIiEENS_15__tree_iteratorIS2_PNS_11__tree_nodeIS2_PvEEiEERKT_
$Fa:__ZN9b2Contact11GetManifoldEv
r6a:__ZN6BitmapC2EP11ApplicationP10BitmapData
osc:_tt_face_free_hdmx
rec:_plain_fullread
$Od:__ZN10__cxxabiv112_GLOBAL__N_15arenaILj4096EED2Ev
YId:__ZNKSt3__212basic_stringIwNS_11char_traitsIwEENS_9allocatorIwEEE7compareENS_17basic_string_viewIwS2_EE
qid:__ZNSt3__217__libcpp_sscanf_lEPKcP15__locale_structS1_z
CK:__ZNSt3__26removeINS_11__wrap_iterIPP8SlotBaseEES3_EET_S6_S6_RKT0_
tDc:_hio_read8s
zea:__ZNSt3__214__split_bufferIPN12ShaderEngine12DepthStencilENS_9allocatorIS3_EEE10push_frontEOS3_
Bob:_gaudio_BackgroundChannelSetPosition
TNa:__ZN16b2ParticleSystem21DestroyOldestParticleEib
moc:_TT_Get_VMetrics
mV:__ZN3Dib16premultiplyAlphaEv
qp:_emscripten_autodebug_i32
e5a:__ZN19AccelerometerBinderC2EP9lua_State
zt:_emscripten_gluLookAt
Eea:__ZNSt3__212__deque_baseIN12ShaderEngine7ScissorENS_9allocatorIS2_EEED2Ev
qkd:__ZNSt3__2L10init_weeksEv
Wya:__ZN11b2GearJoint23InitVelocityConstraintsERK12b2SolverData
i0:__ZN4SlotI9MovieClip15EnterFrameEventE4callEP5Event
BBd:__ZNSt3__211regex_errorD2Ev
l2a:__ZN12Box2DBinder223b2ChainShape_createLoopEP9lua_State
RCd:__ZNSt3__212basic_stringIcNS_11char_traitsIcEENS_9allocatorIcEEEC2ESt16initializer_listIcERKS4_
FPa:__ZN15b2ParticleGroup13SetGroupFlagsEi
Qbb:__ZL12eventClosureP9lua_State
zTb:_unzGetCurrentFileInfo
w8c:__ZNSt3__26chrono12system_clock9to_time_tERKNS0_10time_pointIS1_NS0_8durationIxNS_5ratioILx1ELx1000000EEEEEEE
w5a:__ZN15TextFieldBinder7setTextEP9lua_State
HQb:___gl_meshZapFace
wNc:_pad
J4b:__ZL11push_offsetP9lua_StatePKcS2_S2_i
Wdd:__ZNSt3__213basic_istreamIcNS_11char_traitsIcEEEC1EPNS_15basic_streambufIcS2_EE
Fd:_Mix_ResumeMusic
bDa:__ZN24b2ChainAndPolygonContactC2EP9b2FixtureiS1_i
Ikc:_tt_face_done_kern
kMc:_sha512crypt
tW:__ZN11Application13setResolutionEii
GVa:__ZN10MeshBinder13setColorArrayEP9lua_State
F$c:___pthread_self_535
Z9b:_INT123_dither_table_init
Cy:_glGetUniformfv
ja:invoke_diid
bWa:__ZNSt3__213__vector_baseIjNS_9allocatorIjEEED2Ev
Lgd:__ZNSt3__213basic_ostreamIwNS_11char_traitsIwEEE5writeEPKwi
oac:_mpg123_fmt
Otd:__ZNKSt3__27num_getIwNS_19istreambuf_iteratorIwNS_11char_traitsIwEEEEE3getES4_S4_RNS_8ios_baseERjRe
u_:__ZL13easeOutInExpod
iyb:_png_get_pixels_per_inch
na:invoke_diii
Paa:__ZNSt3__212__deque_baseI9_cliprectNS_9allocatorIS1_EEE5clearEv
k8c:__ZNSt3__212__rs_defaultC2Ev
_Fb:_jpeg_finish_decompress
dga:__ZNSt3__214__split_bufferIP17ogl2ShaderProgramRNS_9allocatorIS2_EEED2Ev
cna:__ZNSt3__26__treeINS_12__value_typeIj7PointerEENS_19__map_value_compareIjS3_NS_4lessIjEELb1EEENS_9allocatorIS3_EEE16__insert_node_atEPNS_15__tree_end_nodeIPNS_16__tree_node_baseIPvEEEERSF_SF_
Aya:__Z7b2Mul22RK7b2Mat33RK6b2Vec2
D8c:__ZNSt3__218condition_variable15__do_timed_waitERNS_11unique_lockINS_5mutexEEENS_6chrono10time_pointINS5_12system_clockENS5_8durationIxNS_5ratioILx1ELx1000000000EEEEEEE
mPd:__ZN10__cxxabiv112_GLOBAL__N_114parse_encodingINS0_2DbEEEPKcS4_S4_RT_
MPd:__ZN10__cxxabiv112_GLOBAL__N_111string_pairC2EOS1_
qWb:__ZL11getluaprotoP8CallInfo
omc:_af_glyph_hints_align_weak_points
foc:_tt_get_advances
Ftd:__ZNKSt3__27num_getIwNS_19istreambuf_iteratorIwNS_11char_traitsIwEEEEE3getES4_S4_RNS_8ios_baseERjRb
qe:_SDL_GL_GetAttribute
Dvc:_cff_parse_maxstack
l9b:__ZN6snappy12LittleEndian6Load32EPKv
S3a:__ZN12Box2DBinder215b2World_rayCastEP9lua_State
rHa:__ZN14b2RayCastInputC2Ev
Qea:__ZN13ShaderProgramC2Ev
Gic:_tt_cmap12_char_next
Ewd:__ZNSt3__211__money_getIwEC2Ev
Hv:_emscripten_webgl_init_context_attributes
tSb:___gl_pqHeapDelete
n0b:_luaL_checkinteger
RAa:__ZN9b2Simplex9ReadCacheEPK14b2SimplexCachePK15b2DistanceProxyRK11b2TransformS5_S8_
xUb:_luaF_freeclosure
pG:getInheritedInstance
Bmc:_af_axis_hints_new_segment
JUd:mftCall_vid
s6a:__ZN16BitmapDataBinderC2EP9lua_State
ZGd:__ZNSt3__212basic_stringIwNS_11char_traitsIwEENS_9allocatorIwEEE6resizeEjw
WQ:__ZN5GMesh15setGenericArrayEiPKvN13ShaderProgram8DataTypeEii
wac:_postprocess_buffer
U2b:_luaopen_int64
Rrb:_g_ftrylockfile
M0a:__ZN11b2WeldJoint12SetFrequencyEf
XUd:mftCall_vii
SRa:__ZL12profilerHookP9lua_Statei
L0a:__ZNK11b2WeldJoint12GetFrequencyEv
t1b:__ZL13luaB_tonumberP9lua_State
$y:_glSampleCoverage
sqd:__ZNKSt3__212ctype_bynameIwE10do_tolowerEPwPKw
dIb:_build_ycc_rgb_table
zxa:__ZNK6b2Body13GetWorldPointERK6b2Vec2
yUc:_lroundf
Cvc:_cff_parse_cid_ros
Mcc:_INT123_init_layer3_stuff
EPb:__ZNK11CPVRTString4dataEv
Qga:__ZN16ogl2ShaderEngine13setProjectionE7Matrix4
VPb:__ZNK11CPVRTString12find_last_ofEcj
gt:_emscripten_glUniformMatrix4fv
D_b:__ZL4exp1P8LexState
Una:__ZN12_GLOBAL__N_121GGStreamOpenALManager18ChannelGetPositionEm
kUd:mftCall_diid
Vib:_gtexture_tick
ryb:_png_get_pHYs_dpi
ntd:__ZNKSt3__27collateIcE4hashEPKcS3_
Gdc:_INT123_synth_4to1_m2s
BR:__ZN6Bitmap6doDrawERK7Matrix4ffff
QEb:_png_image_write_to_file
Am:_alGetProcAddress
gyc:_ps_hints_stem
oXa:__ZN17GeolocationBinder4stopEP9lua_State
HAd:__ZNSt3__25mutex8try_lockEv
Yub:_gz_fetch
ySb:___gl_dictListSearch
TMd:__ZNKSt3__26vectorIPNS_17__assoc_sub_stateENS_18__hidden_allocatorIS2_EEE8max_sizeEv
_vb:_png_set_mem_fn
pdc:_INT123_synth_4to1
b5b:__ZL10math_log10P9lua_State
txd:__ZNSt3__212_GLOBAL__N_14makeINS_5ctypeIwEEjEERT_T0_
eEc:_decode_protracker_event
z9:__ZNSt3__26vectorIPNS_5stackINS_4pairIP6SpritebEENS_5dequeIS5_NS_9allocatorIS5_EEEEEENS7_ISB_EEE26__swap_out_circular_bufferERNS_14__split_bufferISB_RSC_EE
wTb:_unzGetGlobalInfo64
SRc:_wmemcpy
Tpa:__ZN21GGSampleOpenALManager15ChannelSetPitchEmf
Psa:__ZN10emscripten8internal14ArgArrayGetterINS0_8TypeListIJiNS_3valES3_RS3_NS_11memory_viewIhEES3_S3_iiiEEEE3getEv
FRb:___gl_meshNewMesh
ald:__ZNKSt3__28time_getIwNS_19istreambuf_iteratorIwNS_11char_traitsIwEEEEE17__get_weekdaynameERiRS4_S4_RjRKNS_5ctypeIwEE
Gkc:_tt_face_load_generic_header
rc:invoke_viiiiii
uYb:__ZL10repeatstatP8LexStatei
J0c:_tre_neg_char_classes_match
QJb:_jpeg_fdct_13x13
Llb:__ZNSt3__23mapImPN14GGSoundManager5SoundENS_4lessImEENS_9allocatorINS_4pairIKmS3_EEEEED2Ev
tDd:__ZNKSt3__212basic_stringIcNS_11char_traitsIcEENS_9allocatorIcEEE6cbeginEv
$qb:_g_error
AJd:__ZNSt3__212_GLOBAL__N_110as_integerIlNS_12basic_stringIwNS_11char_traitsIwEENS_9allocatorIwEEEEEET_RKNS2_IcNS3_IcEENS5_IcEEEERKT0_Pji
nk:__embind_create_inheriting_constructor
YUb:_luaO_fb2int
Oqc:_Ins_EQ
R2a:__ZN12Box2DBinder226b2Body_ApplyAngularImpulseEP9lua_State
Bua:_serverDataSent
Cjb:__ZNSt3__26vectorIcNS_9allocatorIcEEE4swapERS3_
M$a:__ZN12Box2DBinder224b2Contact_setRestitutionEP9lua_State
cqa:__ZN21GGSampleOpenALManager21SoundCreateFromBufferEPKviiii
Xm:_alSourcePlayv
eHb:_start_pass_1
Et:_emscripten_has_threading_support
bWc:_ioctl
k_a:__ZN13TileMapBinder5shiftEP9lua_State
RD:_pthread_create
LLa:__ZNK7b2World14GetTreeBalanceEv
ybb:__ZN16EventTypeVisitor5visitEP21StageOrientationEvent
UHd:__ZNSt3__212basic_stringIwNS_11char_traitsIwEENS_9allocatorIwEEE6insertIPKwEENS_9enable_ifIXaasr21__is_forward_iteratorIT_EE5valuesr38__libcpp_string_gets_noexcept_iteratorISA_EE5valueENS_11__wrap_iterIPwEEE4typeENSB_IS8_EESA_SA_
X3b:__ZL9utf8_nextPKcS0_
w$c:_temper
rfa:__Z14ogl2LoadShaderjPKcRNSt3__212basic_stringIcNS1_11char_traitsIcEENS1_9allocatorIcEEEE
yw:_getprotobyname
eYa:__ZNSt3__214__split_bufferI12ghttp_HeaderRNS_9allocatorIS1_EEED2Ev
q2b:__ZL7io_typeP9lua_State
Nkd:__ZNKSt3__28time_getIwNS_19istreambuf_iteratorIwNS_11char_traitsIwEEEEE14do_get_weekdayES4_S4_RNS_8ios_baseERjP2tm
JFb:_jpeg_free_small
up:_emscripten_cancel_main_loop
yTd:___muldi3
fLb:_encode_mcu_DC_first_160
y9a:__ZN12MatrixBinder12setRotationYEP9lua_State
Rtb:_z_deflateInit2_
YZ:__ZNSt3__26__treeINS_12__value_typeIP6SpriteiEENS_19__map_value_compareIS3_S4_NS_4lessIS3_EELb1EEENS_9allocatorIS4_EEED2Ev
Lla:__ZNKSt3__26vectorIP17ginput_TouchEventNS_9allocatorIS2_EEE8max_sizeEv
DIa:__ZN16b2VoronoiDiagramC2EP16b2StackAllocatori
bS:__ZN15MyTexturePacker11packHelper2Eii
$o:_emscripten_asm_const_iiiiiiiiii
QG:simpleReadValueFromPointer
T_:__Z4qCosd
w1b:__ZL11luaB_unpackP9lua_State
H3a:__ZL5setb2P9lua_State
vta:_gui_getText
vOa:__ZN16b2ParticleSystem16ReallocateBufferINS_5ProxyEEEPT_S3_ii
ded:__ZNSt3__28ios_base33__set_badbit_and_consider_rethrowEv
FYb:__ZL10errorlimitP9FuncStateiPKc
o6c:_setreuid
wib:__ZN9g_private14TextureManager6createEiiiiiiPKvS2_j
YIb:_jpeg_read_raw_data
VT:__ZNSt3__26vectorIiNS_9allocatorIiEEE18__construct_at_endEj
NY:__ZNSt3__26__treeIP6ScreenNS_4lessIS2_EENS_9allocatorIS2_EEE25__emplace_unique_key_argsIS2_JS2_EEENS_4pairINS_15__tree_iteratorIS2_PNS_11__tree_nodeIS2_PvEEiEEbEERKT_DpOT0_
q0c:_tre_add_tag_left
rcb:__ZN14LuaApplication8callbackEiPv
g:HEAPF32
Vmd:__ZNKSt3__210moneypunctIwLb0EE13do_pos_formatEv
zBa:__ZN12b2BroadPhase12UnBufferMoveEi
zoc:_tt_get_metrics_incr_overrides
hya:__ZNK15b2RevoluteJoint10GetAnchorAEv
byd:__ZNSt3__212_GLOBAL__N_14makeINS_9money_putIwNS_19ostreambuf_iteratorIwNS_11char_traitsIwEEEEEEjEERT_T0_
Uv:_execv
bzb:_png_malloc_array_checked
JQb:_KillEdge
cea:__ZN12ShaderEngine13getPropertiesERNSt3__23mapINS0_12basic_stringIcNS0_11char_traitsIcEENS0_9allocatorIcEEEES7_NS0_4lessIS7_EENS5_INS0_4pairIKS7_S7_EEEEEE
rOd:__ZNK10__cxxabiv123__fundamental_type_info9can_catchEPKNS_16__shim_type_infoERPv
yga:__ZN17ogl2ShaderTexture10updateDataEN13ShaderTexture6FormatENS0_7PackingEiiPKvNS0_4WrapENS0_9FilteringE
W:enlargeMemory
TJc:_isupper
jIc:__ZN12_GLOBAL__N_1L20register_memory_viewIdEEvPKc
KTd:_memcpy
YE:_sigfillset
wh:___cxa_begin_catch
v0c:_marksub
hdc:_INT123_synth_1to1_8bit_wrap_m2s
cBb:_png_create_read_struct_2
KGa:__ZN16b2ParticleSystem17SolveExtraDampingEv
cad:__ZSt18make_exception_ptrINSt3__212future_errorEESt13exception_ptrT_
Xad:__ZNSt3__211char_traitsIwE11to_int_typeEw
Rv:_execl
Gk:__embind_register_std_string
Q9:__ZNK6Sprite8containsEPS_
pVd:mftCall_viiiiiii
Fmc:_af_latin_metrics_init_blues
o8a:__ZNSt3__26__treeINS_12__value_typeINS_12basic_stringIcNS_11char_traitsIcEENS_9allocatorIcEEEEN6Sprite11ShaderParamEEENS_19__map_value_compareIS7_SA_NS_4lessIS7_EELb1EEENS5_ISA_EEE16__insert_node_atEPNS_15__tree_end_nodeIPNS_16__tree_node_baseIPvEEEERSL_SL_
hSc:_atanhl
Obd:__ZNKSt3__29basic_iosIcNS_11char_traitsIcEEE3eofEv
qha:__ZN6Path2DD0Ev
Gzb:_png_do_gamma
gSc:_atanhf
f9a:__ZN12MatrixBinder6rotateEP9lua_State
pfc:_mpg123_open_handle
P1b:__ZL13db_setupvalueP9lua_State
dad:__ZNSt3__212future_errorC2ERKS0_
xBa:__ZN13b2DynamicTree7BalanceEi
qA:_glfwGetGLVersion
exc:_compare_uni_maps
Qqd:__ZNKSt3__25ctypeIwE5do_isEtw
f7:__ZNSt3__25dequeINS_4pairIP5TimeriEENS_9allocatorIS4_EEE9pop_frontEv
pOd:__ZN10__cxxabiv116__shim_type_infoD0Ev
Efc:_mpg123_framebyframe_decode
exd:__ZNSt3__214codecvt_bynameIDsc11__mbstate_tEC2EPKcj
Aqd:__ZNKSt3__28numpunctIcE16do_decimal_pointEv
im:_alGetBufferf
FU:__ZTv0_n12_NSt3__218basic_stringstreamIcNS_11char_traitsIcEENS_9allocatorIcEEED1Ev
tAa:__ZN16b2BlockAllocatorD2Ev
km:_alGetBufferi
TCc:_ft_gzip_file_skip_output
TB:_gnu_dev_minor
nxb:_png_gamma_16bit_correct
h6a:__ZN11Application19setClearColorBufferEb
rR:__ZNK5GMesh8getIndexEiPt
uAb:_png_handle_tIME
aVb:_luaH_getn
wlb:_gevent_CreateEventStruct2
xlb:_gevent_CreateEventStruct3
nD:_posix_spawn_file_actions_adddup2
BCc:_ft_realloc
c5:__ZNSt3__26vectorIfNS_9allocatorIfEEE21__push_back_slow_pathIfEEvOT_
hV:__ZNSt3__214__split_bufferIhRNS_9allocatorIhEEE18__construct_at_endEjRKh
g1b:__ZL12luaB_getfenvP9lua_State
hMd:__ZNSt3__212system_errorD2Ev
Vtc:_cf2_doBlend
VPd:__ZNSt3__2plIcNS_11char_traitsIcEEN10__cxxabiv112_GLOBAL__N_112malloc_allocIcEEEENS_12basic_stringIT_T0_T1_EEPKS8_RKSB_
X:getTotalMemory
VKa:__ZN15b2TypedFreeListI16b2ParticleHandleE4FreeEPS0_
Lzc:_ft_angle_mean
Tjb:__ZN9g_private14TextureManager19RestoreTempTexturesEv
my:_glGetProgramInfoLog
yfa:__ZN17ogl2ShaderProgram13getGenericVBOEi
d0c:_tre_stack_push_int
fgd:__ZNSt3__213basic_ostreamIcNS_11char_traitsIcEEE3putEc
txa:__Z5b2MulRK7b2Mat22RK6b2Vec2
m8a:__ZNSt3__26__treeINS_12__value_typeINS_12basic_stringIcNS_11char_traitsIcEENS_9allocatorIcEEEEN6Sprite11ShaderParamEEENS_19__map_value_compareIS7_SA_NS_4lessIS7_EELb1EEENS5_ISA_EEE12__find_equalIS7_EERPNS_16__tree_node_baseIPvEERPNS_15__tree_end_nodeISL_EERKT_
dFb:_read_markers
l0:__ZNK4SlotI9MovieClip15EnterFrameEventE6objectEv
JFd:__ZNSt3__212basic_stringIcNS_11char_traitsIcEENS_9allocatorIcEEE13__move_assignERS5_NS_17integral_constantIbLb0EEE
qsc:_tt_check_trickyness
x9b:__ZN6snappyL18InternalUncompressINS_28SnappyDecompressionValidatorEEEbPNS_6SourceEPT_j
EUa:__ZN11AudioBinder22SoundChannel_getVolumeEP9lua_State
n4:__ZL5isnanf
Znc:_tt_get_interface
YKd:__ZNSt3__212_GLOBAL__N_19as_stringINS_12basic_stringIwNS_11char_traitsIwEENS_9allocatorIwEEEEPFiPwjPKwzExEET_T0_SD_PKNSD_10value_typeET1_
okd:__ZNSt3__2L10init_am_pmEv
jTd:runPostSets60
FQd:__ZN10__cxxabiv112_GLOBAL__N_111string_pairC2ILj10EEERAT__Kc
GC:_llvm_mono_load_i8_p0i8
zPa:__ZN16b2ParticleSystem10ApplyForceEiiRK6b2Vec2
gja:_number
VLd:__ZNSt3__224__generic_error_categoryD0Ev
oV:__ZNK3Dib5to565Ev
lTd:runPostSets62
EJd:__ZNSt3__25stoulERKNS_12basic_stringIwNS_11char_traitsIwEENS_9allocatorIwEEEEPji
Hu:_emscripten_set_mouseenter_callback
oTd:runPostSets65
Oma:_ginputp_mouseMove
NGa:__ZN16b2ParticleSystem13LimitVelocityERK10b2TimeStep
SMc:___pthread_self_447
ICb:_png_get_uint_16
Epd:__ZNSt3__2L13utf8_to_utf16EPKhS1_RS1_PtS3_RS3_mNS_12codecvt_modeE
mab:__ZNK4SlotI13TimerListener10TimerEventE6objectEv
ofa:__ZN17ogl2ShaderProgramD0Ev
I4a:__ZN9b2WorldED22SetDestructionListenerEP21b2DestructionListener
UCc:_ft_gzip_file_fill_output
lcc:_INT123_parse_new_id3
lna:__ZNSt3__26__treeINS_12__value_typeIj7PointerEENS_19__map_value_compareIjS3_NS_4lessIjEELb1EEENS_9allocatorIS3_EEE13__lower_boundIjEENS_15__tree_iteratorIS3_PNS_11__tree_nodeIS3_PvEEiEERKT_SG_PNS_15__tree_end_nodeIPNS_16__tree_node_baseISE_EEEE
ULd:__ZNSt3__214error_categoryD2Ev
HJb:_jpeg_fdct_5x5
wca:__ZNK6Sprite16getRedMultiplierEv
xV:___cxx_global_var_init_113
k7:__ZN14TimerContainer18getAdditionalDelayEPK5Timer
Bt:_emscripten_gluPerspective
Tea:__ZN16ogl2ShaderBufferD2Ev
uI:establishStackSpace
kra:__Z21g_checkStringPropertybPKc
hob:_gaudio_ChannelSetPaused
xWc:___pthread_self_444
Tga:__ZN16ogl2ShaderEngine10clearColorEffff
jLd:__ZNSt3__212strstreambufD2Ev
r$a:__ZN18b2ParticleGroupDefC2Ev
Pgb:__ZN9g_private12TimerManager8pauseAllEv
REc:_virt_voicepos
tm:_alGetIntegerv
sfc:_INT123_open_feed
pRa:__ZL16lzstream_cleanupP9lua_StateP9lz_stream
Ly:_glIsProgram
Wgd:__ZNSt3__214basic_iostreamIcNS_11char_traitsIcEEE4swapERS3_
AK:__ZNK5Event2idEv
So:_emscripten_SDL_SetEventHandler
Au:_emscripten_set_keypress_callback
kFa:__ZN16b2PrismaticJointC2EPK19b2PrismaticJointDef
IYa:__ZN9AutoUnrefD2Ev
tKa:__ZNK12_GLOBAL__N_118FixtureParticleSet4FindERKNS_15LightweightPairIP9b2FixtureiEE
gpb:_gvfs_init
Lkb:__ZNSt3__24moveIPN6gevent12EventManager17EventQueueElementES3_S4_RS3_PS4_iLi0EEENS_16__deque_iteratorIT0_T1_T2_T3_T4_XT5_EEET_SE_SD_PNS_9enable_ifIXsr27__is_random_access_iteratorISE_EE5valueEvE4typeE
Xdb:_block_split
mDd:__ZNKSt3__212basic_stringIcNS_11char_traitsIcEENS_9allocatorIcEEE13__get_pointerEv
w:tempInt
Fpc:_Ins_SFVFS
Aub:_fixedtables_6
MR:__ZN21StageOrientationEvent5applyEP12EventVisitor
DAa:__ZN6b2Stat6RecordEf
OBd:__ZNSt3__219__shared_mutex_base4lockEv
pTc:_pzero
mgc:_mpg123_set_string
zXc:_nftw
pia:__ZL11kh_del_pathP9kh_path_tj
frb:___sclose
NTa:__ZN14ViewportBinder13setProjectionEP9lua_State
Hi:___syscall193
Gi:___syscall192
Fi:___syscall191
uaa:__ZN6Sprite13removeChildAtEiP7GStatus
Li:___syscall197
Ki:___syscall196
Ji:___syscall195
vca:__ZNK6Sprite4refZEv
xRb:_CacheVertex
Ni:___syscall199
Mi:___syscall198
Xrd:__ZNKSt3__215__codecvt_utf16IwLb1EE9do_lengthER11__mbstate_tPKcS5_j
SGb:_decode_mcu_sub
py:_glGetQueryObjectivEXT
Vgc:_ft_outline_glyph_bbox
iGb:_jinit_1pass_quantizer
Rt:_emscripten_lock_orientation
oO:__ZN13TextFieldBase13setDimensionsEff
Shd:__ZNKSt3__27collateIcE12do_transformEPKcS3_
W$:__ZN15EventDispatcher19removeEventListenerI15EnterFrameEvent9MovieClipS1_EEvRK9EventTypeIT_EPT0_MS8_FvPT1_E
EMc:_getint
fsa:__ZN10emscripten8internal20writeGenericWireTypeIiEEvRPNS0_15GenericWireTypeET_
JWb:_lua_typename
jNa:__ZNK12b2MotorJoint19GetCorrectionFactorEv
vv:_emscripten_vr_request_present
QJc:_aligned_alloc
ZHc:__ZN10emscripten8internal6TypeIDINSt3__212basic_stringIwNS2_11char_traitsIwEENS2_9allocatorIwEEEEE3getEv
D1c:_fgetln
szd:__ZNSt3__26locale5__imp12install_fromINS_7codecvtIwc11__mbstate_tEEEEvRKS1_
VVd:_pthread_mutex_trylock__wrapper
Cec:_feed_read
d3c:_swprintf
HMd:__ZNSt3__218__hidden_allocatorIPNS_17__assoc_sub_stateEE10deallocateEPS2_j
EV:__ZNSt3__213__vector_baseIN11Application10ImageScaleENS_9allocatorIS2_EEED2Ev
P:Math_ceil
Pnd:__ZNKSt3__217moneypunct_bynameIwLb1EE16do_decimal_pointEv
KRb:_InitPriorityQ
DZa:__ZN17ApplicationBinder6getFpsEP9lua_State
_Za:__ZNK14LuaApplication17getHardwareHeightEv
iDc:_unroll_loop
dqd:__ZNSt3__212ctype_bynameIcED2Ev
hp:_emscripten_async_wget_data
$4a:__ZN20EventContactListener13dispatchEventERK9EventTypeI5EventEP9b2ContactPK10b2ManifoldPK16b2ContactImpulse
E9c:__ZNSt3__223__future_error_categoryD0Ev
Qwc:_cff_ps_get_font_info
sba:__ZN6Sprite12setBlendFuncEN12ShaderEngine11BlendFactorES1_
N6:__ZNSt3__26__treeINS_12__value_typeIdNS_6vectorIP5TimerNS_9allocatorIS4_EEEEEENS_19__map_value_compareIdS8_NS_4lessIdEELb1EEENS5_IS8_EEE12__find_equalIdEERPNS_16__tree_node_baseIPvEERPNS_15__tree_end_nodeISJ_EERKT_
O7b:__ZN8pystring10splitlinesERKNSt3__212basic_stringIcNS0_11char_traitsIcEENS0_9allocatorIcEEEERNS0_6vectorIS6_NS4_IS6_EEEEb
nOa:__ZNSt3__213__rotate_leftIPPvEET_S3_S3_
CJ:__ZNSt3__26vectorIN9Particles5ColorENS_9allocatorIS2_EEE18__construct_at_endEj
D9c:__ZSt17rethrow_exceptionSt13exception_ptr
SGc:_xmp_set_position
Vza:__ZNK19b2IntrusiveListNode7IsEmptyEv
NMd:__ZNSt3__26vectorINS_4pairIPNS_18condition_variableEPNS_5mutexEEENS_18__hidden_allocatorIS6_EEE26__swap_out_circular_bufferERNS_14__split_bufferIS6_RS8_EE
O6c:__ZNSt3__26__sortIRNS_6__lessIaaEEPaEEvT0_S5_T_
zbb:__ZN16EventTypeVisitor5visitEP10ErrorEvent
I0a:__ZN12Box2DBinder227b2WeldJoint_getDampingRatioEP9lua_State
Kg:_TTF_RenderText_Shaded
Rh:___gxx_personality_v0
dfc:_halfspeed_prepare
v0b:_luaL_gsub
dra:__Z13setWindowSizeii
_Yb:__ZL13discharge2regP9FuncStateP7expdesci
_Qd:__ZN10__cxxabiv112_GLOBAL__N_121parse_integer_literalINS0_2DbEEEPKcS4_S4_RKNT_6StringERS5_
qva:__ZN24b2TypedIntrusiveListNodeI14b2TrackedBlockE12InsertBeforeEPS0_
elc:_inflate_codes_free
K7a:__ZN12SpriteBinder7getSkewEP9lua_State
ECd:__ZNSt3__212basic_stringIcNS_11char_traitsIcEENS_9allocatorIcEEEC2EPKcRKS4_
Fc:invoke_viiiiiiiiiiiii
X1c:___fputwc_unlocked
zB:_glutInitWindowSize
jHa:__ZNK12b2BroadPhase11GetUserDataEi
ocd:__ZNKSt3__29basic_iosIwNS_11char_traitsIwEEEcvbEv
RNb:__ZNSt3__25dequeIP12QueueElementNS_9allocatorIS2_EEE8pop_backEv
Uyd:__ZNSt3__26locale5__imp7installINS_17moneypunct_bynameIcLb0EEEEEvPT_
iY:__ZN5Pixel16setTextureMatrixEPK7Matrix4
bGb:_output_pass_setup
$pd:__ZNKSt3__25ctypeIcE9do_narrowEcc
FL:__ZNSt3__211char_traitsIcE4copyEPcPKcj
mod:__ZNSt3__212basic_stringIwNS_11char_traitsIwEENS_9allocatorIwEEE23__append_forward_unsafeIPwEERS5_T_S9_
fx:_glCopyTexImage2D
jCd:__ZNSt13runtime_errorC2ERKNSt3__212basic_stringIcNS0_11char_traitsIcEENS0_9allocatorIcEEEE
ngb:__ZNSt3__26__treeINS_12__value_typeIdNS_6vectorIiNS_9allocatorIiEEEEEENS_19__map_value_compareIdS6_NS_4lessIdEELb1EEENS3_IS6_EEED2Ev
vW:__ZN11Application14broadcastEventEP5Event
Vdb:_block_mark_as_used
N_a:__ZN12Box2DBinder220getPrismaticJointDefEP9lua_State
y5a:__ZN15TextFieldBinder12setTextColorEP9lua_State
aSc:_log1pf
Svb:_png_free
BXc:_lstat
mQa:__ZN14LuaApplicationD0Ev
bIb:_build_rgb_y_table
Qbd:__ZNKSt3__29basic_iosIcNS_11char_traitsIcEEE10exceptionsEv
ehb:_gimage_parseJpg
thc:_Horizontal_Sweep_Span
uPd:__ZN10__cxxabiv112_GLOBAL__N_111string_pairC2ERKS1_
a6a:__ZN11StageBinder14getOrientationEP9lua_State
UQb:_RenderTriangle
cSb:_IsWindingInside
Xnc:_tt_driver_init
aBd:__ZnajRKSt9nothrow_t
Rxd:__ZNSt3__212_GLOBAL__N_14makeINS_10moneypunctIcLb1EEEjEERT_T0_
N3a:__ZN12Box2DBinder218b2World_CreateBodyEP9lua_State
HFc:_is_first_frame
rmb:__ZN14GGSoundManager9SoundPlayEmb
bn:_alSourceUnqueueBuffers
aRb:___gl_noCombineData
mjd:__ZNKSt3__27num_getIwNS_19istreambuf_iteratorIwNS_11char_traitsIwEEEEE23__do_get_floating_pointIfEES4_S4_S4_RNS_8ios_baseERjRT_
ilb:__ZN19gevent_CallbackList11addCallbackEPFviPvS0_ES0_
Fz:_glUniformMatrix2fv
ojc:_tt_face_goto_table
UXb:__ZL10removevarsP8LexStatei
t2c:_arg_n_701
Fnb:__ZN14GGAudioManager26BackgroundMusicIsAvailableEv
Dhb:_gimage_premultiplyAlpha
aUb:_luaM_toobig
iDb:_png_default_write_data
XK:__ZNK9EventTypeI10MouseEventE2idEv
VUc:_remainderl
Nna:__ZN12_GLOBAL__N_121GGStreamOpenALManagerD0Ev
xqc:_Ins_NPUSHW
gHc:_prepare_scan
atb:__Z21getTemporaryDirectoryv
wqc:_Ins_NPUSHB
iM:__ZN7GStatusD2Ev
l$a:__ZN12Box2DBinder227b2ParticleSystem_setTextureEP9lua_State
Nab:__ZN4SlotI12CppLuaBridge8LuaEventEC2EPS0_MS0_FvPS1_E
qCc:_FT_Stream_GetUShortLE
Iyd:__ZNSt3__214collate_bynameIwEC2ERKNS_12basic_stringIcNS_11char_traitsIcEENS_9allocatorIcEEEEj
SJa:__ZN12_GLOBAL__N_118FixtureParticleSet10InitializeEPK21b2ParticleBodyContactiPKj
GAd:__ZNSt3__25mutex4lockEv
Yh:___restore_sigs
TI:__ZN12VertexBufferIhED2Ev
$A:_glfwSetWindowSizeCallback
KW:__ZN11Application10ImageScaleC2EPKcf
Teb:__ZN6GProxyD0Ev
Z3:__ZNSt3__213__vector_baseINS_6vectorI6Point2IfENS_9allocatorIS3_EEEENS4_IS6_EEED2Ev
xfd:__ZNSt3__213basic_istreamIwNS_11char_traitsIwEEE7getlineEPwi
V3a:__ZN12Box2DBinder218b2World_getGravityEP9lua_State
DKb:_emit_dht
zS:__ZNK15MaxRectsBinPack38FindPositionForNewNodeBestShortSideFitEiiRiS0_
oAb:_png_handle_bKGD
uKc:_clog
oGd:__ZNSt3__212basic_stringIwNS_11char_traitsIwEENS_9allocatorIwEEED2Ev
Q_:__ZL11easeOutQuadd
nta:__ZL14gui_eventAlertmiPKc
BId:__ZNKSt3__212basic_stringIwNS_11char_traitsIwEENS_9allocatorIwEEE5rfindEwj
OPb:__ZNK11CPVRTString13find_first_ofEPKcj
o_:__ZL14easeOutElasticd
Kqa:__ZN21GGSampleOpenALManager5SoundD2Ev
A3a:__ZNK6b2Body17GetAngularDampingEv
gkd:__ZNKSt3__28time_getIcNS_19istreambuf_iteratorIcNS_11char_traitsIcEEEEE6do_getES4_S4_RNS_8ios_baseERjP2tmcc
ada:__ZN7Matrix46invertEv
Lwa:__Z6b2MulTRK5b2RotS1_
aua:_main_registerPlugin
rDc:_subinstrument_alloc
mQ:__ZNSt3__25dequeI5ColorNS_9allocatorIS1_EEE9push_backERKS1_
bSb:_AddRegionBelow
JQ:__ZN5GMesh4is3dEv
m8b:__ZN8pystring2os4path11basename_ntERKNSt3__212basic_stringIcNS2_11char_traitsIcEENS2_9allocatorIcEEEE
Oe:_SDL_GetVideoSurface
tYb:__ZL7forstatP8LexStatei
mn:_alcCaptureStart
U_c:_sockatmark
kb:ftCall_viddd
T:Math_clz32
mFa:__ZN15b2DistanceJointC2EPK18b2DistanceJointDef
xgb:__ZNSt3__23mapIdNS_6vectorIiNS_9allocatorIiEEEENS_4lessIdEENS2_INS_4pairIKdS4_EEEEEixEOd
xJc:_independent_comalloc
fK:__ZNK9Particles8getDecayEiPfS0_S0_S0_
Qr:_emscripten_glGetQueryObjectivEXT
rhd:__ZNSt3__211__stdoutbufIwE6xsputnEPKwi
Igc:_ft_bitmap_glyph_copy
cOd:__ZNSt16invalid_argumentD0Ev
JMa:__ZN16b2PrismaticJoint16SetMaxMotorForceEf
l8a:__ZNSt3__26__treeINS_12__value_typeINS_12basic_stringIcNS_11char_traitsIcEENS_9allocatorIcEEEEN6Sprite11ShaderParamEEENS_19__map_value_compareIS7_SA_NS_4lessIS7_EELb1EEENS5_ISA_EEE25__emplace_unique_key_argsIS7_JRKNS_21piecewise_construct_tENS_5tupleIJRKS7_EEENSL_IJEEEEEENS_4pairINS_15__tree_iteratorISA_PNS_11__tree_nodeISA_PvEEiEEbEERKT_DpOT0_
zPd:__ZNSt3__26vectorINS0_IN10__cxxabiv112_GLOBAL__N_111string_pairENS2_11short_allocIS3_Lj4096EEEEENS4_IS6_Lj4096EEEE21__push_back_slow_pathIS6_EEvOT_
bkd:__ZNKSt3__28time_getIcNS_19istreambuf_iteratorIcNS_11char_traitsIcEEEEE11do_get_timeES4_S4_RNS_8ios_baseERjP2tm
uhd:__ZNSt3__211__stdoutbufIcED2Ev
iVb:_luaV_tonumber
X3c:_do_read_774
yub:_z_inflatePrime
jD:_nanosleep
z_a:__ZN12Box2DBinder220b2CircleShape_createEP9lua_State
fic:_tt_cmap2_char_next
E6b:__ZL8addfieldP9lua_StateP11luaL_Bufferi
zJ:__ZNSt3__26vectorItNS_9allocatorItEEE26__swap_out_circular_bufferERNS_14__split_bufferItRS2_EE
gK:__ZN9Particles6setTagEiPKc
l1b:__ZL10luaB_pcallP9lua_State
mU:__ZNSt3__26__treeINS_12__value_typeIiN4Font12TextureGlyphEEENS_19__map_value_compareIiS4_NS_4lessIiEELb1EEENS_9allocatorIS4_EEE25__emplace_unique_key_argsIiJRKNS_21piecewise_construct_tENS_5tupleIJRKiEEENSG_IJEEEEEENS_4pairINS_15__tree_iteratorIS4_PNS_11__tree_nodeIS4_PvEEiEEbEERKT_DpOT0_
qPd:__ZN10__cxxabiv112_GLOBAL__N_119parse_cv_qualifiersEPKcS2_Rj
Scb:__ZN14LuaApplication13setResolutionEii
UL:__ZNSt3__26__treeINS_12__value_typeIi14GStatusElementEENS_19__map_value_compareIiS3_NS_4lessIiEELb1EEENS_9allocatorIS3_EEE12__find_equalIiEERPNS_16__tree_node_baseIPvEERPNS_15__tree_end_nodeISF_EERKT_
brb:__ZN6ObjectC2Ev
edd:__ZNSt3__215basic_streambufIcNS_11char_traitsIcEEEC2Ev
DWc:_getpriority
oWd:_emscripten_set_keydown_callback__wrapper
HFa:__ZN8b2Island5ClearEv
UJa:__ZNK16b2ParticleSystem23GetFixtureContactFilterEv
GId:__ZNKSt3__212basic_stringIwNS_11char_traitsIwEENS_9allocatorIwEEE13find_first_ofEPKwj
I2c:_wms_write
Kca:__ZNK9Transform9rotationYEv
Smd:__ZNKSt3__210moneypunctIwLb0EE16do_positive_signEv
Fxb:_png_write_destroy
XI:__ZNSt3__213__vector_baseIhNS_9allocatorIhEEED2Ev
Ccc:_INT123_init_layer12
ZNa:__ZNSt3__213__rotate_leftIPjEET_S2_S2_
_jb:__ZNSt3__26__treeIPN9g_private14TextureManager18TempTextureElementENS_4lessIS4_EENS_9allocatorIS4_EEE16__construct_nodeIJRKS4_EEENS_10unique_ptrINS_11__tree_nodeIS4_PvEENS_22__tree_node_destructorINS7_ISG_EEEEEEDpOT_
dDa:__ZN10b2ManifoldC2Ev
pCb:_make_gray_file_colormap
B1b:_luaopen_debug
hVa:__ZN12_GLOBAL__N_114GGSoundChannel10callback_sEiPvS1_
z4a:__ZNSt3__26vectorIP9b2FixtureNS_9allocatorIS2_EEE26__swap_out_circular_bufferERNS_14__split_bufferIS2_RS4_EE
zcd:__ZNSt3__29basic_iosIwNS_11char_traitsIwEEEC2EPNS_15basic_streambufIwS2_EE
GBb:_png_set_bgr
woa:__ZNSt3__214__split_bufferIPNS_4pairIjjEERNS_9allocatorIS3_EEED2Ev
Ipa:__ZN21GGSampleOpenALManager14SoundGetLengthEm
HRa:__ZNSt3__26__treeINS_12__value_typeINS_12basic_stringIcNS_11char_traitsIcEENS_9allocatorIcEEEEdEENS_19__map_value_compareIS7_S8_NS_4lessIS7_EELb1EEENS5_IS8_EEE12__find_equalIS7_EERPNS_16__tree_node_baseIPvEERPNS_15__tree_end_nodeISJ_EERKT_
Hid:__ZNKSt3__27num_getIcNS_19istreambuf_iteratorIcNS_11char_traitsIcEEEEE17__do_get_unsignedIyEES4_S4_S4_RNS_8ios_baseERjRT_
PTd:_pthread_mutex_trylock
Lua:__ZNK11b2EdgeShape11ComputeAABBEP6b2AABBRK11b2Transformi
je:_SDL_EnableUNICODE
Jva:__ZNK6b2Vec213LengthSquaredEv
Ytb:_z_compress
VYa:__ZN11ShapeBinder9beginPathEP9lua_State
kHd:__ZNSt3__212basic_stringIwNS_11char_traitsIwEENS_9allocatorIwEEEixEj
fpd:__ZNKSt3__27codecvtIcc11__mbstate_tE11do_encodingEv
$Jc:___uflow
Vyd:__ZNSt3__26locale5__imp7installINS_17moneypunct_bynameIcLb1EEEEEvPT_
tIb:_finish_pass1
DMd:__ZNSt3__215__thread_structD2Ev
_Lb:_int_downsample
iLd:__ZNSt3__212_GLOBAL__N_19as_stringINS_12basic_stringIwNS_11char_traitsIwEENS_9allocatorIwEEEEPFiPwjPKwzEeEET_T0_SD_PKNSD_10value_typeET1_
Vsb:_gpath_getPathDrive
$dd:__ZNSt3__213basic_istreamIcNS_11char_traitsIcEEE6sentryC2ERS3_b
Lod:__ZNKSt3__28messagesIwE8do_closeEi
old:__ZNKSt3__28time_getIwNS_19istreambuf_iteratorIwNS_11char_traitsIwEEEEE11__get_year4ERiRS4_S4_RjRKNS_5ctypeIwEE
qeb:___cxx_global_var_init_1_105
i3:__ZNSt3__26__treeINS_12__value_typeIiN8TTBMFont12TextureGlyphEEENS_19__map_value_compareIiS4_NS_4lessIiEELb1EEENS_9allocatorIS4_EEE13__lower_boundIiEENS_15__tree_iteratorIS4_PNS_11__tree_nodeIS4_PvEEiEERKT_SH_PNS_15__tree_end_nodeIPNS_16__tree_node_baseISF_EEEE
iBd:__ZnwjSt11align_val_tRKSt9nothrow_t
K6c:__ZNSt3__27__sort4IRNS_6__lessIwwEEPwEEjT0_S5_S5_S5_T_
ctc:_cff_slot_done
$9b:_mpg123_feature
mNc:_BF_set_key
jMa:__ZN6b2Body12SetTransformERK6b2Vec2f
ij:___syscall272
pp:_emscripten_autodebug_i16
oGc:_fix_period
$Pd:__ZN10__cxxabiv112_GLOBAL__N_118parse_alignof_exprINS0_2DbEEEPKcS4_S4_RT_
nRd:__ZNKSt3__26vectorINS0_INS0_IN10__cxxabiv112_GLOBAL__N_111string_pairENS2_11short_allocIS3_Lj4096EEEEENS4_IS6_Lj4096EEEEENS4_IS8_Lj4096EEEE8max_sizeEv
tMd:__ZNSt3__212system_errorC2EiRKNS_14error_categoryE
q8:__ZN11LayoutEventC2ERK9EventTypeIS_Eff
_yc:_FT_Library_SetLcdFilter
vQc:___duplocale
Wbc:_INT123_frame_set_seek
gJb:_term_mem_destination
Peb:__ZNSt3__26__treeINS_12__value_typeIPvP11GReferencedEENS_19__map_value_compareIS2_S5_NS_4lessIS2_EELb1EEENS_9allocatorIS5_EEE16__insert_node_atEPNS_15__tree_end_nodeIPNS_16__tree_node_baseIS2_EEEERSG_SG_
God:__ZNKSt3__28messagesIcE8do_closeEi
Ryc:_FT_GlyphSlot_Own_Bitmap
Bhb:__ZNSt3__26vectorIPhNS_9allocatorIS1_EEE18__construct_at_endEj
Ala:__ZNSt3__213__vector_baseIP17ginput_MouseEventNS_9allocatorIS2_EEED2Ev
JLb:_emit_restart
eec:_mpg123_par
Q8a:__ZN12MatrixBinder5getTxEP9lua_State
hYb:__ZL4saveP8LexStatei
g5:__ZN12GraphicsBaseC2EOS_
tyd:__ZNSt3__26vectorIPNS_6locale5facetENS_15__sso_allocatorIS3_Lj28EEEE18__construct_at_endEj
Q5:__ZNSt3__26__treeIP15EventDispatcherNS_4lessIS2_EENS_9allocatorIS2_EEE4findIS2_EENS_15__tree_iteratorIS2_PNS_11__tree_nodeIS2_PvEEiEERKT_
Frc:_Ins_MDRP
RM:__ZN10BitmapData5cloneEv
bib:__ZNSt3__26__treeINS_12__value_typeINS_6vectorIcNS_9allocatorIcEEEEPN9g_private14TextureElementEEENS_19__map_value_compareIS5_S9_NS_4lessIS5_EELb1EEENS3_IS9_EEED2Ev
HU:__ZNSt3__26__treeINS_12__value_typeIiN4Font12TextureGlyphEEENS_19__map_value_compareIiS4_NS_4lessIiEELb1EEENS_9allocatorIS4_EEEC2ERKS8_
rjd:__ZNKSt3__27num_getIwNS_19istreambuf_iteratorIwNS_11char_traitsIwEEEEE17__do_get_unsignedItEES4_S4_S4_RNS_8ios_baseERjRT_
SFd:__ZNKSt3__212basic_stringIwNS_11char_traitsIwEENS_9allocatorIwEEE9__is_longEv
xka:__ZN18ApplicationManager4stopEv
Wqa:_GGSampleOpenALManagerDelete
DL:__ZN5Stage7keyDownEii
oPc:_cycle
l1c:_asprintf
Eka:__ZNSt3__26vectorINS_12basic_stringIcNS_11char_traitsIcEENS_9allocatorIcEEEENS4_IS6_EEE21__push_back_slow_pathIRKS6_EEvOT_
lwb:_png_get_copyright
$B:_llvm_bswap_i64
yLc:_cpowf
xcb:__ZN8MemCacheC2Ev
vrd:__ZNSt3__2L19utf8_to_ucs2_lengthEPKhS1_jmNS_12codecvt_modeE
jkd:__ZNKSt3__220__time_get_c_storageIcE7__am_pmEv
eub:_gz_init
Ofd:__ZNSt3__213basic_ostreamIcNS_11char_traitsIcEEE4swapERS3_
hOa:__ZNSt3__214__rotate_rightIPP15b2ParticleGroupEET_S4_S4_
R8b:__ZN6snappy15UnalignedCopy64EPKvPv
Co:_eglInitialize
oHb:_jpeg_idct_8x16
SXb:__ZL5checkP8LexStatei
yHa:__ZNK15b2ParticleGroup17GetLinearVelocityEv
xF:_times
D1a:__ZNK15b2DistanceJoint9GetLengthEv
SVd:_pthread_cond_signal__wrapper
Pda:__ZN12ShaderEngine13setProjectionE7Matrix4
HId:__ZNKSt3__212basic_stringIwNS_11char_traitsIwEENS_9allocatorIwEEE13find_first_ofEwj
R_c:_setservent
zQ:__Z10glSetColorffff
s$:__ZN9MovieClipC2ENS_4TypeEP11Applicationb
MCa:__ZN9b2Contact6CreateEP9b2FixtureiS1_iP16b2BlockAllocator
eia:__ZNSt3__26vectorI8vector4fNS_9allocatorIS1_EEE18__construct_at_endIPS1_EENS_9enable_ifIXsr21__is_forward_iteratorIT_EE5valueEvE4typeES8_S8_j
ejb:__ZNSt3__26__treeIPN9g_private14TextureElementENS_4lessIS3_EENS_9allocatorIS3_EEE16__construct_nodeIJRKS3_EEENS_10unique_ptrINS_11__tree_nodeIS3_PvEENS_22__tree_node_destructorINS6_ISF_EEEEEEDpOT_
FJc:_malloc_stats
gka:__ZN14NetworkManager7saveMD5Ev
U4c:_wcsncmp
vic:_tt_cmap6_get_info
kib:__ZNSt3__26__treeINS_12__value_typeImPN9g_private14TextureElementEEENS_19__map_value_compareImS5_NS_4lessImEELb1EEENS_9allocatorIS5_EEE5eraseENS_21__tree_const_iteratorIS5_PNS_11__tree_nodeIS5_PvEEiEE
hcc:_convert_utf16bom
Oib:_gtexture_delete
hpa:__ZNSt3__26__treeINS_12__value_typeImPN12_GLOBAL__N_121GGStreamOpenALManager7ChannelEEENS_19__map_value_compareImS6_NS_4lessImEELb1EEENS_9allocatorIS6_EEE14__erase_uniqueImEEjRKT_
vkd:__ZNKSt3__28time_getIcNS_19istreambuf_iteratorIcNS_11char_traitsIcEEEEE10__get_hourERiRS4_S4_RjRKNS_5ctypeIcEE
R8c:__ZNSt3__224__libcpp_debug_exception28__libcpp_debug_exception_impC2Ev
$cc:_mpg123_exit
c6a:__ZN11StageBinder19getClearColorBufferEP9lua_State
vBd:__ZNSt19bad_optional_accessD0Ev
tpd:__ZNSt3__27codecvtIwc11__mbstate_tED0Ev
kGb:_jinit_merged_upsampler
dsc:_Direct_Move
qMb:_jpeg_calc_jpeg_dimensions
vFa:__ZN16b2ParticleSystem21UserOverridableBufferIiEC2Ev
pSb:___gl_edgeEval
J4a:__ZN21b2DestructionListenerC2Ev
nc:invoke_viiiiddi
Tid:__ZNKSt3__27num_getIcNS_19istreambuf_iteratorIcNS_11char_traitsIcEEEEE15__do_get_signedIlEES4_S4_S4_RNS_8ios_baseERjRT_
C1c:_fgetc
Eda:__ZN13ShaderProgram17getSystemConstantENS_14SystemConstantE
Mxd:__ZNSt3__26locale5__imp7installINS_7num_putIcNS_19ostreambuf_iteratorIcNS_11char_traitsIcEEEEEEEEvPT_
Ebb:__ZN16EventTypeVisitor10visitOtherEP5EventPv
Tqa:__ZNSt3__26__treeINS_12__value_typeImPN21GGSampleOpenALManager7ChannelEEENS_19__map_value_compareImS5_NS_4lessImEELb1EEENS_9allocatorIS5_EEED2Ev
sra:__ZNSt3__26__treeINS_12__value_typeIm12GHttpContextEENS_19__map_value_compareImS3_NS_4lessImEELb1EEENS_9allocatorIS3_EEEC2ERKS7_
c0:__ZNSt3__26__treeINS_12__value_typeIiNS_6vectorIP8SlotBaseNS_9allocatorIS4_EEEEEENS_19__map_value_compareIiS8_NS_4lessIiEELb1EEENS5_IS8_EEE12__find_equalIiEERPNS_16__tree_node_baseIPvEERPNS_15__tree_end_nodeISJ_EERKT_
wnb:__ZN14GGAudioManager18ChannelGetStreamIdEm
R$a:__ZNK9b2Contact14GetRestitutionEv
Xza:__ZN7b2Timer5ResetEv
hma:_ginput_startGyroscope
Zqc:_Ins_ADD
gOa:__ZNSt3__213__rotate_leftIPP15b2ParticleGroupEET_S4_S4_
TVc:__strcolcmp
aMd:__ZNSt3__212_GLOBAL__N_113do_strerror_rEi
UBd:__ZNSt3__218shared_timed_mutexC2Ev
DNb:__ZN11NetworkBase7sendAckEj
BZ:__ZNSt3__26vectorIfNS_9allocatorIfEEE13__move_assignERS3_NS_17integral_constantIbLb1EEE
_dc:_INT123_synth_ntom_mono
ntc:_cff_get_glyph_data
uqd:__ZNKSt3__212ctype_bynameIwE8do_widenEPKcS3_Pw
sG:getShiftFromSize
qz:_glUniform1fv
$t:_emscripten_request_fullscreen
NZ:__ZNSt3__23mapIiNS_6vectorIPN9MovieClip5FrameENS_9allocatorIS4_EEEENS_4lessIiEENS5_INS_4pairIKiS7_EEEEED2Ev
yEd:__ZNSt3__212basic_stringIcNS_11char_traitsIcEENS_9allocatorIcEEE5eraseENS_11__wrap_iterIPKcEE
qgd:__ZNSt3__213basic_ostreamIwNS_11char_traitsIwEEEaSEOS3_
_q:_emscripten_glDisableVertexAttribArray
bnb:__ZNSt3__26__treeINS_12__value_typeINS_12basic_stringIcNS_11char_traitsIcEENS_9allocatorIcEEEE13GGAudioLoaderEENS_19__map_value_compareIS7_S9_NS_4lessIS7_EELb1EEENS5_IS9_EEE5eraseENS_21__tree_const_iteratorIS9_PNS_11__tree_nodeIS9_PvEEiEE
esd:__ZNKSt3__215__codecvt_utf16IDsLb0EE11do_encodingEv
Qid:__ZNSt3__227__num_get_unsigned_integralItEET_PKcS3_Rji
m4a:__ZN17MyRayCastCallbackD0Ev
kMd:__ZNSt3__212__do_messageD0Ev
yc:ftCall_viiiiiiii
UJc:_strtoull_l
_e:_SDL_InitSubSystem
N5a:__ZNSt3__26vectorIN8FontBase8FontSpecENS_9allocatorIS2_EEE26__swap_out_circular_bufferERNS_14__split_bufferIS2_RS4_EE
y3b:__ZL11Lutf8_lowerP9lua_State
slc:_gray_raster_new
T3a:__ZN12Box2DBinder219b2World_createJointEP9lua_State
mPa:__ZZN16b2ParticleSystem18JoinParticleGroupsEP15b2ParticleGroupS1_ENK24JoinParticleGroupsFilter17ShouldCreateTriadEiii
Ppa:__ZN21GGSampleOpenALManager15ChannelIsPausedEm
UJb:_jpeg_fdct_16x8
vtb:_bi_flush
BQd:__ZN10__cxxabiv112_GLOBAL__N_120parse_ctor_dtor_nameINS0_2DbEEEPKcS4_S4_RT_
zQc:_find_charmap
Zzc:_FT_CeilFix
UIb:_quantize_fs_dither
$Gb:_decode_mcu_AC_refine
Euc:_cf2_hint_isTop
nKa:__ZNK6b2Body14GetLocalCenterEv
au:_emscripten_request_fullscreen_strategy
VBb:_png_image_memory_read
oU:__ZNSt3__26__treeINS_12__value_typeIiN4Font12TextureGlyphEEENS_19__map_value_compareIiS4_NS_4lessIiEELb1EEENS_9allocatorIS4_EEE16__construct_nodeIJRKNS_21piecewise_construct_tENS_5tupleIJRKiEEENSG_IJEEEEEENS_10unique_ptrINS_11__tree_nodeIS4_PvEENS_22__tree_node_destructorINS9_ISO_EEEEEEDpOT_
a_a:__ZNK14LuaApplication16getLogicalScaleYEv
pgc:_mpg123_grow_string
p2a:__ZNKSt3__26vectorI6b2Vec2NS_9allocatorIS1_EEE8max_sizeEv
TY:__ZN6Screen4drawE7Matrix4
ok:__embind_finalize_value_array
tqa:__ZNSt3__26__treeINS_12__value_typeImPN21GGSampleOpenALManager7ChannelEEENS_19__map_value_compareImS5_NS_4lessImEELb1EEENS_9allocatorIS5_EEE4findImEENS_15__tree_iteratorIS5_PNS_11__tree_nodeIS5_PvEEiEERKT_
mf:_SDL_JoystickOpen
pzd:__ZNSt3__26locale5__imp12install_fromINS_7codecvtIcc11__mbstate_tEEEEvRKS1_
tHb:_jpeg_idct_10x5
ixb:_png_fixed
VM:___cxx_global_var_init_16
vjd:__ZNSt3__27num_putIcNS_19ostreambuf_iteratorIcNS_11char_traitsIcEEEEED2Ev
wmc:_af_warper_compute_line_best
k:ABORT
lb:invoke_vidddd
Mqc:_Ins_GT
s_a:__ZN12Box2DBinder2C2EP9lua_State
nyc:_ps_mask_table_test_intersect
zIa:__ZN12b2StackQueueIN16b2VoronoiDiagram20b2VoronoiDiagramTaskEE4PushERKS1_
Fp:_emscripten_exit_with_live_runtime
sVb:__ZL9callTMresP9lua_StateP10lua_TValuePKS1_S4_S4_
tAd:__ZNSt3__219__shared_weak_count16__release_sharedEv
x$b:_lua_getstack
Uwa:__ZN23b2EdgeAndPolygonContactD0Ev
nYb:__ZL9statementP8LexState
Lib:__ZNKSt3__26__treeINS_12__value_typeINS_6vectorIcNS_9allocatorIcEEEEPN9g_private14TextureElementEEENS_19__map_value_compareIS5_S9_NS_4lessIS5_EELb1EEENS3_IS9_EEE10__root_ptrEv
ard:__ZNSt3__27codecvtIcc11__mbstate_tED0Ev
Kp:_emscripten_get_callstack_js
OOb:__ZN11CPVRTStringaSEPKc
WMb:__ZN21CPVRTMemoryFileSystem7CAtExitD2Ev
zsd:__ZNKSt3__215__codecvt_utf16IDiLb0EE10do_unshiftER11__mbstate_tPcS4_RS4_
JA:_glfwOpenWindow
XQd:__ZNSt3__214__split_bufferIN10__cxxabiv112_GLOBAL__N_111string_pairERNS2_11short_allocIS3_Lj4096EEEED2Ev
Voc:_ft_trig_pseudo_polarize
S$b:__ZL11close_stateP9lua_State
Kxd:__ZNSt3__26locale5__imp7installINS_7num_getIwNS_19istreambuf_iteratorIwNS_11char_traitsIwEEEEEEEEvPT_
G$a:__ZN12Box2DBinder224b2Contact_getChildIndexAEP9lua_State
rWb:_luaO_chunkid
q4c:_mempcpy
DPd:__ZNKSt3__212basic_stringIcNS_11char_traitsIcEEN10__cxxabiv112_GLOBAL__N_112malloc_allocIcEEE7compareEjjPKcj
ECc:_FT_Add_Default_Modules
CAd:__ZNSt3__221undeclare_no_pointersEPcj
WIb:_jpeg_core_output_dimensions
Hrd:__ZNKSt3__215__codecvt_utf16IwLb0EE6do_outER11__mbstate_tPKwS5_RS5_PcS7_RS7_
U_b:_luaU_header
Ltb:_gen_bitlen
XXb:_luaX_newstring
Bfd:__ZNSt3__213basic_istreamIwNS_11char_traitsIwEEE4readEPwi
gba:__ZNSt3__214__split_bufferIP7Matrix4NS_9allocatorIS2_EEE9push_backEOS2_
FZ:__ZNK9MovieClip11extraBoundsEPfS0_S0_S0_
Q6:__ZNKSt3__26__treeINS_12__value_typeIdNS_6vectorIP5TimerNS_9allocatorIS4_EEEEEENS_19__map_value_compareIdS8_NS_4lessIdEELb1EEENS5_IS8_EEE10__root_ptrEv
bja:_prParseSvgPath
Dc:invoke_viiiiiiiiiii
Im:_alIsBuffer
m5b:__ZL9math_sqrtP9lua_State
fTa:__ZL18buildParticleTableP9lua_StateP9Particlesi
RN:__ZN6Point2IfEC2Eff
BHc:_xmp_start_smix
QHc:__ZN12_GLOBAL__N_1L16register_integerItEEvPKc
EYc:_mbsnrtowcs
wYc:_btowc
yfb:__ZNSt3__2plIcNS_11char_traitsIcEENS_9allocatorIcEEEENS_12basic_stringIT_T0_T1_EERKS9_SB_
bP:__ZNK3Dib5widthEv
Lwd:__ZNSt3__29money_putIwNS_19ostreambuf_iteratorIwNS_11char_traitsIwEEEEEC2Ej
X6:__ZNSt3__29remove_ifINS_11__wrap_iterIPP5TimerEENS_9binder2ndINS_8equal_toIS3_EEEEEET_SA_SA_T0_
Zfd:__ZNSt3__213basic_ostreamIcNS_11char_traitsIcEEElsEm
DQa:__ZNSt3__26__treeINS_12__value_typeIibEENS_19__map_value_compareIiS2_NS_4lessIiEELb1EEENS_9allocatorIS2_EEE25__emplace_unique_key_argsIiJRKNS_21piecewise_construct_tENS_5tupleIJRKiEEENSE_IJEEEEEENS_4pairINS_15__tree_iteratorIS2_PNS_11__tree_nodeIS2_PvEEiEEbEERKT_DpOT0_
AGc:_set_period_ft2
qM:__ZN8ViewportD0Ev
d$b:__ZL10DumpNumberdP9DumpState
eyc:_ps_mask_table_ensure
KWa:__ZN17AlertDialogBinder4showEP9lua_State
lba:__ZNK6Sprite5widthEv
vBc:_FT_Request_Size
UX:__ZN9TextField14createGraphicsEv
Myd:__ZNSt3__26locale5__imp7installINS_14codecvt_bynameIcc11__mbstate_tEEEEvPT_
Nqb:_g_registerEnterFrameCallback
axd:__ZNSt3__214codecvt_bynameIcc11__mbstate_tEC2ERKNS_12basic_stringIcNS_11char_traitsIcEENS_9allocatorIcEEEEj
r$c:_setstate
mqa:__ZN21GGSampleOpenALManager7ChannelD2Ev
iLb:_encode_mcu_AC_refine_163
Nzb:_png_do_unshift
rZa:__ZN17ApplicationBinder16getLogicalBoundsEP9lua_State
_Dc:_xlat_volfx
Otc:_cf2_arrstack_setCount
BWb:_lua_gettop
Dk:__embind_register_integer
XHa:__ZN16b2ParticleSystem19CompareTriadIndicesERKNS_5TriadES2_
$M:__ZN7TextureD2Ev
rXc:___fseeko
Qn:_boxColor
wUd:mftCall_iiiiid
vn:_alcGetIntegerv
J4c:_wcsncpy
LXc:_readlink
ROc:_alphasort
jX:__ZN11Application12removeTickerEP6Ticker
VS:__ZN8FontBase11ChunkLayoutD2Ev
BEb:_png_set_text_compression_level
Gjd:__ZNSt3__214__num_put_base18__identify_paddingEPcS1_RKNS_8ios_baseE
pGc:_copy_channel
Lmd:__ZNKSt3__210moneypunctIcLb1EE13do_neg_formatEv
o6b:__ZL12getboolfieldP9lua_StatePKc
hta:__ZNSt3__26__treeINS_12__value_typeIm8UiDialogEENS_19__map_value_compareImS3_NS_4lessImEELb1EEENS_9allocatorIS3_EEE16__construct_nodeIJRKNS_21piecewise_construct_tENS_5tupleIJRKmEEENSF_IJEEEEEENS_10unique_ptrINS_11__tree_nodeIS3_PvEENS_22__tree_node_destructorINS8_ISN_EEEEEEDpOT_
Yy:_glReadPixels
dod:__ZNSt3__214__ptr_in_rangeIcEEbPKT_S3_S3_
qwb:_png_reset_zstream
i7:__ZNSt3__26vectorIP5TimerNS_9allocatorIS2_EEE8allocateEj
I1c:___ftello_unlocked
GCb:_png_get_uint_32
jca:__ZN6Sprite3getEiP7GStatus
qV:__ZNK3Dib5to888Ev
mOd:__ZNSt10bad_typeidD0Ev
Eia:__ZL8cubic_toP12reduced_pathffffffff
pvc:_cff_parser_run
hQb:__ZN11CPVRTStringaSEc
Uuc:_cf2_glyphpath_hintPoint
W1:__ZN11TTTextFieldC2EP11ApplicationP6TTFontPKcS5_PN8FontBase20TextLayoutParametersE
XKd:__ZNKSt3__212_GLOBAL__N_114initial_stringINS_12basic_stringIwNS_11char_traitsIwEENS_9allocatorIwEEEExLb0EEclEv
jia:__ZL15kh_put_vector4fP13kh_vector4f_t8vector4fPi
WPd:__ZN10__cxxabiv112_GLOBAL__N_118parse_expr_primaryINS0_2DbEEEPKcS4_S4_RT_
y_c:_ns_get32
Vx:_glFrontFace
PMd:__ZNSt3__218__hidden_allocatorINS_4pairIPNS_18condition_variableEPNS_5mutexEEEE8allocateEj
HLd:__ZNSt3__212strstreambufC2Ei
Y6c:__ZNSt3__218__insertion_sort_3IRNS_6__lessIhhEEPhEEvT0_S5_T_
Xgb:__ZN9g_private12TimerManager4tickEv
ibc:_bc_poolsize
ubc:_frame_free_toc
NZc:_if_nametoindex
izd:__ZNSt3__26locale5__impC2ERKS1_
Guc:_cf2_arrstack_clear
IDa:__ZN16b2ParticleSystem25FreeUserOverridableBufferIjEEvPNS_21UserOverridableBufferIT_EE
dba:__ZNSt3__214__split_bufferIP7Matrix4RNS_9allocatorIS2_EEEC2EjjS5_
$ja:__ZNSt3__214__split_bufferINS_4pairINS_12basic_stringIcNS_11char_traitsIcEENS_9allocatorIcEEEEfEERNS5_IS8_EEEC2EjjSA_
tDb:_png_write_cHRM_fixed
ZOd:__ZNSt3__212basic_stringIcNS_11char_traitsIcEEN10__cxxabiv112_GLOBAL__N_112malloc_allocIcEEE6appendEPKcj
L6b:__ZL9dooptionsP9lua_Statei
tbc:_INT123_frame_reset
V$a:__ZN9b2Contact11SetFrictionEf
Ifb:__ZNSt3__214__split_bufferIPNS_12basic_stringIcNS_11char_traitsIcEENS_9allocatorIcEEEERNS4_IS7_EEED2Ev
oqa:__ZNSt3__26__treeIPN21GGSampleOpenALManager7ChannelENS_4lessIS3_EENS_9allocatorIS3_EEE4findIS3_EENS_15__tree_iteratorIS3_PNS_11__tree_nodeIS3_PvEEiEERKT_
Y4a:__ZN20EventContactListener10EndContactEP16b2ParticleSystemii
ny:_glGetProgramiv
oid:__ZNSt3__29__num_getIcE17__stage2_int_loopEciPcRS2_RjcRKNS_12basic_stringIcNS_11char_traitsIcEENS_9allocatorIcEEEEPjRSD_S2_
qFb:_get_dqt
VBc:_ft_add_renderer
az:_glScissor
IPb:__ZNK11CPVRTString17find_first_not_ofEcj
reb:___cxx_global_var_init_2_228
gXd:_glUniform1i__wrapper
Mbd:__ZNSt3__29basic_iosIcNS_11char_traitsIcEEE8setstateEj
isa:__ZNK10emscripten8internal12WithPoliciesIJEE11ArgTypeListIJiNS_3valES4_RS4_S4_S4_S4_iiiEE8getCountEv
L$:__ZN9ParameteraSERKS_
gxd:__ZNSt3__214codecvt_bynameIDic11__mbstate_tEC2EPKcj
PPc:_scalbn
fDc:_convert_endian
t5a:__ZN15TextFieldBinder8destructEP9lua_State
hBa:__ZN15b2DistanceInputC2Ev
b1:__ZNSt3__26__treeINS_12__value_typeIiNS_6vectorIPN9MovieClip5FrameENS_9allocatorIS5_EEEEEENS_19__map_value_compareIiS9_NS_4lessIiEELb1EEENS6_IS9_EEE25__emplace_unique_key_argsIiJRKNS_21piecewise_construct_tENS_5tupleIJRKiEEENSK_IJEEEEEENS_4pairINS_15__tree_iteratorIS9_PNS_11__tree_nodeIS9_PvEEiEEbEERKT_DpOT0_
lF:_strftime_l
i7c:__ZNSt3__218__insertion_sort_3IRNS_6__lessIttEEPtEEvT0_S5_T_
MRb:___gl_pqSortExtractMin
Mud:__ZNSt3__210__time_getC2ERKNS_12basic_stringIcNS_11char_traitsIcEENS_9allocatorIcEEEE
dHb:_get_byte
$ia:__ZN6Path2D7setPathEPK6PrPath
KPa:__ZN15b2ParticleColor3SetERK7b2Color
tl:__exit
uAc:_FT_Stream_New
cyc:_ps_mask_ensure
f4c:_wcstoumax
xBc:_FT_Set_Pixel_Sizes
WEb:_consume_markers
cWc:_dup2
JXb:__ZL8f_parserP9lua_StatePv
oic:_tt_cmap4_char_map_linear
vM:__ZN7Matrix43setEffffffffffffffffNS_4TypeE
iS:__ZN15MyTexturePacker6offsetEi
zp:_emscripten_destroy_worker
Grb:__cleanup
yZa:__ZN17ApplicationBinder14getOrientationEP9lua_State
hhd:__ZNSt3__28ios_base4InitC2Ev
yOa:__ZN15b2SlabAllocatorI16b2ParticleHandleE8AllocateEv
AKc:_csqrtf
ZV:__ZNK11Application11orientationEv
GEa:__ZN16b2ParticleSystem16ReallocateBufferIP16b2ParticleHandleEEPT_PNS_21UserOverridableBufferIS3_EEiib
cec:_mpg123_decoder
k1a:__ZN12Box2DBinder225b2MouseJoint_setFrequencyEP9lua_State
D0c:_add_icase_literals
IHd:__ZNSt3__212basic_stringIwNS_11char_traitsIwEENS_9allocatorIwEEE6assignERKS5_jj
I1b:__ZL15db_getmetatableP9lua_State
BZa:__ZN17ApplicationBinder20setLogicalDimensionsEP9lua_State
YOb:__ZN11CPVRTString6appendEPKc
COc:___tolower_l
Wa:ftCall_iiiiiiiiiii
TRd:___cxa_guard_release
dAc:_ft_hash_str_init
Vvc:_cff_builder_init
dHc:_load_prologue
b7c:__ZNSt3__27__sort5IRNS_6__lessIssEEPsEEjT0_S5_S5_S5_S5_T_
RTa:__ZN14ViewportBinder6lookAtEP9lua_State
hwa:__ZN15b2ContactFilterD2Ev
iEb:_png_write_filtered_row
Z_b:__ZL10DumpStringPK7TStringP9DumpState
aV:__ZNSt3__26__treeINS_12__value_typeIiN4Font12TextureGlyphEEENS_19__map_value_compareIiS4_NS_4lessIiEELb1EEENS_9allocatorIS4_EEE5clearEv
L1b:__ZL10db_sethookP9lua_State
Plc:_ft_smooth_render
$Gd:__ZNSt3__212basic_stringIwNS_11char_traitsIwEENS_9allocatorIwEEE9__grow_byEjjjjjj
kzd:__ZNSt3__26locale5__impC2ERKS1_S3_i
xHa:__ZN15b2QueryCallbackD0Ev
njc:_tt_face_load_bdf_props
kwd:__ZNSt3__2L31checked_string_to_wchar_convertERwPKcP15__locale_struct
HE:_rotozoomSurface
cVa:__ZN11AudioBinder15Sound_getLengthEP9lua_State
_Wb:_lua_pushnil
Gpb:__ZNSt3__23mapINS_12basic_stringIcNS_11char_traitsIcEENS_9allocatorIcEEEE8FileInfoNS_4lessIS6_EENS4_INS_4pairIKS6_S7_EEEEEixEOS6_
kIb:_merged_2v_upsample
_Gd:__ZNSt3__212basic_stringIwNS_11char_traitsIwEENS_9allocatorIwEEE6appendEjw
Glc:_gray_cubic_to
Ana:__ZNSt3__26__treeINS_12__value_typeINS_12basic_stringIcNS_11char_traitsIcEENS_9allocatorIcEEEE13GGAudioLoaderEENS_19__map_value_compareIS7_S9_NS_4lessIS7_EELb1EEENS5_IS9_EEE16__construct_nodeIJRKNS_21piecewise_construct_tENS_5tupleIJOS7_EEENSK_IJEEEEEENS_10unique_ptrINS_11__tree_nodeIS9_PvEENS_22__tree_node_destructorINS5_ISR_EEEEEEDpOT_
Hwa:__Z19b2ClipSegmentToLineP12b2ClipVertexPKS_RK6b2Vec2fi
fy:_glGetAttribLocation
AFd:__ZNKSt3__212basic_stringIcNS_11char_traitsIcEENS_9allocatorIcEEE7compareEjjRKS5_jj
QRb:_DoneEdgeDict
W6:__ZNSt3__26__treeIP5TimerNS_4lessIS2_EENS_9allocatorIS2_EEE14__erase_uniqueIS2_EEjRKT_
L7a:__ZN12SpriteBinder13localToGlobalEP9lua_State
Alc:_gray_hline
Z5a:__ZN14FontBaseBinder10layoutTextEP9lua_State
Rcd:__ZNSt3__29basic_iosIwNS_11char_traitsIwEEE9set_rdbufEPNS_15basic_streambufIwS2_EE
ZLc:___crypt_md5
DOb:__ZL10DecompressP17AMTC_BLOCK_STRUCTiiiiPh
dyc:_ps_mask_table_alloc
BKd:__ZNSt3__29to_stringEf
Wib:_gtexture_setCachingEnabled
hO:__ZN12GBitmapArray11setPositionEiff
SKd:__ZNSt3__212_GLOBAL__N_19as_stringINS_12basic_stringIwNS_11char_traitsIwEENS_9allocatorIwEEEEPFiPwjPKwzElEET_T0_SD_PKNSD_10value_typeET1_
Kcb:__ZN14LuaApplication12clearBuffersEv
UK:__ZNKSt3__26__treeINS_12__value_typeIiNS_6vectorIP8SlotBaseNS_9allocatorIS4_EEEEEENS_19__map_value_compareIiS8_NS_4lessIiEELb1EEENS5_IS8_EEE4findIiEENS_21__tree_const_iteratorIS8_PNS_11__tree_nodeIS8_PvEEiEERKT_
hDd:__ZNSt3__212basic_stringIcNS_11char_traitsIcEENS_9allocatorIcEEE27__invalidate_iterators_pastEj
EEb:_png_set_text_compression_window_bits
ULb:_sep_downsample
ERc:_gettext
Iqd:__ZNKSt3__28numpunctIwE16do_thousands_sepEv
zRb:___gl_meshMakeEdge
j4c:_index
Q:Math_imul
Bg:_TTF_FontAscent
n1a:__ZN12Box2DBinder228b2MouseJoint_getDampingRatioEP9lua_State
W_c:___dns_doqueries
fYc:_getword
bca:__ZN9Transform11setScaleXYZEfff
Eca:__ZNK9Transform4refZEv
pUa:__ZN18RenderTargetBinder6createEP9lua_State
ozc:_ft_stroke_border_grow
Myb:_png_get_PLTE
qYc:_munlockall
WRa:__ZNSt3__26__treeINS_12__value_typeINS_12basic_stringIcNS_11char_traitsIcEENS_9allocatorIcEEEEP11ProfileInfoEENS_19__map_value_compareIS7_SA_NS_4lessIS7_EELb1EEENS5_ISA_EEE12__find_equalIS7_EERPNS_16__tree_node_baseIPvEERPNS_15__tree_end_nodeISL_EERKT_
cFc:_xmp_play_frame
o1a:__ZN12Box2DBinder230b2PulleyJoint_getGroundAnchorAEP9lua_State
qDc:_instrument_name
cTd:runPostSets53
V3c:_wcstof
Y3c:_wcstod
DMc:_out
x0a:__ZNK7Matrix43getEv
Ic:ftCall_viiiiiiiiiiiiiii
d4c:_wcstol
umc:_af_latin_align_serif_edge
uo:_eglGetConfigAttrib
AKb:_emit_marker
PWa:__ZN13GGAlertDialog10callback_sEiPvS0_
fvc:_cf2_computeDarkening
dQb:__ZN11CPVRTString4swapERS_
ZJd:__ZNSt3__24stodERKNS_12basic_stringIcNS_11char_traitsIcEENS_9allocatorIcEEEEPj
ejc:_tt_cmap14_def_char_count
eAb:_png_handle_unknown
lAb:_png_handle_iCCP
EAa:__ZNK6b2Stat8GetCountEv
bg:_SDL_ThreadID
Gu:_emscripten_set_mousedown_callback
Y$:__ZNK9EventTypeI15EnterFrameEventE2idEv
vIb:_pass2_no_dither
Gya:__ZNK12b2MotorJoint10GetAnchorAEv
RKb:_jinit_c_prep_controller
W9:__ZNSt3__214__split_bufferIPPK6SpriteNS_9allocatorIS4_EEED2Ev
rpd:__ZNKSt3__27codecvtIwc11__mbstate_tE13do_max_lengthEv
qta:_gui_hide
AUa:__ZN11AudioBinder17SoundChannel_stopEP9lua_State
NJa:__ZNSt3__27__sort5IRNS_6__lessIN16b2ParticleSystem5ProxyES3_EEPS3_EEjT0_S7_S7_S7_S7_T_
MQd:__ZNSt3__212basic_stringIcNS_11char_traitsIcEEN10__cxxabiv112_GLOBAL__N_112malloc_allocIcEEE9push_backEc
CXa:__ZN13GGGeolocationD2Ev
pjb:__ZNSt3__26__treeINS_12__value_typeImPN9g_private19RenderTargetElementEEENS_19__map_value_compareImS5_NS_4lessImEELb1EEENS_9allocatorIS5_EEE25__emplace_unique_key_argsImJRKNS_21piecewise_construct_tENS_5tupleIJRKmEEENSH_IJEEEEEENS_4pairINS_15__tree_iteratorIS5_PNS_11__tree_nodeIS5_PvEEiEEbEERKT_DpOT0_
uJd:__ZNSt3__24stoiERKNS_12basic_stringIwNS_11char_traitsIwEENS_9allocatorIwEEEEPji
_Ub:__ZL5ArithP9lua_StateP10lua_TValuePKS1_S4_3TMS
pYb:__ZL6ifstatP8LexStatei
chc:_FT_Outline_New_Internal
Ded:__ZNSt3__213basic_istreamIcNS_11char_traitsIcEEE3getERNS_15basic_streambufIcS2_EEc
kna:__ZNSt3__26__treeINS_12__value_typeIj7PointerEENS_19__map_value_compareIjS3_NS_4lessIjEELb1EEENS_9allocatorIS3_EEE5eraseENS_21__tree_const_iteratorIS3_PNS_11__tree_nodeIS3_PvEEiEE
Fpd:__ZNSt3__2L13utf16_to_utf8EPKtS1_RS1_PhS3_RS3_mNS_12codecvt_modeE
PVc:_a_ctz_64
Kka:__ZN18ApplicationManagerD2Ev
C5b:__ZL11str_reverseP9lua_State
D5:__ZN5Timer4stopEv
tcb:__ZN8MemCache5ResetEv
KV:__ZNSt3__213__vector_baseIP11GReferencedNS_9allocatorIS2_EEED2Ev
DUb:__ZL11unlinkupvalP5UpVal
Oo:_eglWaitNative
etb:__Z20setResourceDirectoryPKc
ePd:__ZN10__cxxabiv112_GLOBAL__N_15arenaILj4096EE17pointer_in_bufferEPc
XHb:_int_upsample
vMa:__ZNK6b2Body13GetLocalPointERK6b2Vec2
aSb:_AddRightEdges
wpc:_Write_CVT_Stretched
OFd:__ZNSt3__212basic_stringIwNS_11char_traitsIwEENS_9allocatorIwEEE6__zeroEv
_f:_SDL_ShowCursor
eZa:__ZN17ApplicationBinder14getDeviceWidthEP9lua_State
Cbb:__ZN16EventTypeVisitor5visitEP13CompleteEvent
U3:__ZN5ShapeD0Ev
apa:__ZNSt3__26__treeINS_12__value_typeImPN12_GLOBAL__N_121GGStreamOpenALManager7ChannelEEENS_19__map_value_compareImS6_NS_4lessImEELb1EEENS_9allocatorIS6_EEE16__insert_node_atEPNS_15__tree_end_nodeIPNS_16__tree_node_baseIPvEEEERSI_SI_
btd:__ZNKSt3__220__codecvt_utf8_utf16IDiE13do_max_lengthEv
scb:__ZN21StageOrientationEventC2ERK9EventTypeIS_E24gapplication_Orientation
Zqa:__Z13getDeviceInfov
$Jd:__ZNSt3__212_GLOBAL__N_115as_float_helperIdNS_12basic_stringIcNS_11char_traitsIcEENS_9allocatorIcEEEEPFdPKcPPcEEET_RKS7_RKT0_PjT1_
PX:__ZNK9TextField13letterSpacingEv
gab:__ZN4SlotI13TimerListener10TimerEventE6equalsEPK8SlotBase
kpa:__ZNSt3__23setIPN12_GLOBAL__N_121GGStreamOpenALManager7ChannelENS_4lessIS4_EENS_9allocatorIS4_EEED2Ev
j0:__ZNK4SlotI9MovieClip15EnterFrameEventE2t1Ev
yQd:__ZN10__cxxabiv112_GLOBAL__N_132parse_unresolved_qualifier_levelINS0_2DbEEEPKcS4_S4_RT_
Bxb:_png_destroy_read_struct
j5c:_cfmakeraw
L_:__ZL14easeInOutCubicd
PBd:__ZNSt3__219__shared_mutex_base8try_lockEv
pH:FUNCTION_TABLE_iiiii
Jgb:__ZN9g_private12TimerManager4stopEi
lhc:_Render_Glyph
OMd:__ZNSt3__214__split_bufferINS_4pairIPNS_18condition_variableEPNS_5mutexEEERNS_18__hidden_allocatorIS6_EEED2Ev
UM:__GLOBAL__sub_I_stopwatch_cpp
vbd:__ZThn8_NSt3__214basic_iostreamIcNS_11char_traitsIcEEED0Ev
sIb:_prescan_quantize
ZP:__ZNSt3__214__split_bufferIN7TileMap6TileIdERNS_9allocatorIS2_EEED2Ev
dT:__ZN4FontD2Ev
hIa:__ZNSt3__213__upper_boundIRPFbRKN16b2ParticleSystem5TriadES4_EPS2_S2_EET0_S9_S9_RKT1_T_
mka:__ZNSt3__26__treeINS_12__value_typeINS_12basic_stringIcNS_11char_traitsIcEENS_9allocatorIcEEEENS_6vectorIhNS5_IhEEEEEENS_19__map_value_compareIS7_SB_NS_4lessIS7_EELb1EEENS5_ISB_EEE5clearEv
lvd:__ZNSt3__28time_putIwNS_19ostreambuf_iteratorIwNS_11char_traitsIwEEEEEC2EPKcj
wpd:__ZNKSt3__27codecvtIDsc11__mbstate_tE6do_outERS1_PKDsS5_RS5_PcS7_RS7_
nmd:__ZNSt3__215time_put_bynameIcNS_19ostreambuf_iteratorIcNS_11char_traitsIcEEEEED0Ev
DC:_llvm_minnum_f64
ofb:_md5_process
DLa:__ZN6b2Body14GetFixtureListEv
wUc:_lrintl
Olb:__ZNSt3__26__treeINS_12__value_typeINS_12basic_stringIcNS_11char_traitsIcEENS_9allocatorIcEEEE13GGAudioLoaderEENS_19__map_value_compareIS7_S9_NS_4lessIS7_EELb1EEENS5_IS9_EEE7destroyEPNS_11__tree_nodeIS9_PvEE
bvd:__ZNSt3__28time_putIcNS_19ostreambuf_iteratorIcNS_11char_traitsIcEEEEEC2Ej
ska:__ZNKSt3__26__treeINS_12__value_typeINS_12basic_stringIcNS_11char_traitsIcEENS_9allocatorIcEEEENS_6vectorIhNS5_IhEEEEEENS_19__map_value_compareIS7_SB_NS_4lessIS7_EELb1EEENS5_ISB_EEE10__root_ptrEv
Dxb:_png_destroy_png_struct
bD:_log
nvc:_cf2_getLanguageGroup
dld:__ZNKSt3__28time_getIwNS_19istreambuf_iteratorIwNS_11char_traitsIwEEEEE9__get_dayERiRS4_S4_RjRKNS_5ctypeIwEE
jW:__ZN11Application21correctTouchPositionsEP17ginput_TouchEvent
zWc:___getopt_long
H5a:__ZN12TTFontBinderC2EP9lua_State
dab:__ZN15EventDispatcher16addEventListenerI10TimerEvent13TimerListenerS1_EEvRK9EventTypeIT_EPT0_MS8_FvPT1_E
CYc:_mbrtoc16
fua:_JSNative_enqueueEvent
hYc:___madvise
KYc:_wcstombs
dNa:__ZN15b2MotorJointDef10InitializeEP6b2BodyS1_
ywc:_cff_index_init
nQ:__ZNSt3__25dequeI5ColorNS_9allocatorIS1_EEE19__add_back_capacityEv
vjb:__ZN9g_private14TextureManager18RenderTargetGetFBOEm
Ecc:_INT123_init_layer12_table
ZDc:_itsex_decompress8
nJb:_jpeg_mem_src
SNc:___isspace_l
Dd:_Mix_ReserveChannels
hqa:__ZNSt3__26__treeINS_12__value_typeImPN21GGSampleOpenALManager5SoundEEENS_19__map_value_compareImS5_NS_4lessImEELb1EEENS_9allocatorIS5_EEE16__construct_nodeIJRKNS_21piecewise_construct_tENS_5tupleIJRKmEEENSH_IJEEEEEENS_10unique_ptrINS_11__tree_nodeIS5_PvEENS_22__tree_node_destructorINSA_ISP_EEEEEEDpOT_
z6b:__ZL4setnP9lua_State
y7a:__ZN12SpriteBinder9setScaleZEP9lua_State
Qx:_glEndQueryEXT
Nl:_acos
koa:__ZN12_GLOBAL__N_121GGStreamOpenALManager19SoundCreateFromFileEPKcRK13GGAudioLoaderP12gaudio_Error
Wia:__ZL13init_segmentsv
Ikd:__ZNSt3__28time_getIwNS_19istreambuf_iteratorIwNS_11char_traitsIwEEEEED2Ev
Foc:_FT_List_Add
TCb:_png_set_iCCP
vFd:__ZNKSt3__212basic_stringIcNS_11char_traitsIcEENS_9allocatorIcEEE7compareERKS5_
D3a:__ZN6b2Body19ApplyAngularImpulseEfb
gob:_gaudio_ChannelGetPosition
_Ma:__ZN15b2RevoluteJoint11EnableLimitEb
xic:_tt_cmap8_char_next
zhd:__ZNSt3__211__stdoutbufIcE8overflowEi
pMa:__ZNK12b2MouseJoint11GetMaxForceEv
DEb:_png_set_text_compression_strategy
_V:__ZN11Application9mouseDownEiiii
BQ:__Z14colorStackSizev
CWb:_lua_settop
JBc:_FT_Get_Name_Index
NGb:_decode_mcu_DC_refine_2
mYc:___mprotect
nob:_gaudio_ChannelSetPitch
qCb:_make_rgb_colormap
EPd:__ZNSt3__212basic_stringIcNS_11char_traitsIcEEN10__cxxabiv112_GLOBAL__N_112malloc_allocIcEEE7replaceEjjPKc
odb:_block_from_ptr
NT:__ZNSt3__26vectorIiNS_9allocatorIiEEE6resizeEj
Qed:__ZNSt3__213basic_istreamIwNS_11char_traitsIwEEEC2EPNS_15basic_streambufIwS2_EE
qCa:__ZNK9b2Fixture8IsSensorEv
udd:__ZNSt3__215basic_streambufIwNS_11char_traitsIwEEE10pubseekoffExNS_8ios_base7seekdirEj
tvd:__ZNKSt3__210moneypunctIcLb0EE13thousands_sepEv
nL:__ZN5Stage9mouseMoveEiiiiffff
Tmb:__ZN14GGSoundManager15ChannelGetPitchEm
H2b:__ZL6f_readP9lua_State
kf:_SDL_JoystickNumButtons
US:__ZNSt3__26vectorIN8FontBase11ChunkLayoutENS_9allocatorIS2_EEE21__push_back_slow_pathIRKS2_EEvOT_
DF:_uuid_clear
bVb:__ZL10call_binTMP9lua_StatePK10lua_TValueS3_PS1_3TMS
Em:_alGetSourcefv
VYc:___dn_expand
aza:__ZNK13b2PulleyJoint17GetReactionTorqueEf
rSa:__ZN12ScreenBinder6createEP9lua_State
lyd:__ZNSt3__212_GLOBAL__N_14makeINS_8messagesIcEEjEERT_T0_
iB:_glfwWaitEvents
wtb:_deflate_stored
Zeb:_Cipher
Pid:__ZNKSt3__27num_getIcNS_19istreambuf_iteratorIcNS_11char_traitsIcEEEEE17__do_get_unsignedItEES4_S4_S4_RNS_8ios_baseERjRT_
rdc:_INT123_synth_4to1_real
tpc:_Read_CVT
saa:__ZN6Sprite14swapChildrenAtEiiP7GStatus
RSc:_dd_mul
$2b:__ZL3LleP9lua_State
hyd:__ZNSt3__212_GLOBAL__N_14makeINS_8time_putIcNS_19ostreambuf_iteratorIcNS_11char_traitsIcEEEEEEjEERT_T0_
ob:ftCall_vidddddd
jS:__ZNSt3__26vectorI8RectSizeNS_9allocatorIS1_EEE21__push_back_slow_pathIRKS1_EEvOT_
LRa:__ZNSt3__26__treeINS_12__value_typeIP7ClosureP11ProfileInfoEENS_19__map_value_compareIS3_S6_NS_4lessIS3_EELb1EEENS_9allocatorIS6_EEE5clearEv
MEd:__ZNSt3__212basic_stringIcNS_11char_traitsIcEENS_9allocatorIcEEE7replaceIPKcEENS_9enable_ifIXsr19__is_input_iteratorIT_EE5valueERS5_E4typeENS_11__wrap_iterIS8_EESF_SA_SA_
TDa:__ZN16b2ParticleSystem10FreeBufferINS_4PairEEEvPPT_i
M8a:__ZN12MatrixBinder6getM11EP9lua_State
u0:__ZN9MovieClip9addChild2EP6Sprite
auc:_cf2_glyphpath_lineTo
K0c:_tre_tag_order
F0b:_luaL_unref
o6:__ZNSt3__26__treeINS_12__value_typeIdNS_6vectorIP5TimerNS_9allocatorIS4_EEEEEENS_19__map_value_compareIdS8_NS_4lessIdEELb1EEENS5_IS8_EEEC2ERKSC_
kgb:__ZNSt3__26__treeINS_12__value_typeIiN9g_private12TimerManager12TimerElementEEENS_19__map_value_compareIiS5_NS_4lessIiEELb1EEENS_9allocatorIS5_EEEC2ERKS9_
$Xa:__ZN11GGUrlLoader16getOrCreateEventEPKcS1_
Tua:__ZmiRK6b2Vec2S1_
_Xc:_is_lost_conn
Ph:___execvpe
x3a:__ZNK6b2Body15GetGravityScaleEv
jq:_emscripten_glBindBuffer
ROa:__ZN15b2ParticleColorC2Ev
fka:__ZNSt3__26__treeINS_12__value_typeINS_12basic_stringIcNS_11char_traitsIcEENS_9allocatorIcEEEENS_6vectorIhNS5_IhEEEEEENS_19__map_value_compareIS7_SB_NS_4lessIS7_EELb1EEENS5_ISB_EEE5eraseENS_21__tree_const_iteratorISB_PNS_11__tree_nodeISB_PvEEiEE
Lqa:__ZNSt3__26__treeINS_12__value_typeImPN21GGSampleOpenALManager5SoundEEENS_19__map_value_compareImS5_NS_4lessImEELb1EEENS_9allocatorIS5_EEE5eraseENS_21__tree_const_iteratorIS5_PNS_11__tree_nodeIS5_PvEEiEE
Eyd:__ZNSt3__26locale7classicEv
VD:_pthread_getattr_np
Tna:__ZN12_GLOBAL__N_121GGStreamOpenALManager18ChannelSetPositionEmj
RV:__ZN11Application16configureFrustumEfff
K7b:__ZN8pystring6rindexERKNSt3__212basic_stringIcNS0_11char_traitsIcEENS0_9allocatorIcEEEES8_ii
ffa:__ZN17ogl2ShaderProgram8activateEv
Lzb:_png_do_expand_16
kjc:_tt_get_cmap_info
tld:__ZNKSt3__215time_get_bynameIcNS_19istreambuf_iteratorIcNS_11char_traitsIcEEEEE13do_date_orderEv
UVd:_pthread_getspecific__wrapper
Wdc:_INT123_synth_4to1_mono
N2:__ZNKSt3__26__treeINS_12__value_typeIiN6TTFont9GlyphDataEEENS_19__map_value_compareIiS4_NS_4lessIiEELb1EEENS_9allocatorIS4_EEE10__root_ptrEv
Ymc:_FT_Get_Char_Index
yWb:_luaE_newthread
vVb:__ZL6newkeyP9lua_StateP5TablePK10lua_TValue
mjb:__ZN9g_private14TextureManager18RenderTargetCreateEiiii
yrb:_g_funlockfile
zSc:_exp10f
fZc:_freeaddrinfo
YFb:_jpeg_input_complete
WOc:_close
fyb:_png_get_y_offset_microns
XM:__ZN9StopWatch5clockEv
hz:_glStencilOp
BQa:__ZL9yieldHookP9lua_StateP9lua_Debug
Xr:_emscripten_glGetShaderSource
Dz:_glUniform4i
Bz:_glUniform4f
fnd:__ZNKSt3__210moneypunctIwLb1EE13do_neg_formatEv
Xsd:__ZNKSt3__220__codecvt_utf8_utf16IDiE6do_outER11__mbstate_tPKDiS5_RS5_PcS7_RS7_
HEb:_png_set_write_user_transform_fn
IFb:_self_destruct
MXc:_setdomainname
Pdc:_INT123_synth_1to1_8bit_mono
u9:__ZNK14ColorTransform15alphaMultiplierEv
KP:__ZeqRK8Matrix2DS1_
Bed:__ZNSt3__213basic_istreamIcNS_11char_traitsIcEEE3getEPcic
G3a:__ZN6Binder11setInstanceEiPv
J7:__ZN14TextureManagerC2EP11Application
fXb:_lua_pushcclosure
t$a:__ZL11tableToVec2P9lua_Statei
hod:__ZNSt3__29money_getIwNS_19istreambuf_iteratorIwNS_11char_traitsIwEEEEED2Ev
s0c:_tre_add_tag_right
X8b:__ZN6snappy18SnappyDecompressorD2Ev
Q0b:__ZL14luaB_corunningP9lua_State
$1b:__ZL10createmetaP9lua_State
Ghb:_gtexture_get_engine
QYb:_luaK_exp2val
eN:__ZN12SplashScreenD0Ev
p6c:_setuid
wE:_pthread_sigmask
apc:_tt_interpolate_deltas
oab:__ZN13TimerListenerD0Ev
Z2c:_scanf
gZa:__ZN17ApplicationBinder7vibrateEP9lua_State
wgb:__ZNSt3__23mapIiN9g_private12TimerManager12TimerElementENS_4lessIiEENS_9allocatorINS_4pairIKiS3_EEEEEixERS8_
PSa:__ZN15ParticlesBinder16setParticleAngleEP9lua_State
vpa:__ZN17GGStreamInterfaceD0Ev
GLb:_encode_mcu_DC_refine
o7:__ZNSt3__214__split_bufferIPNS_4pairIP5TimeriEERNS_9allocatorIS5_EEEC2EjjS8_
tB:_glutGet
H2:__ZNSt3__23mapIiN6TTFont9GlyphDataENS_4lessIiEENS_9allocatorINS_4pairIKiS2_EEEEEixERS7_
Nkc:_ft_cmap_done_internal
lGc:_get_subinstrument
zsc:_TT_Init_Glyph_Loading
N$b:_luaC_freeall
Wea:__ZN16ogl2ShaderBuffer10readPixelsEiiiiN13ShaderTexture6FormatENS0_7PackingEPv
nw:_getaddrinfo
uwc:_cff_sid_to_glyph_name
iYb:_luaX_token2str
JC:_llvm_mono_store_i8_p0i8
b$c:___dns_count_addrs
RVd:_pthread_cond_destroy__wrapper
hWc:_uname
JDd:__ZNSt3__212basic_stringIcNS_11char_traitsIcEENS_9allocatorIcEEE26__invalidate_all_iteratorsEv
p1:__ZN9MovieClip11clearActionEi
sLd:__ZTv0_n12_NSt3__210istrstreamD1Ev
bd:_Mix_FadeInMusicPos
qk:__embind_register_bool
itb:_z_deflateInit_
BPb:__ZNK11CPVRTStringneERKS_
shb:__ZL16term_destinationP20jpeg_compress_struct
o$c:_lcg64
Eoa:__ZNSt3__23mapImPN12_GLOBAL__N_121GGStreamOpenALManager5SoundENS_4lessImEENS_9allocatorINS_4pairIKmS4_EEEEEixERS9_
jfa:__ZN17ogl2ShaderProgram10drawArraysEN13ShaderProgram9ShapeTypeEij
k0b:_luaL_checkany
lnb:__ZN14GGAudioManager14SoundGetLengthEm
nud:__ZNKSt3__28time_getIcNS_19istreambuf_iteratorIcNS_11char_traitsIcEEEEE8get_yearES4_S4_RNS_8ios_baseERjP2tm
qBa:__ZN12b2BroadPhase10BufferMoveEi
hhc:_ft_black_reset
n8b:__ZN8pystring2os4path14basename_posixERKNSt3__212basic_stringIcNS2_11char_traitsIcEENS2_9allocatorIcEEEE
cGb:_prepare_for_output_pass
UUb:_luaD_reallocCI
Kbc:_INT123_frame_outs
Vpb:__ZNSt3__26__treeINS_12__value_typeIPKciEENS_19__map_value_compareIS3_S4_N8StringId5ltstrELb1EEENS_9allocatorIS4_EEEC2ERKS8_
Rid:__ZNKSt3__27num_getIcNS_19istreambuf_iteratorIcNS_11char_traitsIcEEEEE15__do_get_signedIxEES4_S4_S4_RNS_8ios_baseERjRT_
yad:__ZNSt3__215basic_streambufIcNS_11char_traitsIcEEE7seekoffExNS_8ios_base7seekdirEj
Knb:__ZN14GGAudioManager21BackgroundChannelStopEm
Wk:__emval_addMethodCaller
ui:___syscall15
mi:___syscall14
gi:___syscall12
bi:___syscall10
hdd:__ZNSt3__215basic_streambufIcNS_11char_traitsIcEEE4swapERS3_
O_c:_sendmmsg
_3:__ZNSt3__213__vector_baseIP11TextureBaseNS_9allocatorIS2_EEED2Ev
qpc:_tt_size_done_bytecode
Sqc:_Ins_IF
Opb:__ZNKSt3__26__treeINS_12__value_typeIPvP11GReferencedEENS_19__map_value_compareIS2_S5_NS_4lessIS2_EELb1EEENS_9allocatorIS5_EEE4findIS2_EENS_21__tree_const_iteratorIS5_PNS_11__tree_nodeIS5_S2_EEiEERKT_
D1:__ZN10MouseEventD0Ev
UOa:__ZN11b2Transform11SetIdentityEv
hAb:_png_handle_gAMA
Jtb:_scan_tree
UTc:_lgammaf
_O:__ZN3DibC2EOS_
G0c:_tre_tnfa_run_backtrack
fgb:__ZN9g_private9StopWatch6resumeEv
rqc:_Ins_IP
rf:_SDL_LoadBMP
Btc:_cf2_font_setup
IBb:_png_set_swap
zjd:__ZNKSt3__27num_putIcNS_19ostreambuf_iteratorIcNS_11char_traitsIcEEEEE6do_putES4_RNS_8ios_baseEcx
Bjd:__ZNKSt3__27num_putIcNS_19ostreambuf_iteratorIcNS_11char_traitsIcEEEEE6do_putES4_RNS_8ios_baseEcy
yM:__ZN7Matrix4C2Ev
VDd:__ZNSt3__212basic_stringIcNS_11char_traitsIcEENS_9allocatorIcEEE6appendENS_17basic_string_viewIcS2_EE
Txd:__ZNSt3__212_GLOBAL__N_14makeINS_10moneypunctIwLb0EEEjEERT_T0_
Ue:_SDL_HasMMX
yCa:__ZNK6b2Body7IsAwakeEv
xYa:__ZN15MovieClipBinder13setGotoActionEP9lua_State
yjd:__ZNKSt3__27num_putIcNS_19ostreambuf_iteratorIcNS_11char_traitsIcEEEEE6do_putES4_RNS_8ios_baseEcl
Ajd:__ZNKSt3__27num_putIcNS_19ostreambuf_iteratorIcNS_11char_traitsIcEEEEE6do_putES4_RNS_8ios_baseEcm
Oc:ClassHandle_isDeleted
CXc:_access
Cjd:__ZNKSt3__27num_putIcNS_19ostreambuf_iteratorIcNS_11char_traitsIcEEEEE6do_putES4_RNS_8ios_baseEcd
TFa:__ZN15b2ContactSolver13StoreImpulsesEv
xjd:__ZNKSt3__27num_putIcNS_19ostreambuf_iteratorIcNS_11char_traitsIcEEEEE6do_putES4_RNS_8ios_baseEcb
hnc:_af_cjk_hints_detect_features
dGd:__ZNSt3__212basic_stringIwNS_11char_traitsIwEENS_9allocatorIwEEEC2Ejw
Cyd:__ZNSt3__26vectorIPNS_6locale5facetENS_15__sso_allocatorIS3_Lj28EEEE8allocateEj
x0b:_luaL_addlstring
hha:__ZNSt3__26__treeINS_12__value_typeINS_12basic_stringIcNS_11char_traitsIcEENS_9allocatorIcEEEES7_EENS_19__map_value_compareIS7_S8_NS_4lessIS7_EELb1EEENS5_IS8_EEE16__construct_nodeIJRKNS_21piecewise_construct_tENS_5tupleIJOS7_EEENSJ_IJEEEEEENS_10unique_ptrINS_11__tree_nodeIS8_PvEENS_22__tree_node_destructorINS5_ISQ_EEEEEEDpOT_
yz:_glUniform3fv
ZLa:__ZN9b2Fixture8RefilterEv
Fxa:__ZN7b2Joint11ShiftOriginERK6b2Vec2
TC:_llvm_sqrt_f64
Cx:_glDrawArraysInstancedANGLE
QYc:___dns_parse
ACb:_png_set_gamma_fixed
_wc:_ps_unicodes_char_index
V4:__ZN10Tesselator12AddToCleanupEPd
Ync:_tt_driver_done
ahb:__ZN9g_private12TimerManager15getCurrentCountEi
nfb:_md5_starts
VBa:__ZNK13b2DynamicTree17ValidateStructureEi
eFb:_read_restart_marker
qB:_glutDestroyWindow
G8b:__ZN6snappy8internalL15FindMatchLengthEPKcS2_S2_
VKb:_jinit_c_coef_controller
PDb:_png_write_pHYs
Ixc:_psh_glyph_done
GMd:__ZNSt3__213__vector_baseIPNS_17__assoc_sub_stateENS_18__hidden_allocatorIS2_EEED2Ev
dca:__ZN9Transform12setRotationXEf
_tc:_cf2_stack_popFixed
xJ:__ZNSt3__214__split_bufferItRNS_9allocatorItEEEC2EjjS3_
L8b:__ZN6snappyL18EmitCopyLessThan64EPcji
y6b:__ZL7tremoveP9lua_State
hC:_llvm_eh_exception
HBc:_FT_Face_GetVariantsOfChar
Vq:_emscripten_glDepthMask
nn:_alcCaptureStop
fr:_emscripten_glDrawBuffers
txc:_t2_hints_stems
aeb:_align_up
Qgd:__ZNSt3__213basic_ostreamIwNS_11char_traitsIwEEEC1Ev
iKd:__ZNSt3__212_GLOBAL__N_115as_float_helperIeNS_12basic_stringIwNS_11char_traitsIwEENS_9allocatorIwEEEEPFePKwPPwEEET_RKNS2_IcNS3_IcEENS5_IcEEEERKT0_PjT1_
VKc:_catanl
kUa:__ZN12ShaderBinder16getEngineVersionEP9lua_State
fDa:__Z16b2MixRestitutionff
QKc:_catanf
Tlc:_ft_smooth_render_generic
E4b:__ZL7to_utf8P9lua_StateiPPKc
V2b:__ZL4LnewP9lua_State
Gx:_glDrawBuffers
awd:__ZNKSt3__210moneypunctIwLb1EE11frac_digitsEv
AAc:_ft_glyphslot_done
gnc:_af_cjk_hints_apply
bGa:__ZN15b2ContactSolverC2EP18b2ContactSolverDef
Kva:__ZN14b2PolygonShapeC2Ev
Pkb:__ZN6gevent12EventManager10equal_typeINS0_17EventQueueElementEEC2Ei
VFc:_get_lfo_ft2
$Ad:__Znaj
kEa:__ZN16b2ParticleSystem34ReallocateInternalAllocatedBuffersEi
NEc:_mixer_voicepos
lXb:_lua_gettable
CPb:__ZNK11CPVRTStringneEPKc
$fb:__Z8drawInfov
iSb:_TopRightRegion
$x:_glGenVertexArrays
R7c:__ZNSt3__27__sort5IRNS_6__lessIyyEEPyEEjT0_S5_S5_S5_S5_T_
GDb:_optimize_cmf
SYc:_getlens
d:HEAPU8
Jzb:_png_do_chop
WX:__ZNSt3__213__vector_baseI12GraphicsBaseNS_9allocatorIS1_EEED2Ev
lNd:__ZN10__cxxabiv117__class_type_infoD0Ev
_Na:__ZNSt3__214__rotate_rightIPjEET_S2_S2_
Npa:__ZN21GGSampleOpenALManager18ChannelGetPositionEm
rOb:__ZNK10ByteBuffer4sizeEv
w4b:__ZL13find_in_rangeP11range_tablejj
j6b:__ZL9os_renameP9lua_State
Pv:_endprotoent
e5c:_mkstemp
I5:__ZNSt3__23setIP15EventDispatcherNS_4lessIS2_EENS_9allocatorIS2_EEED2Ev
jvb:_z_zError
j2b:__ZL8io_inputP9lua_State
d7b:__ZN8pystring12_GLOBAL__N_115reverse_stringsERNSt3__26vectorINS1_12basic_stringIcNS1_11char_traitsIcEENS1_9allocatorIcEEEENS6_IS8_EEEE
b0:__ZNSt3__26__treeINS_12__value_typeIiNS_6vectorIP8SlotBaseNS_9allocatorIS4_EEEEEENS_19__map_value_compareIiS8_NS_4lessIiEELb1EEENS5_IS8_EEE25__emplace_unique_key_argsIiJRKNS_21piecewise_construct_tENS_5tupleIJOiEEENSJ_IJEEEEEENS_4pairINS_15__tree_iteratorIS8_PNS_11__tree_nodeIS8_PvEEiEEbEERKT_DpOT0_
xOb:__ZN10ByteBuffer3getERi
Zyc:_FT_Library_SetLcdFilterWeights
Ooc:_TT_Goto_CodeRange
LPa:__ZNK15b2ParticleColor8GetColorEv
Mya:__ZN12b2MotorJoint23InitVelocityConstraintsERK12b2SolverData
Qbc:_INT123_frame_gapless_realinit
wC:_llvm_log2_f64
Xq:_emscripten_glDepthRangef
Hia:__ZL18endpoint_to_centerddddiiPdS_dS_S_S_S_
TSb:_fill_zlib_filefunc64_32_def_from_filefunc32
Nvb:_png_warning
tK:__ZN5Stage9mouseDownEiiiiffff
wf:_SDL_LogSetOutputFunction
GR:__ZN6Bitmap9setCoordsEv
iL:__ZNSt3__212__deque_baseIP6SpriteNS_9allocatorIS2_EEE5beginEv
Quc:_cff_lookup_glyph_by_stdcharcode
TLa:__ZN9b2Fixture4DumpEi
YMd:__ZNKSt3__218__hidden_allocatorIPNS_17__assoc_sub_stateEE8max_sizeEv
Noa:__ZNSt3__26__treeINS_12__value_typeImPN12_GLOBAL__N_121GGStreamOpenALManager7ChannelEEENS_19__map_value_compareImS6_NS_4lessImEELb1EEENS_9allocatorIS6_EEE5eraseENS_21__tree_const_iteratorIS6_PNS_11__tree_nodeIS6_PvEEiEE
t1:__ZN13GRenderTargetD2Ev
eq:_emscripten_glActiveTexture
dxd:__ZNSt3__214codecvt_bynameIwc11__mbstate_tEC2ERKNS_12basic_stringIcNS_11char_traitsIcEENS_9allocatorIcEEEEj
qia:__ZN12VertexBufferI8vector4fED2Ev
U6a:__ZN12SpriteBinder13removeChildAtEP9lua_State
BNa:__ZNK12b2WheelJoint13GetJointSpeedEv
JCb:_png_set_cHRM_fixed
DI:__ZNK9Particles11extraBoundsEPfS0_S0_S0_
n1b:__ZL13luaB_rawequalP9lua_State
THd:__ZNSt3__212basic_stringIwNS_11char_traitsIwEENS_9allocatorIwEEE6insertENS_11__wrap_iterIPKwEESt16initializer_listIwE
rtc:_cff_builder_done
Owa:__Z25b2CollidePolygonAndCircleP10b2ManifoldPK14b2PolygonShapeRK11b2TransformPK13b2CircleShapeS6_
HWa:__ZN17AlertDialogBinderC2EP9lua_State
PO:__ZNSt3__26vectorIN11TexturePack4RectENS_9allocatorIS2_EEE26__swap_out_circular_bufferERNS_14__split_bufferIS2_RS4_EE
Ksc:_FT_Get_Glyph_Name
dsd:__ZNKSt3__215__codecvt_utf16IDsLb0EE10do_unshiftER11__mbstate_tPcS4_RS4_
ic:ftCall_viiiddi
N5c:_getpgid
Hq:_emscripten_glCopyTexSubImage2D
w2:__ZNKSt3__26vectorIN6TTFont8FontFaceENS_9allocatorIS2_EEE8max_sizeEv
lH:FUNCTION_TABLE_ii
aPd:__ZNSt3__213__vector_baseINS_6vectorINS1_IN10__cxxabiv112_GLOBAL__N_111string_pairENS3_11short_allocIS4_Lj4096EEEEENS5_IS7_Lj4096EEEEENS5_IS9_Lj4096EEEED2Ev
i$a:__ZN12Box2DBinder231b2ParticleSystem_createParticleEP9lua_State
clb:_gevent_SetFlusher
NMb:_compress_output_182
kH:FUNCTION_TABLE_id
$v:_fabs
GSa:__ZN15ParticlesBinderC2EP9lua_State
sUd:mftCall_iiddi
C8c:__ZNSt3__218condition_variable4waitERNS_11unique_lockINS_5mutexEEE
qzc:_ft_stroker_inside
qWc:___unlist_locked_file
CNd:__ZN10__cxxabiv112_GLOBAL__N_110construct_Ev
mtb:_putShortMSB
vG:get_first_emval
hJd:__ZNSt3__212basic_stringIwNS_11char_traitsIwEENS_9allocatorIwEEE19__copy_assign_allocERKS5_NS_17integral_constantIbLb0EEE
Gt:_emscripten_idb_async_delete
rx:_glDeleteVertexArrays
zM:__ZN7Matrix48identityEv
Jsc:_tt_face_vary_cvt
nFc:_smix_mono_8bit_nearest
K4b:__ZL10u_posrangePPKcS1_ii
xX:__ZNSt3__214__split_bufferIP11GReferencedRNS_9allocatorIS2_EEED2Ev
WGa:__Z5b2MulRK5b2RotS1_
qyb:_png_get_y_offset_inches
mba:__ZNK6Sprite6heightEv
sfd:__ZNSt3__213basic_istreamIwNS_11char_traitsIwEEE3getERw
_gc:_FT_Vector_Transform
Ijc:_ft_mem_strcpyn
_Wd:b43
ERb:_MakeVertex
n2a:__ZNSt3__26vectorI6b2Vec2NS_9allocatorIS1_EEE21__push_back_slow_pathIRKS1_EEvOT_
ktc:_cff_charset_cid_to_gindex
ZWd:b42
ROb:__ZN17CPVRTResourceFile11GetReadPathEv
vGb:_process_data_context_main
tRb:_internal_gluTessNormal
be:_SDL_CreateThread
XPc:_strcasecmp
Fvc:_cff_parse_blend
oDd:__ZNKSt3__212basic_stringIcNS_11char_traitsIcEENS_9allocatorIcEEE3endEv
iC:_llvm_eh_selector
Ok:__emscripten_atomic_fetch_and_and_u64
PSb:___gl_pqSortIsEmpty
pE:_pthread_rwlock_wrlock
wmb:__ZNSt3__26__treeINS_12__value_typeImPN14GGSoundManager7ChannelEEENS_19__map_value_compareImS5_NS_4lessImEELb1EEENS_9allocatorIS5_EEE12__find_equalImEERPNS_16__tree_node_baseIPvEERPNS_15__tree_end_nodeISH_EERKT_
OAb:_png_set_sBIT
Mob:_gaudio_BackgroundChannelRemoveCallbackWithGid
QOa:__ZN13b2ParticleDefC2Ev
l8:__ZN6Sprite13setDimensionsEff
tkc:_tt_sbit_decoder_load_image
Muc:_cf2_hint_lock
cQb:__ZNK11CPVRTString6substrEjj
vza:__ZN15b2DistanceJointD0Ev
aEc:_read_bits
KOc:___wctrans_l
Pyd:__ZNSt3__26locale5__imp7installINS_14codecvt_bynameIDic11__mbstate_tEEEEvPT_
Rm:_alListeneriv
jMc:___do_des
Maa:__ZNSt3__25dequeI7Matrix4NS_9allocatorIS1_EEE8pop_backEv
QN:__ZNSt3__26vectorI6Point2IfENS_9allocatorIS2_EEE6resizeEj
pPb:__ZN11CPVRTString6assignERKS_
eqc:_Ins_ALIGNPTS
xG:init_ClassHandle
$vb:_png_set_error_fn
Qgc:_FT_Bitmap_Init
cQd:__ZN10__cxxabiv112_GLOBAL__N_121parse_conversion_exprINS0_2DbEEEPKcS4_S4_RT_
nP:__ZNK11TexturePack8locationEiPiS0_S0_S0_S0_S0_S0_S0_
OOa:__ZZN16b2ParticleSystem23DestroyParticlesInShapeERK7b2ShapeRK11b2TransformbEN31DestroyParticlesInShapeCallback14ReportParticleEPKS_i
jAa:__ZN6b2DrawC2Ev
rQ:__ZNSt3__214__split_bufferIP5ColorNS_9allocatorIS2_EEE9push_backEOS2_
SFa:__ZN15b2ContactSolver9WarmStartEv
r9:__ZNK14ColorTransform13redMultiplierEv
o3b:__ZL9LtonumberP9lua_State
L2b:__ZL5io_gcP9lua_State
uFa:__ZN16b2ParticleSystem21UserOverridableBufferIPvEC2Ev
Yac:_bc_init
asc:_Project
Ms:_emscripten_glTexParameterfv
QZa:__ZNSt3__2lsIcNS_11char_traitsIcEENS_9allocatorIcEEEERNS_13basic_ostreamIT_T0_EES9_RKNS_12basic_stringIS6_S7_T1_EE
mpc:_TT_New_Context
dkd:__ZNKSt3__28time_getIcNS_19istreambuf_iteratorIcNS_11char_traitsIcEEEEE14do_get_weekdayES4_S4_RNS_8ios_baseERjP2tm
Pc:RegisteredClass
oIb:_build_ycc_rgb_table_19
lya:__ZN15b2RevoluteJoint4DumpEv
cpd:__ZNKSt3__27codecvtIcc11__mbstate_tE6do_outERS1_PKcS5_RS5_PcS7_RS7_
Oob:_gaudio_registerType
rMa:__ZNK12b2MouseJoint12GetFrequencyEv
lxc:_ps_hint_table_done
A$:__ZNSt3__26vectorIN9MovieClip5FrameENS_9allocatorIS2_EEE21__push_back_slow_pathIRKS2_EEvOT_
$Aa:__ZN15b2WorldManifold10InitializeEPK10b2ManifoldRK11b2TransformfS5_f
GI:__ZThn508_N9ParticlesD1Ev
z7a:__ZN12SpriteBinder8setSkewXEP9lua_State
rQa:__ZNK14LuaApplication8getErrorEv
fca:__ZN9Transform4setZEf
j0a:__ZN11b2DebugDraw11DrawSegmentERK6b2Vec2S2_RK7b2Color
x8:__ZNSt3__26__treeIP6SpriteNS_4lessIS2_EENS_9allocatorIS2_EEE14__erase_uniqueIS2_EEjRKT_
krb:_g_p_write
jY:__ZN5Pixel18setTexturePositionEff
IYb:_luaK_setoneret
P7b:__ZN8pystring3mulERKNSt3__212basic_stringIcNS0_11char_traitsIcEENS0_9allocatorIcEEEEi
Zdb:_mapping_search
Qmb:__ZN14GGSoundManager16ChannelGetVolumeEm
Plb:__ZNSt3__24pairIKNS_12basic_stringIcNS_11char_traitsIcEENS_9allocatorIcEEEE13GGAudioLoaderED2Ev
IRb:___gl_computeInterior
CYa:__ZN12MovieClipLuaC2EN9MovieClip4TypeEP14LuaApplicationb
bb:invoke_vdddddi
Iha:__ZL14add_join_bevelP4pathffffff
f3a:__ZN12Box2DBinder222b2Body_getGravityScaleEP9lua_State
Y_:__Z5qFabsd
WLb:_fullsize_downsample
N$a:__ZN12Box2DBinder224b2Contact_getRestitutionEP9lua_State
t$:__ZNSt3__26__treeINS_12__value_typeIiNS_6vectorIPN9MovieClip5FrameENS_9allocatorIS5_EEEEEENS_19__map_value_compareIiS9_NS_4lessIiEELb1EEENS6_IS9_EEEC2ERKSD_
a4a:__ZN22b2ParticleSystemSpriteD0Ev
$ab:__ZN16PushEventVisitor5visitEP10MouseEvent
Wka:__ZN18ApplicationManager14setOpenProjectEPKc
TIc:__ZN10emscripten8internal6TypeIDIlE3getEv
dTb:_fseek64_file_func
uC:_llvm_log10_f64
oIc:__ZN10emscripten8internal11LightTypeIDINS_11memory_viewIdEEE3getEv
YRb:_ConnectLeftVertex
Idd:__ZNSt3__215basic_streambufIwNS_11char_traitsIwEEEC2ERKS3_
o$b:_lua_newuserdata
R4b:__ZL9math_asinP9lua_State
q4:__ZNKSt3__26vectorINS0_I6Point2IfENS_9allocatorIS2_EEEENS3_IS5_EEE8max_sizeEv
fUb:_luaG_errormsg
w0:__ZNSt3__26__treeINS_12__value_typeIP6SpriteiEENS_19__map_value_compareIS3_S4_NS_4lessIS3_EELb1EEENS_9allocatorIS4_EEE4findIS3_EENS_15__tree_iteratorIS4_PNS_11__tree_nodeIS4_PvEEiEERKT_
kO:__ZN12GBitmapArray17setColorTransformEiffff
dOb:__ZN10ByteBuffer3setEPKci
s7b:__ZN8pystring7isalphaERKNSt3__212basic_stringIcNS0_11char_traitsIcEENS0_9allocatorIcEEEE
Fs:_emscripten_glStencilFuncSeparate
HPb:__ZN11CPVRTString6resizeEjc
UCd:__ZNKSt3__212basic_stringIcNS_11char_traitsIcEENS_9allocatorIcEEEcvNS_17basic_string_viewIcS2_EEEv
tac:_samples_to_storage
PY:__ZNSt3__26__treeIP6ScreenNS_4lessIS2_EENS_9allocatorIS2_EEE16__construct_nodeIJS2_EEENS_10unique_ptrINS_11__tree_nodeIS2_PvEENS_22__tree_node_destructorINS5_ISC_EEEEEEDpOT_
ghc:_ft_black_new
n5b:__ZL9math_tanhP9lua_State
dPc:_readdir_r
bob:_gaudio_SoundGetLength
Iub:_z_inflateCopy
fC:_llvm_cos_f64
NR:__ZN13CompleteEventD0Ev
ZDb:_png_convert_from_time_t
Tp:_emscripten_get_gamepad_status
TLd:__ZNKSt3__212strstreambuf6pcountEv
opc:_TT_RunIns
Cdd:__ZNSt3__215basic_streambufIwNS_11char_traitsIwEEE9sputbackcEw
KUc:_nexttoward
NVd:_pthread_mutex_lock__wrapper
spc:_Current_Ppem_Stretched
sTc:_j0f
mKb:_jpeg_finish_compress
Uta:__ZL10errorAbortPKc
oxd:__ZNSt3__26locale5__imp7installINS_7collateIcEEEEvPT_
B:tempRet0
bZ:__ZN17GridBagLayoutInfoC2Eii
_R:__ZN15MyTexturePacker12packTexturesEPiS0_ib
DPc:_feraiseexcept
Hwb:_png_colorspace_check_xy
Qjb:_gtexture_TempTextureGetName
hPb:__ZN21CPVRTMemoryFileSystem11GetFilenameEi
yrd:__ZNSt3__214__codecvt_utf8IDiED0Ev
fbc:_bad_seek_frame
yUa:__ZN11AudioBinder14Sound_destructEP9lua_State
Twd:__ZNSt3__28messagesIwEC2Ej
GNa:__ZNK12b2WheelJoint14GetMotorTorqueEf
bna:__ZNSt3__26__treeINS_12__value_typeIj7PointerEENS_19__map_value_compareIjS3_NS_4lessIjEELb1EEENS_9allocatorIS3_EEE16__construct_nodeIJRKNS_21piecewise_construct_tENS_5tupleIJOjEEENSF_IJEEEEEENS_10unique_ptrINS_11__tree_nodeIS3_PvEENS_22__tree_node_destructorINS8_ISM_EEEEEEDpOT_
zGc:_set_lfo_phase
qE:_pthread_rwlockattr_destroy
bua:__Z10flushDrivei
ffd:__ZNSt3__213basic_istreamIwNS_11char_traitsIwEEErsERt
m_:__ZL16easeOutInElasticd
efd:__ZNSt3__213basic_istreamIwNS_11char_traitsIwEEErsERs
nma:__ZN6ginput12InputManager11newKeyEventEii
ISa:__ZN15ParticlesBinder8destructEP9lua_State
u1c:___flbf
Fic:_tt_cmap12_char_index
kcc:_check_bom
vQd:__ZNSt3__212basic_stringIcNS_11char_traitsIcEEN10__cxxabiv112_GLOBAL__N_112malloc_allocIcEEE6assignEPKcj
kfd:__ZNSt3__213basic_istreamIwNS_11char_traitsIwEEErsERx
lfd:__ZNSt3__213basic_istreamIwNS_11char_traitsIwEEErsERy
mfd:__ZNSt3__213basic_istreamIwNS_11char_traitsIwEEErsERf
nfd:__ZNSt3__213basic_istreamIwNS_11char_traitsIwEEErsERd
ofd:__ZNSt3__213basic_istreamIwNS_11char_traitsIwEEErsERe
dfd:__ZNSt3__213basic_istreamIwNS_11char_traitsIwEEErsERb
f_c:_policyof
ifd:__ZNSt3__213basic_istreamIwNS_11char_traitsIwEEErsERl
jfd:__ZNSt3__213basic_istreamIwNS_11char_traitsIwEEErsERm
FCa:__ZN12b2BroadPhase11UpdatePairsI16b2ContactManagerEEvPT_
Bf:_SDL_NumJoysticks
gfd:__ZNSt3__213basic_istreamIwNS_11char_traitsIwEEErsERi
iqd:__ZNKSt3__212ctype_bynameIcE10do_tolowerEPcPKc
eQd:__ZN10__cxxabiv112_GLOBAL__N_121parse_unresolved_nameINS0_2DbEEEPKcS4_S4_RT_
KZ:__ZNK9Transform6matrixEv
Xzc:_FT_Glyph_Stroke
TZa:__ZNSt3__216__pad_and_outputIcNS_11char_traitsIcEEEENS_19ostreambuf_iteratorIT_T0_EES6_PKS4_S8_S8_RNS_8ios_baseES4_
abc:_bad_head_read
H2a:__ZN12Box2DBinder215b2Body_SetAngleEP9lua_State
p5a:__ZN15GGAccelerometerD2Ev
afb:_ShiftRows
WSa:__ZN15ParticlesBinder15getParticleSizeEP9lua_State
ePa:__ZZN16b2ParticleSystem33CreateParticlesWithShapesForGroupEPKPK7b2ShapeiRK18b2ParticleGroupDefRK11b2TransformENK14CompositeShape11ComputeMassEP10b2MassDataf
yV:__ZN11ApplicationC2Ev
Xh:___mulsc3
_ka:__ZN18ApplicationManager9lowMemoryEv
A5c:_getgid
pBa:__ZN13b2DynamicTree11CreateProxyERK6b2AABBPv
njb:__ZN9g_private19RenderTargetElementC2Ev
zkc:_tt_sbit_decoder_load_metrics
zFb:_alloc_large
q4b:__ZL12utf8_islowerj
GIc:__ZN10emscripten8internal11LightTypeIDINS_11memory_viewIaEEE3getEv
sYa:__ZN15MovieClipBinder4playEP9lua_State
lva:__Z6b2FreePv
m9a:__ZN12MatrixBinder4getZEP9lua_State
IGd:__ZNSt3__212basic_stringIwNS_11char_traitsIwEENS_9allocatorIwEEE13__get_pointerEv
xNc:_processblock
p4c:_twoway_memmem
SEd:__ZNKSt3__212basic_stringIcNS_11char_traitsIcEENS_9allocatorIcEEE4findERKS5_j
GNb:__ZNSt3__25dequeIP12QueueElementNS_9allocatorIS2_EEE19__add_back_capacityEv
xt:_emscripten_glVertexPointer
XCb:_png_set_read_user_chunk_fn
SOa:__ZN16b2ParticleSystem34CreateParticlesStrokeShapeForGroupEPK7b2ShapeRK18b2ParticleGroupDefRK11b2Transform
SW:__ZNSt3__227__insertion_sort_incompleteIRNS_6__lessIN11Application10ImageScaleES3_EEPS3_EEbT0_S7_T_
kT:__ZN4Font8drawTextEPNSt3__26vectorI12GraphicsBaseNS0_9allocatorIS2_EEEEPKcfffPN8FontBase20TextLayoutParametersEbffRNS9_10TextLayoutE
zlc:_gray_sweep
Afb:__ZNSt3__212__deque_baseINS_12basic_stringIcNS_11char_traitsIcEENS_9allocatorIcEEEENS4_IS6_EEED2Ev
kcb:__ZN5Event15stopPropagationEv
Sy:_glLinkProgram
DNd:__ZN10__cxxabiv112_GLOBAL__N_19destruct_EPv
s1b:__ZL17luaB_setmetatableP9lua_State
hIc:__ZN12_GLOBAL__N_1L20register_memory_viewImEEvPKc
yn:_alcIsExtensionPresent
zLb:_emit_dc_symbol
ZId:__ZNKSt3__212basic_stringIwNS_11char_traitsIwEENS_9allocatorIwEEE7compareEjjNS_17basic_string_viewIwS2_EE
QGc:_set_position
n1:__ZN9MovieClip16setReverseActionEi
qPc:_telldir
gFd:__ZNKSt3__212basic_stringIcNS_11char_traitsIcEENS_9allocatorIcEEE12find_last_ofERKS5_j
Xjd:__ZNSt3__211char_traitsIwE6assignEPwjw
rbd:__ZNSt3__213basic_ostreamIwNS_11char_traitsIwEEED2Ev
nqd:__ZNKSt3__212ctype_bynameIwE10do_scan_isEtPKwS3_
Gmd:__ZNKSt3__210moneypunctIcLb1EE14do_curr_symbolEv
u4b:__ZL12utf8_isalnumj
cmd:__ZNKSt3__28time_putIcNS_19ostreambuf_iteratorIcNS_11char_traitsIcEEEEE6do_putES4_RNS_8ios_baseEcPK2tmcc
VXd:b70
Boc:_TT_Process_Simple_Glyph
Nbb:__ZNSt3__24pairIKiNS_6vectorIP12CppLuaBridgeNS_9allocatorIS4_EEEEED2Ev
Bac:_INT123_decclass
_Bc:_FT_Property_Set
ke:_SDL_FillRect
Pu:_emscripten_set_pointerlockerror_callback
k2b:__ZL8io_linesP9lua_State
Nhc:_Split_Conic
cra:__Z7vibratei
dcb:__ZN11EventBinder6createEP9lua_State
Wcb:__ZN14LuaApplication8setScaleEf
oP:__ZNK11TexturePack8locationEPKcPiS2_S2_S2_S2_S2_S2_S2_
zNc:_setkey
oCa:__ZNK9b2Contact10IsTouchingEv
R8:__ZN18SpriteProxyFactoryD2Ev
sOd:__ZN10__cxxabiv119__pointer_type_infoD0Ev
unb:__ZN14GGAudioManager16ChannelSetVolumeEmf
l4c:_memmem
sta:__ZNSt3__26__treeINS_12__value_typeIm8UiDialogEENS_19__map_value_compareImS3_NS_4lessImEELb1EEENS_9allocatorIS3_EEE5eraseENS_21__tree_const_iteratorIS3_PNS_11__tree_nodeIS3_PvEEiEE
B4c:_strsep
sCd:__ZNSt3__212basic_stringIcNS_11char_traitsIcEENS_9allocatorIcEEEC2ERKS5_
r7a:__ZN12SpriteBinder4setYEP9lua_State
Nr:_emscripten_glGetProgramInfoLog
HQd:__ZN10__cxxabiv112_GLOBAL__N_111string_pairC2ILj16EEERAT__Kc
KTc:_ynf
Dw:_getpwuid
G2b:__ZL7f_flushP9lua_State
kZc:___netlink_enumerate
Usb:_gpath_setAbsolutePathFlags
pT:__ZNSt3__26__treeINS_12__value_typeIiN4Font12TextureGlyphEEENS_19__map_value_compareIiS4_NS_4lessIiEELb1EEENS_9allocatorIS4_EEE4findIiEENS_15__tree_iteratorIS4_PNS_11__tree_nodeIS4_PvEEiEERKT_
OU:__ZN4Font22getTextureGlyphsFormatEPKc
Uya:__ZN11b2GearJoint4DumpEv
btc:_cff_slot_init
$H:FUNCTION_TABLE_viii
gh:___atomic_exchange_8
kdb:_block_to_ptr
oN:__ZN12SplashScreenC2EP11Application
n6c:_setresuid
Nec:_buffy_new
$D:_pthread_mutex_init
lUb:__ZL10singlestepP9lua_State
G7b:__ZN8pystring5rjustERKNSt3__212basic_stringIcNS0_11char_traitsIcEENS0_9allocatorIcEEEEi
djc:_tt_cmap14_get_def_chars
MAb:_png_inflate_read
SH:FUNCTION_TABLE_viid
Rtd:__ZNKSt3__27num_putIcNS_19ostreambuf_iteratorIcNS_11char_traitsIcEEEEE3putES4_RNS_8ios_baseEcb
FX:__ZN9TextFieldD2Ev
vUa:__ZN18RenderTargetBinder4saveEP9lua_State
Xtd:__ZNKSt3__27num_putIcNS_19ostreambuf_iteratorIcNS_11char_traitsIcEEEEE3putES4_RNS_8ios_baseEce
o_c:_dns_parse_callback
bBc:_raccess_guess_linux_netatalk
r0:__ZNSt3__26__treeINS_12__value_typeIiNS_6vectorIPN9MovieClip5FrameENS_9allocatorIS5_EEEEEENS_19__map_value_compareIiS9_NS_4lessIiEELb1EEENS6_IS9_EEE5eraseENS_21__tree_const_iteratorIS9_PNS_11__tree_nodeIS9_PvEEiEE
NUc:___DOUBLE_BITS_337
Std:__ZNKSt3__27num_putIcNS_19ostreambuf_iteratorIcNS_11char_traitsIcEEEEE3putES4_RNS_8ios_baseEcl
Utd:__ZNKSt3__27num_putIcNS_19ostreambuf_iteratorIcNS_11char_traitsIcEEEEE3putES4_RNS_8ios_baseEcm
bpc:_tt_delta_interpolate
Kq:_emscripten_glCullFace
p3a:__ZN12Box2DBinder224b2Body_isSleepingAllowedEP9lua_State
nWd:_emscripten_set_touchcancel_callback__wrapper
zjb:__ZNSt3__26vectorIcNS_9allocatorIcEEE10deallocateEv
zEc:_virt_seteffect
Ttd:__ZNKSt3__27num_putIcNS_19ostreambuf_iteratorIcNS_11char_traitsIcEEEEE3putES4_RNS_8ios_baseEcx
Vtd:__ZNKSt3__27num_putIcNS_19ostreambuf_iteratorIcNS_11char_traitsIcEEEEE3putES4_RNS_8ios_baseEcy
Iic:_tt_cmap12_get_info
uGa:__ZN16b2ParticleSystem18UpdateBodyContactsEv
ygc:_mpg123_supported_decoders
MWd:__emval_run_destructors__wrapper
r3b:__ZL5LcallP9lua_State
VSa:__ZN15ParticlesBinder19getParticlePositionEP9lua_State
r_c:_setsockopt
EQa:__ZNSt3__26__treeINS_12__value_typeIibEENS_19__map_value_compareIiS2_NS_4lessIiEELb1EEENS_9allocatorIS2_EEE12__find_equalIiEERPNS_16__tree_node_baseIPvEERPNS_15__tree_end_nodeISE_EERKT_
gVc:___rem_pio2
ypc:_Move_CVT_Stretched
Jvb:_png_default_error
Beb:__ZN11GReferencedD2Ev
Gfd:__ZNSt3__213basic_istreamIwNS_11char_traitsIwEEE5tellgEv
hLb:_encode_mcu_DC_refine_162
eGa:__ZN7b2World8SolveTOIERK10b2TimeStep
Psb:_gpath_getDefaultDrive
EEa:__ZN16b2ParticleSystem16ReallocateBufferIjEEPT_S2_iiib
eJ:__ZN6TickerD0Ev
rva:__ZN24b2TypedIntrusiveListNodeI14b2TrackedBlockE11GetListNodeEv
P9:__ZN6Sprite15canChildBeAddedEPS_P7GStatus
qo:_eglCreateContext
f0a:__ZN11b2DebugDraw11DrawPolygonEPK6b2Vec2iRK7b2Color
wyb:_png_get_cHRM_XYZ
wBc:_FT_Set_Char_Size
aFb:_jdiv_round_up
oJb:_init_mem_source
Aza:__ZNK12b2WheelJoint10GetAnchorBEv
Tda:__ZN12ShaderEngine8getModelEv
Sja:__ZNSt3__26vectorINS_4pairINS_12basic_stringIcNS_11char_traitsIcEENS_9allocatorIcEEEEfEENS5_IS8_EEE6resizeEj
mFd:__ZNKSt3__212basic_stringIcNS_11char_traitsIcEENS_9allocatorIcEEE17find_first_not_ofENS_17basic_string_viewIcS2_EEj
f3c:_sw_write
XDd:__ZNSt3__212basic_stringIcNS_11char_traitsIcEENS_9allocatorIcEEE6appendEPKc
sZb:__ZL8condjumpP9FuncState6OpCodeiii
onb:__ZN14GGAudioManager11ChannelStopEm
oad:__ZNSt3__29basic_iosIcNS_11char_traitsIcEEED0Ev
Chd:__ZNSt3__210__stdinbufIwE5imbueERKNS_6localeE
GNc:_isblank
uDb:_write_unknown_chunks
y8a:__ZN9Transform8setRefXYEff
MFb:_do_sarray_io
ym:_alGetListeneri
Gxa:__ZN16b2PrismaticJointD0Ev
Xk:__emval_allocateDestructors
BTd:___uremdi3
aEb:_png_write_rows
wm:_alGetListenerf
kUb:_luaC_step
M3:__ZNSt3__26vectorIN8TTBMFont8FontFaceENS_9allocatorIS2_EEE18__construct_at_endEj
Qca:__ZN7Matrix29transposeEv
lvc:_cf2_getFamilyBlues
DD:_pthread_cancel
AT:__ZNSt3__214__split_bufferI12GraphicsBaseRNS_9allocatorIS1_EEEC2EjjS4_
EI:__ZN9Particles6doDrawERK7Matrix4ffff
vcc:_pop_id3_text
Fga:__ZN16ogl2ShaderEngineD2Ev
LMc:_pad_673
MVa:__ZN10MeshBinder28resizeTextureCoordinateArrayEP9lua_State
GV:__ZNSt3__24pairINS_12basic_stringIcNS_11char_traitsIcEENS_9allocatorIcEEEEfED2Ev
ae:_SDL_CreateRGBSurfaceFrom
DGa:__ZN16b2ParticleSystem12SolveTensileERK10b2TimeStep
Rgb:__ZN9g_private12TimerManager9resumeAllEv
xHd:__ZNSt3__212basic_stringIwNS_11char_traitsIwEENS_9allocatorIwEEE6appendESt16initializer_listIwE
pW:__ZN11Application22setHardwareOrientationE11Orientation
H:Math_sin
Pjb:__ZNSt3__26__treeINS_12__value_typeImPN9g_private14TextureManager18TempTextureElementEEENS_19__map_value_compareImS6_NS_4lessImEELb1EEENS_9allocatorIS6_EEE13__lower_boundImEENS_15__tree_iteratorIS6_PNS_11__tree_nodeIS6_PvEEiEERKT_SJ_PNS_15__tree_end_nodeIPNS_16__tree_node_baseISH_EEEE
GSb:___gl_pqSortNewPriorityQ
zhb:__ZNSt3__213__vector_baseIPhNS_9allocatorIS1_EEED2Ev
C5c:_checker
ivc:_cf2_getBlueMetrics
FLc:_creal
Pka:__ZN18ApplicationManager14loadPropertiesEv
TBc:_FT_Add_Module
Eob:_gaudio_BackgroundChannelIsPaused
Pwc:_cff_get_ps_name
AGa:__ZN16b2ParticleSystem12SolveViscousEv
uPc:_creat
IKa:__ZNK15b2ParticleGroup7GetNextEv
uLa:__ZN7b2ColorC2Efff
b8b:__ZNSt3__26vectorINS_12basic_stringIcNS_11char_traitsIcEENS_9allocatorIcEEEENS4_IS6_EEE8allocateEj
LPc:___floatscan
UR:__ZNSt3__213__vector_baseI8RectSizeNS_9allocatorIS1_EEED2Ev
Qud:__ZNSt3__218__time_get_storageIwEC2EPKc
cAb:_png_handle_IEND
QMa:__ZNK15b2FrictionJoint12GetMaxTorqueEv
eM:__ZNSt3__26__treeINS_12__value_typeIi14GStatusElementEENS_19__map_value_compareIiS3_NS_4lessIiEELb1EEENS_9allocatorIS3_EEE16__construct_nodeIJRKNS_21piecewise_construct_tENS_5tupleIJRKiEEENSF_IJEEEEEENS_10unique_ptrINS_11__tree_nodeIS3_PvEENS_22__tree_node_destructorINS8_ISN_EEEEEEDpOT_
ddd:__ZNSt3__215basic_streambufIcNS_11char_traitsIcEEE5sputnEPKci
Zjd:__ZNSt3__29__num_putIwE21__widen_and_group_intEPcS2_S2_PwRS3_S4_RKNS_6localeE
PBb:_png_image_read_init
R_b:__ZL9LoadBlockP9LoadStatePvj
wUa:__ZN11AudioBinderC2EP9lua_State
Uva:__ZNK12b2ChainShape11ComputeAABBEP6b2AABBRK11b2Transformi
Dvb:_z_deflatePrime
_vd:__ZNKSt3__210moneypunctIwLb1EE13positive_signEv
Rub:_z_gzsetparams
gsa:__ZN10emscripten8internal21writeGenericWireTypesERPNS0_15GenericWireTypeE
g9a:__ZN12MatrixBinder9translateEP9lua_State
E1a:__ZN15b2DistanceJoint9SetLengthEf
VF:constNoSmartPtrRawPointerToWireType
Op:_emscripten_get_device_pixel_ratio
l_a:__ZN13TileMapBinder9setRepeatEP9lua_State
NDb:_png_write_pCAL
pDa:__ZN15b2GrowableStackIiLi256EE4PushERKi
Y1c:___pthread_self_598
aWb:__ZL8symbexecPK5Protoii
OJb:_jpeg_fdct_11x11
qr:_emscripten_glFinish
Sd:_SDL_ClearError
MQ:__ZN5GMesh8setColorEijf
Hqb:__ZNKSt3__26vectorI8GGPluginNS_9allocatorIS1_EEE8max_sizeEv
Y:abortOnCannotGrowMemory
Sub:_z_deflateParams
$_a:__ZN10b2JointDefC2Ev
Fbd:__ZNKSt3__29basic_iosIcNS_11char_traitsIcEEE4failEv
znd:__ZNKSt3__217moneypunct_bynameIcLb1EE14do_frac_digitsEv
Lw:_glBindFramebuffer
X8a:__ZN12MatrixBinder5setTxEP9lua_State
xea:__ZNSt3__214__split_bufferIPN12ShaderEngine12DepthStencilERNS_9allocatorIS3_EEED2Ev
jub:_crc32_combine_
K4c:_wcsnlen
Wpd:__ZNKSt3__25ctypeIcE10do_toupperEPcPKc
qna:__ZN14GGAudioManager13systemCleanupEv
MX:__ZN9TextField12setTextColorEj
Pbc:_INT123_ntom_frameoff
YUc:_scalb
bCa:__ZN14b2PolygonShape8SetAsBoxEff
MLb:_forward_DCT
T6c:__ZNSt3__227__insertion_sort_incompleteIRNS_6__lessIaaEEPaEEbT0_S5_T_
uEa:__ZN16b2ParticleSystem16ReallocateBufferIPvEEPT_PNS_21UserOverridableBufferIS2_EEiib
UOb:__ZN17CPVRTResourceFileC2EPKc
Lhb:_gtexture_init
IR:__ZNK6Bitmap14getAnchorPointEPfS0_
pFb:_get_dht
MMa:__ZN18b2FrictionJointDef10InitializeEP6b2BodyS1_RK6b2Vec2
vNb:__ZN12QueueElementD2Ev
Pdb:_tlsf_get_pool
fza:__ZN13b2PulleyJoint24SolveVelocityConstraintsERK12b2SolverData
y$b:_lua_getlocal
FRc:_ngettext
ypb:__ZNSt3__26__treeINS_12__value_typeIi8FileInfoEENS_19__map_value_compareIiS3_NS_4lessIiEELb1EEENS_9allocatorIS3_EEE16__insert_node_atEPNS_15__tree_end_nodeIPNS_16__tree_node_baseIPvEEEERSF_SF_
Bu:_emscripten_set_keyup_callback
_xb:_png_get_compression_type
Mv:_emscripten_worker_respond_provisionally
ASc:_modff
LIa:__ZNSt3__213__upper_boundIRPFbRKN16b2ParticleSystem4PairES4_EPS2_S2_EET0_S9_S9_RKT1_T_
ngc:_mpg123_add_string
Kxc:_psh_hint_table_activate_mask
AUc:_modfl
Job:_gaudio_BackgroundChannelIsLooping
eJa:__ZNK16b2ParticleSystem24GetParticleContactFilterEv
Izc:_FT_Stroker_CubicTo
OXb:_luaX_setinput
LVc:_a_ctz_l
m1a:__ZN12Box2DBinder228b2MouseJoint_setDampingRatioEP9lua_State
I8a:__ZL19createChildrenTableP9lua_State
a2a:__ZN12Box2DBinder233b2RevoluteJoint_setMaxMotorTorqueEP9lua_State
d2a:__ZN12Box2DBinder215b2Joint_getTypeEP9lua_State
qn:_alcDestroyContext
wTa:__ZN11PixelBinder15getTextureScaleEP9lua_State
zO:__ZNSt3__23mapINS_12basic_stringIcNS_11char_traitsIcEENS_9allocatorIcEEEEiNS_4lessIS6_EENS4_INS_4pairIKS6_iEEEEED2Ev
HDb:_png_write_info
Ryb:_png_get_unknown_chunks
Hj:___syscall34
Kj:___syscall36
Cca:__ZNK9Transform5skewYEv
Bj:___syscall33
F9:__ZNSt3__214__split_bufferIPNS_4pairIP6SpritebEERNS_9allocatorIS5_EEED2Ev
OLc:_csqrtl
Mj:___syscall39
Lj:___syscall38
b0c:_tre_stack_num_objects
xn:_alcGetString
GTd:_testSetjmp
Ata:__GLOBAL__sub_I_ggeolocation_js_cpp
Cda:__ZN13ShaderProgramD2Ev
cO:__ZN12GBitmapArrayD0Ev
N0a:__ZN12Box2DBinder232b2WheelJoint_getJointTranslationEP9lua_State
Kmc:_af_shaper_get_cluster
OKb:_jinit_c_master_control
v$b:_lua_gethookmask
TGa:__ZN11b2TransformC2ERK6b2Vec2RK5b2Rot
EPa:__ZN16b2ParticleSystem17SetStuckThresholdEi
b4a:__ZN22b2ParticleSystemSprite6doDrawERK7Matrix4ffff
Wpc:_Ins_JMPR
Ozd:__ZNSt3__26locale5__imp11make_globalEv
XF:craftEmvalAllocator
Ml:_abs
eL:__ZNSt3__214__split_bufferIPP6SpriteRNS_9allocatorIS3_EEE10push_frontERKS3_
ybd:__ZNSt3__214basic_iostreamIcNS_11char_traitsIcEEED2Ev
mUd:mftCall_diii
KHc:__ZN53EmscriptenBindingInitializer_native_and_builtin_typesC2Ev
Eoc:_FT_List_Find
INa:__ZN6b2RopeD2Ev
MCc:_ft_gzip_file_init
yld:__ZNKSt3__215time_get_bynameIcNS_19istreambuf_iteratorIcNS_11char_traitsIcEEEEE3__rEv
n6b:__ZL8getfieldP9lua_StatePKci
smb:__ZN14GGSoundManager7ChannelC2EmPNS_5SoundEP16GGSoundInterface
w6b:__ZL4maxnP9lua_State
dEb:_png_write_finish_row
R0c:_futimens
sMa:__ZN12b2MouseJoint15SetDampingRatioEf
k4a:__ZN17b2RayCastCallbackD2Ev
ZPa:__ZNSt3__26__treeINS_12__value_typeIP7ClosureP11ProfileInfoEENS_19__map_value_compareIS3_S6_NS_4lessIS3_EELb1EEENS_9allocatorIS6_EEE7destroyEPNS_11__tree_nodeIS6_PvEE
ho:_difftime
wwd:__ZNSt3__217moneypunct_bynameIwLb1EEC2EPKcj
c3a:__ZN12Box2DBinder214b2Body_getMassEP9lua_State
M7:__ZL6appendRNSt3__26vectorIcNS_9allocatorIcEEEEPKvj
Vec:_INT123_read_frame
FDb:_png_deflate_claim
Sla:__ZNSt3__26__treeINS_12__value_typeIjNS_6vectorIP17ginput_TouchEventNS_9allocatorIS4_EEEEEENS_19__map_value_compareIjS8_NS_4lessIjEELb1EEENS5_IS8_EEE16__insert_node_atEPNS_15__tree_end_nodeIPNS_16__tree_node_baseIPvEEEERSJ_SJ_
oD:_posix_spawn_file_actions_destroy
nEd:__ZNSt3__212basic_stringIcNS_11char_traitsIcEENS_9allocatorIcEEE6insertEjRKS5_
Kt:_emscripten_idb_delete
N6c:__ZNSt3__227__insertion_sort_incompleteIRNS_6__lessIwwEEPwEEbT0_S5_T_
fAc:_hash_str_lookup
Jdd:__ZNSt3__215basic_streambufIwNS_11char_traitsIwEEEaSERKS3_
Eod:__ZNKSt3__28messagesIcE7do_openERKNS_12basic_stringIcNS_11char_traitsIcEENS_9allocatorIcEEEERKNS_6localeE
qib:__ZNSt3__26__treeINS_12__value_typeINS_6vectorIcNS_9allocatorIcEEEEPN9g_private14TextureElementEEENS_19__map_value_compareIS5_S9_NS_4lessIS5_EELb1EEENS3_IS9_EEE4findIS5_EENS_15__tree_iteratorIS9_PNS_11__tree_nodeIS9_PvEEiEERKT_
rDd:__ZNSt3__212basic_stringIcNS_11char_traitsIcEENS_9allocatorIcEEE4rendEv
jRd:__ZN10__cxxabiv112_GLOBAL__N_111string_pairC2ILj22EEERAT__Kc
Ena:__ZN14GGSoundManager17interfacesCleanupEv
C5:__ZN5Timer4tickEv
M$c:_strcat
OIb:_output_value
XT:__ZN4Font8FontInfoD2Ev
Aw:_getprotoent
sjb:__ZNSt3__26__treeINS_12__value_typeImPN9g_private19RenderTargetElementEEENS_19__map_value_compareImS5_NS_4lessImEELb1EEENS_9allocatorIS5_EEE16__insert_node_atEPNS_15__tree_end_nodeIPNS_16__tree_node_baseIPvEEEERSH_SH_
egb:__ZN9g_private9StopWatch5pauseEv
A_a:__ZN12Box2DBinder222b2CircleShape_destructEP9lua_State
$Rd:__ZSt15set_new_handlerPFvvE
VIc:__ZN10emscripten8internal6TypeIDIjE3getEv
wOa:__ZN16b2ParticleSystem26GetParticleHandleFromIndexEi
vja:__ZN14NetworkManager13printToServerEPKci
mq:_emscripten_glBindTexture
zcc:_I_step_one
uTd:_llvm_cttz_i32
Pk:__emscripten_atomic_fetch_and_or_u64
aB:_glfwSetWindowTitle
rEa:__ZN16b2ParticleSystem16ReallocateBufferIfEEPT_S2_iiib
iQa:__ZN8MemCache7GetSizeEPv
E9:__ZNSt3__214__split_bufferIPNS_4pairIP6SpritebEERNS_9allocatorIS5_EEE18__construct_at_endINS_13move_iteratorIPS5_EEEENS_9enable_ifIXsr21__is_forward_iteratorIT_EE5valueEvE4typeESF_SF_
Yyd:__ZNSt3__26locale5__imp7installINS_15time_get_bynameIcNS_19istreambuf_iteratorIcNS_11char_traitsIcEEEEEEEEvPT_
L$c:_sort
Aka:__ZN12luaExceptionD2Ev
nIb:_h2v1_merged_upsample
eDd:__ZNSt3__212basic_stringIcNS_11char_traitsIcEENS_9allocatorIcEEE15__set_long_sizeEj
dBd:__ZdlPvj
T0b:__ZL10luaB_yieldP9lua_State
xNd:__ZN10__cxxabiv120__si_class_type_infoD0Ev
mE:_pthread_rwlock_tryrdlock
kk:___wait
Tgd:__ZNSt3__214basic_iostreamIcNS_11char_traitsIcEEEC2EOS3_
ctd:__ZNSt3__220__codecvt_utf8_utf16IDsED0Ev
$$c:_regfree
vUd:mftCall_iiiii
a3:__ZNK8TTBMFont7getTypeEv
Ldd:__ZNKSt3__215basic_streambufIwNS_11char_traitsIwEEE5ebackEv
AJb:_format_message
Tia:__ZN6Path2D12setLineColorEjf
Vqc:_Ins_NOT
esb:_g_putc
ECa:__ZN16b2ContactManager15FindNewContactsEv
pWb:__ZL11currentlineP9lua_StateP8CallInfo
Tnb:__ZN14GGAudioManager26BackgroundChannelIsLoopingEm
yb:ftCall_viddid
Jxc:_psh_hint_table_done
R6:__ZNSt3__26__treeIP5TimerNS_4lessIS2_EENS_9allocatorIS2_EEE12__find_equalIS2_EERPNS_16__tree_node_baseIPvEERPNS_15__tree_end_nodeISC_EERKT_
t8a:__ZN6Sprite10setVisibleEb
f6b:__ZL10os_executeP9lua_State
F9b:__ZN6snappy11RawCompressEPKcjPcPj
Ab:ftCall_viddii
Qvc:_cff_builder_add_contour
_lc:_FT_Outline_Get_Orientation
Cma:_ginput_addCallback
rlb:__ZN19gevent_CallbackList14removeCallbackEPFviPvS0_ES0_
op:_emscripten_autodebug_float
c5a:__ZN9b2WorldEDD2Ev
Bzb:_png_do_expand
NQb:_RenderMaximumFaceGroup
nca:__ZNK6Sprite8rotationEv
wjd:__ZNSt3__27num_putIcNS_19ostreambuf_iteratorIcNS_11char_traitsIcEEEEED0Ev
lWb:_luaH_setstr
Wn:_clearenv
o9b:__ZN6snappyL23IncrementalCopyFastPathEPKcPci
Cnb:__ZN14GGAudioManager18ChannelAddCallbackEmPFviPvS0_ES0_
k4c:_memccpy
t9a:__ZN12MatrixBinder4setXEP9lua_State
BMb:_std_huff_tables
gvc:_cf2_getStdHW
AWc:___getopt_long_core
$hd:__ZNSt3__27num_getIcNS_19istreambuf_iteratorIcNS_11char_traitsIcEEEEED2Ev
FAb:_png_set_pCAL
Gac:_bc_prepare
qO:__ZN13TextFieldBase9getLayoutEv
ehd:__GLOBAL__I_000101
xba:__ZN6Sprite3setEifP7GStatus
T9a:__ZN11TimerBinder8setDelayEP9lua_State
EUb:_luaC_linkupval
dRb:_noBegin
EA:_glfwInit
rLd:__ZNSt3__210istrstreamD0Ev
yBc:_FT_Get_Kerning
qsa:__ZN10emscripten8internal20writeGenericWireTypeIbEEvRPNS0_15GenericWireTypeET_
bSd:___cxa_can_catch
nXb:_lua_rawget
ev:_emscripten_sleep
Pfb:__Z14md5_frombufferPKhjPh
BDb:_png_check_keyword
Bs:_emscripten_glScissor
sHb:_jpeg_idct_8x4
Kud:__ZNSt3__215time_get_bynameIcNS_19istreambuf_iteratorIcNS_11char_traitsIcEEEEEC2ERKNS_12basic_stringIcS3_NS_9allocatorIcEEEEj
R1b:__ZL9getthreadP9lua_StatePi_1892
eO:__ZN12GBitmapArray6doDrawERK7Matrix4ffff
O6:__ZNSt3__26__treeINS_12__value_typeIdNS_6vectorIP5TimerNS_9allocatorIS4_EEEEEENS_19__map_value_compareIdS8_NS_4lessIdEELb1EEENS5_IS8_EEE16__construct_nodeIJRKNS_21piecewise_construct_tENS_5tupleIJOdEEENSJ_IJEEEEEENS_10unique_ptrINS_11__tree_nodeIS8_PvEENS_22__tree_node_destructorINS5_ISQ_EEEEEEDpOT_
zLa:__ZNK16b2ParticleSystem17GetPositionBufferEv
B5b:__ZL7str_repP9lua_State
qac:_mpg123_fmt_support
q3:__ZNSt3__26vectorIP11TextureDataNS_9allocatorIS2_EEE26__swap_out_circular_bufferERNS_14__split_bufferIS2_RS4_EE
Dxd:__ZNSt3__212_GLOBAL__N_14makeINS_8numpunctIcEEjEERT_T0_
ooc:_TT_Load_Glyph
q$c:_savestate
yJc:_bulk_free
cf:_SDL_JoystickGetBall
XJb:_jpeg_fdct_10x5
F5b:__ZL8posrelatij
eV:__ZL8nextpow2j
zja:__ZNSt3__26__treeINS_12__value_typeINS_12basic_stringIcNS_11char_traitsIcEENS_9allocatorIcEEEENS_6vectorIhNS5_IhEEEEEENS_19__map_value_compareIS7_SB_NS_4lessIS7_EELb1EEENS5_ISB_EEED2Ev
Tzc:_FT_Stroker_ExportBorder
msa:__ZN10emscripten8internal6TypeIDIbE3getEv
gDc:_convert_delta
gmd:__ZNSt3__28time_putIwNS_19ostreambuf_iteratorIwNS_11char_traitsIwEEEEED2Ev
S0b:__ZL11luaB_cowrapP9lua_State
Rea:__ZN13ShaderProgram14LoadShaderFileEPKcS1_Pl
TIa:__ZNSt3__222__merge_move_constructIRPFbRKN16b2ParticleSystem4PairES4_EPS2_S8_EEvT0_S9_T1_SA_PNS_15iterator_traitsIS9_E10value_typeET_
zr:_emscripten_glGenTextures
pb:invoke_vidddddddd
svb:_z_gzseek
lz:_glTexParameterfv
Uca:__ZN7Matrix314getDeterminantEv
bMd:__ZNSt3__223__system_error_categoryD0Ev
Icb:__ZNSt3__25dequeIN14LuaApplication12AsyncLuaTaskENS_9allocatorIS2_EEE9pop_frontEv
bbc:_bad_head_shift
Pyc:_FT_Bitmap_Embolden
_Nd:__ZNSt13runtime_errorD2Ev
Ys:_emscripten_glUniform3f
P$:__ZNSt3__26vectorIPN9MovieClip5FrameENS_9allocatorIS3_EEE21__push_back_slow_pathIS3_EEvOT_
WTb:_unzGetOffset2
cHa:__ZL10computeTagff
n_a:__ZN7TileMap9setRepeatEbb
KEd:__ZNSt3__212basic_stringIcNS_11char_traitsIcEENS_9allocatorIcEEE7replaceENS_11__wrap_iterIPKcEES9_jc
Yab:__ZN12EventVisitorC2Ev
msb:_g_tmpfile
oNa:__ZN11b2GearJoint8SetRatioEf
PVd:_pthread_mutex_destroy__wrapper
ZPb:__ZNK11CPVRTString6lengthEv
o6a:__ZN12BitmapBinder10setTextureEP9lua_State
aa:ftCall_d
UCa:__ZN16b2PolygonContact7DestroyEP9b2ContactP16b2BlockAllocator
Bvb:_z_deflateSetHeader
ua:ftCall_i
XIc:__ZN10emscripten8internal6TypeIDIiE3getEv
Ahb:__ZNSt3__26vectorIPhNS_9allocatorIS1_EEE8allocateEj
al:__emval_decref
H9a:__ZN12MatrixBinder8getScaleEP9lua_State
iTc:___FLOAT_BITS_274
LNb:__ZNSt3__214__split_bufferIPP12QueueElementNS_9allocatorIS3_EEE10push_frontEOS3_
ab:ftCall_v
aTc:___FLOAT_BITS_270
GE:_res_query
Grc:_Ins_PUSHW
q_b:__ZL9singlevarP8LexStateP7expdesc
OQb:_RenderLonelyTriangles
XVa:__ZN10MeshBinder8getColorEP9lua_State
hVb:_luaD_poscall
GXc:___ptsname_r
Cta:_ggeolocation_init
jWa:__ZN21TextInputDialogBinderC2EP9lua_State
Dx:_glDrawArraysInstancedARB
TAd:__ZNSt3__221recursive_timed_mutexC2Ev
qGa:__ZN16b2ParticleSystem14SolveLifetimesERK10b2TimeStep
rBd:__ZSt17__throw_bad_allocv
l4a:__ZN17b2RayCastCallbackC2Ev
xP:__ZNK8Matrix2D14transformPointEffPfS0_
Jha:__ZL15add_stroke_lineP4pathdddd
wRc:_strncasecmp_l
iO:__ZN12GBitmapArray11setRotationEif
I2b:__ZL6f_seekP9lua_State
PV:__ZN11Application10enterFrameEv
xx:_glDetachShader
Bgb:__ZNSt3__26__treeINS_12__value_typeIdNS_6vectorIiNS_9allocatorIiEEEEEENS_19__map_value_compareIdS6_NS_4lessIdEELb1EEENS3_IS6_EEE16__insert_node_atEPNS_15__tree_end_nodeIPNS_16__tree_node_baseIPvEEEERSH_SH_
yec:_generic_tell
m:STACK_MAX
bHd:__ZNSt3__212basic_stringIwNS_11char_traitsIwEENS_9allocatorIwEEE6resizeEj
PGa:__ZN16b2ParticleSystem14SolveCollisionERK10b2TimeStep
fTc:___FLOAT_BITS_272
yYc:_c16rtomb
Yqa:___cxx_global_var_init_570
RE:_setitimer
Qob:_gaudio_WavOpen
YBc:_ft_remove_renderer
D4:__ZNSt3__24listI12GraphicsBaseNS_9allocatorIS1_EEE8pop_backEv
zid:__ZNSt3__29__num_getIcE19__stage2_float_prepERNS_8ios_baseEPcRcS5_
kma:_ginputp_keyDown
Dec:_feed_skip_bytes
xYc:___pthread_self_433
m1c:_vasprintf
UHa:__ZN16b2VoronoiDiagram12AddGeneratorERK6b2Vec2ib
qEb:_png_write_image
tKc:_csqrt
EJ:__ZNSt3__214__split_bufferIN9Particles5ColorERNS_9allocatorIS2_EEEC2EjjS5_
l3:__ZNSt3__23mapIiN8TTBMFont12TextureGlyphENS_4lessIiEENS_9allocatorINS_4pairIKiS2_EEEEEixERS7_
d6a:__ZN11StageBinder19setClearColorBufferEP9lua_State
OSa:__ZN15ParticlesBinder15setParticleSizeEP9lua_State
JQc:___pthread_self_438
uh:___cxa_allocate_exception
kcd:__ZNSt3__29basic_iosIcNS_11char_traitsIcEEE4moveEOS3_
QSa:__ZN15ParticlesBinder16setParticleDecayEP9lua_State
B5a:__ZN15TextFieldBinder13getLineHeightEP9lua_State
HZc:_if_freenameindex
QQ:__ZNKSt3__26vectorIN5GMesh5ColorENS_9allocatorIS2_EEE8max_sizeEv
t6a:__ZN16BitmapDataBinder6createEP9lua_State
_na:__ZN12_GLOBAL__N_121GGStreamOpenALManager18ChannelGetStreamIdEm
bmc:_af_glyph_hints_rescale
Emc:_af_latin_metrics_init_widths
cMb:_rgb_ycc_start
GTa:__ZN5Pixel9setHeightEf
qUc:_logbf
XVd:b13
bJc:__ZN10emscripten8internal6TypeIDIhE3getEv
p_b:_luaK_fixline
vsc:_tt_face_load_prep
uPa:__ZN16b2ParticleSystem17SetVelocityBufferEP6b2Vec2i
Z0:__ZNSt3__214__split_bufferIP8SlotBaseRNS_9allocatorIS2_EEEC2EjjS5_
TCd:__ZNKSt3__212basic_stringIcNS_11char_traitsIcEENS_9allocatorIcEEE14__get_long_capEv
rYa:__ZN15MovieClipBinder8destructEP9lua_State
Gqd:__ZNSt3__28numpunctIwED0Ev
Soa:__ZNSt3__26__treeIPN12_GLOBAL__N_121GGStreamOpenALManager7ChannelENS_4lessIS4_EENS_9allocatorIS4_EEE13__lower_boundIS4_EENS_15__tree_iteratorIS4_PNS_11__tree_nodeIS4_PvEEiEERKT_SF_PNS_15__tree_end_nodeIPNS_16__tree_node_baseISD_EEEE
CWa:__ZN17GGTextInputDialogC2EP9lua_StatePKcS3_S3_S3_S3_S3_
G3:__ZN8TTBMFont8FontInfoC2Ev
_tb:_z_gzclose
W8b:__ZN6snappy18SnappyDecompressor22ReadUncompressedLengthEPj
XOc:_dirfd
ELa:__ZN9b2Fixture7GetNextEv
YHd:__ZNSt3__212basic_stringIwNS_11char_traitsIwEENS_9allocatorIwEEE7replaceEjjRKS5_
Rfd:__ZNSt3__213basic_ostreamIcNS_11char_traitsIcEEElsEPFRNS_9basic_iosIcS2_EES6_E
PFa:__ZN8b2IslandD2Ev
XUb:_luaV_settable
tHc:_hio_size
$ub:_gz_avail
Tzb:_png_do_read_invert_alpha
Y_c:_cleanup_525
sAb:_png_handle_pCAL
Unb:__ZN14GGAudioManager28BackgroundChannelAddCallbackEmPFviPvS0_ES0_
gqd:__ZNKSt3__212ctype_bynameIcE10do_toupperEPcPKc
B$c:_fnmatch_internal
iTa:__ZN11PixelBinderC2EP9lua_State
oNd:__ZNK10__cxxabiv117__class_type_info9can_catchEPKNS_16__shim_type_infoERPv
qGb:_jinit_huff_decoder
kDc:_pattern_tracks_alloc
M5b:__ZL11end_captureP10MatchStatePKcS2_
T8b:__ZN6snappy18SnappyDecompressor9RefillTagEv
nx:_glDeleteQueriesEXT
tdc:_INT123_synth_ntom
C0:__ZNKSt3__26__treeINS_12__value_typeIP6SpriteiEENS_19__map_value_compareIS3_S4_NS_4lessIS3_EELb1EEENS_9allocatorIS4_EEE10__root_ptrEv
$I:__ZN9ParticlesC2EP11Application
MSa:__ZN15ParticlesBinder16setParticleColorEP9lua_State
Zla:__ZNSt3__214__split_bufferIP17ginput_MouseEventRNS_9allocatorIS2_EEEC2EjjS5_
LKa:__ZN15b2ParticleColoraSERKS_
aad:__ZNSt3__27promiseIvEC2Ev
co:_cosf
c9:__ZN6Sprite14getLayoutStateEv
i9:__ZN6Sprite4drawERK7Matrix4ffff
JWd:_glDeleteShader__wrapper
eo:_cosl
mEa:__ZN16b2ParticleSystem23ReallocateHandleBuffersEi
Qfd:__ZNSt3__213basic_ostreamIcNS_11char_traitsIcEEElsEPFRS3_S4_E
hpd:__ZNKSt3__27codecvtIcc11__mbstate_tE9do_lengthERS1_PKcS5_j
Mm:_alListener3f
dJc:__ZN10emscripten8internal6TypeIDIaE3getEv
OG:setDelayFunction
mkc:_tt_name_entry_ascii_from_utf16
Cmc:_af_latin_metrics_scale_dim
Nm:_alListener3i
Snb:__ZN14GGAudioManager27BackgroundChannelSetLoopingEmb
RBd:__ZNSt3__219__shared_mutex_base11lock_sharedEv
Wba:__ZN14ColorTransform16setRedMultiplierEf
mTc:_ilogbl
trd:__ZNKSt3__214__codecvt_utf8IDsE9do_lengthER11__mbstate_tPKcS5_j
Oia:__ZL14kh_resize_pathP9kh_path_tj
lBd:__ZdlPvSt11align_val_t
mpa:__ZNSt3__26__treeIPN12_GLOBAL__N_121GGStreamOpenALManager7ChannelENS_4lessIS4_EENS_9allocatorIS4_EEE7destroyEPNS_11__tree_nodeIS4_PvEE
ywa:__ZN9b2ContactD2Ev
Yw:_glClear
IYc:_wcsnrtombs
d0a:__ZN11b2DebugDrawD0Ev
qaa:__ZN6Sprite13setChildIndexEPS_iP7GStatus
og:_SDL_WM_SetCaption
Kid:__ZNSt3__227__num_get_unsigned_integralIyEET_PKcS3_Rji
bIa:__ZN16b2VoronoiDiagramD2Ev
Iod:__ZNSt3__28messagesIwED0Ev
IK:__ZNSt3__25dequeIP6SpriteNS_9allocatorIS2_EEE8pop_backEv
dmc:_af_latin_metrics_scale
aKd:__ZNSt3__24stodERKNS_12basic_stringIwNS_11char_traitsIwEENS_9allocatorIwEEEEPj
hoa:__ZN16GGSoundInterface23ChannelSetWorldPositionEmffffff
wed:__ZNSt3__213basic_istreamIcNS_11char_traitsIcEEErsERPv
Gyc:_FT_Outline_Get_BBox
AZ:__ZNSt3__26vectorIdNS_9allocatorIdEEE10deallocateEv
Awa:__ZN9b2Fixture8GetShapeEv
Avd:__ZNKSt3__210moneypunctIcLb0EE10neg_formatEv
gMb:_rgb_ycc_convert
arb:__ZN6GProxyC2ENS_5GTypeE
_Pc:_catopen
lsd:__ZNSt3__215__codecvt_utf16IDsLb1EED0Ev
Xgd:__ZNSt3__28ios_base7failureC2ERKNS_12basic_stringIcNS_11char_traitsIcEENS_9allocatorIcEEEERKNS_10error_codeE
BS:__ZNK15MaxRectsBinPack34FindPositionForNewNodeContactPointEiiRi
iLa:__ZNSt3__218__insertion_sort_3IRN12_GLOBAL__N_124ExpirationTimeComparatorEPiEEvT0_S5_T_
tQb:__Z20PVRTTextureLoadTiledPhjjPKhjjjb
vE:_pthread_setspecific
kLa:__ZNK7b2World14QueryShapeAABBEP15b2QueryCallbackRK7b2ShapeRK11b2Transform
kzb:_png_push_read_IDAT
ova:__ZN14b2TrackedBlock8AllocateEj
_B:_llvm_atomic_load_add_i32_p0i32
EE:_rectangleColor
Wo:_emscripten_alcResetDeviceSOFT
Lab:__ZN15EventDispatcher19removeEventListenerI8LuaEvent12CppLuaBridgeS1_EEvRK9EventTypeIT_EPT0_MS8_FvPT1_E
Shc:_ft_multo64
kg:_SDL_VideoModeOK
Zza:__ZN10b2FreeList8AllocateEv
p_a:__ZN9DibBinder6createEP9lua_State
X2c:_rename
Zdc:_INT123_synth_4to1_s32_mono
gzb:_png_push_restore_buffer
kLd:__ZNSt3__212strstreambufD0Ev
Zpb:__ZNSt3__26__treeINS_12__value_typeIPKciEENS_19__map_value_compareIS3_S4_N8StringId5ltstrELb1EEENS_9allocatorIS4_EEED2Ev
Lfd:__ZNSt3__213basic_ostreamIcNS_11char_traitsIcEEEC2EOS3_
fBd:__ZdaPvRKSt9nothrow_t
ZS:__ZNSt3__214__split_bufferIN8FontBase11ChunkLayoutERNS_9allocatorIS2_EEEC2EjjS5_
Ur:_emscripten_glGetRenderbufferParameteriv
Xnd:__ZNKSt3__217moneypunct_bynameIwLb1EE13do_neg_formatEv
vMb:_jpeg_add_quant_table
CL:__ZN5Stage13touchesCancelEP17ginput_TouchEventffff
iIa:__ZNSt3__213__lower_boundIRPFbRKN16b2ParticleSystem5TriadES4_EPS2_S2_EET0_S9_S9_RKT1_T_
gGc:_read_event_it
PK:__ZNKSt3__26vectorIP6SpriteNS_9allocatorIS2_EEE8max_sizeEv
Tdd:__ZNSt3__215basic_streambufIwNS_11char_traitsIwEEE5pbumpEi
YZa:__ZNK14LuaApplication16getLogicalHeightEv
y8:__ZNSt3__26__treeIP6SpriteNS_4lessIS2_EENS_9allocatorIS2_EEE4findIS2_EENS_15__tree_iteratorIS2_PNS_11__tree_nodeIS2_PvEEiEERKT_
GXa:__ZN15UrlLoaderBinder8destructEP9lua_State
Eac:_INT123_init_id3
wrc:_Ins_IDEF
bv:_emscripten_set_webglcontextlost_callback
WKc:_ccos
pXb:_lua_createtable
xkd:__ZNKSt3__28time_getIcNS_19istreambuf_iteratorIcNS_11char_traitsIcEEEEE18__get_day_year_numERiRS4_S4_RjRKNS_5ctypeIcEE
Wpa:__ZN21GGSampleOpenALManager16ChannelIsLoopingEm
hcd:__ZNSt3__29basic_iosIcNS_11char_traitsIcEEEC2Ev
wsd:__ZNSt3__215__codecvt_utf16IDiLb0EED0Ev
YRd:__ZSt14get_unexpectedv
b_b:_lua_concat
Gwb:_png_colorspace_set_chromaticities
iIc:__ZN12_GLOBAL__N_1L20register_memory_viewIfEEvPKc
J9a:__ZN11TimerBinder6createEP9lua_State
zzd:__ZNSt3__26locale5__imp12install_fromINS_9money_putIcNS_19ostreambuf_iteratorIcNS_11char_traitsIcEEEEEEEEvRKS1_
BTa:__ZN5Pixel11hasGradientEv
qxa:__ZN12b2MouseJoint24SolveVelocityConstraintsERK12b2SolverData
G8:__ZN6Sprite16clearLayoutStateEv
Haa:__ZNSt3__214__split_bufferIP7Matrix4NS_9allocatorIS2_EEED2Ev
vgd:__ZNSt3__213basic_ostreamIwNS_11char_traitsIwEEElsEPFRNS_8ios_baseES5_E
ZFb:_jpeg_has_multiple_scans
DXd:b58
EXd:b59
Uha:__ZL20create_fill_geometryP4path
Bd:_Mix_QuickLoad_RAW
Vk:__emscripten_traverse_stack
tXd:b52
y5:__Z14glSetBlendFuncN12ShaderEngine11BlendFactorES0_
rXd:b50
sXd:b51
BXd:b56
CXd:b57
vXd:b54
AXd:b55
XQc:_iswblank_l
mYb:__ZL12block_followi
k6a:__ZN12BitmapBinder6createEP9lua_State
Vja:__ZN18ApplicationManager20setProjectPropertiesERK17ProjectProperties
oJa:__ZN12_GLOBAL__N_117FixedSetAllocator9GetBufferEv
Tdc:_INT123_synth_2to1_8bit_mono
vSa:__ZN12ScreenBinder10setContentEP9lua_State
FBd:__ZNSt3__220__get_collation_nameEPKc
VOd:__ZN10__cxxabiv112_GLOBAL__N_18demangleINS0_2DbEEEvPKcS4_RT_Ri
QPd:__ZN10__cxxabiv112_GLOBAL__N_114parse_decltypeINS0_2DbEEEPKcS4_S4_RT_
qTc:_qzero
RI:__ZNSt3__213__vector_baseINS_12basic_stringIcNS_11char_traitsIcEENS_9allocatorIcEEEENS4_IS6_EEED2Ev
eXd:_glDetachShader__wrapper
uUa:__ZN18RenderTargetBinder9getPixelsEP9lua_State
thb:__ZL14write_png_dataP14png_struct_defPhj
w7c:__ZNSt3__26__sortIRNS_6__lessIllEEPlEEvT0_S5_T_
qJ:__ZNSt3__214__split_bufferINS_12basic_stringIcNS_11char_traitsIcEENS_9allocatorIcEEEERNS4_IS6_EEEC2EjjS8_
llc:_inflate_codes
bgc:_mpg123_feedseek
Y0c:_mknod
Mzd:__ZNSt3__26locale5__imp12install_fromINS_8messagesIwEEEEvRKS1_
hja:_comma
bbb:__ZN16PushEventVisitor5visitEP10TimerEvent
ANa:__ZNK12b2WheelJoint19GetJointTranslationEv
G$:__ZNSt3__26vectorI9ParameterNS_9allocatorIS1_EEEC2ERKS4_
NCa:__ZN9b2Contact19InitializeRegistersEv
cUd:_llvm_rint_f64
Ws:_emscripten_glUniform2i
Us:_emscripten_glUniform2f
lsa:__ZN10emscripten8internal12WireTypePackIJbEEC2EOb
pCa:__ZN9b2Contact7DestroyEPS_P16b2BlockAllocator
EAb:_png_set_sCAL_s
yMb:_jpeg_quality_scaling
cX:__ZNK11Application14getImageSuffixEPKcPf
Hl:__restoreHiddenElements
p5:__ZNSt3__214__split_bufferIP9BlendFuncRNS_9allocatorIS2_EEEC2EjjS5_
Psd:__ZNKSt3__220__codecvt_utf8_utf16IwE10do_unshiftER11__mbstate_tPcS4_RS4_
MHa:__ZN16b2ParticleSystem18ComparePairIndicesERKNS_4PairES2_
FXa:__ZN15UrlLoaderBinder6createEP9lua_State
IIc:__ZN10emscripten8internal11LightTypeIDINS_11memory_viewIcEEE3getEv
uOd:__ZNK10__cxxabiv117__pbase_type_info9can_catchEPKNS_16__shim_type_infoERPv
O3c:_strtof
x3c:_strtod
VHa:__ZZN16b2ParticleSystem20UpdatePairsAndTriadsEiiRKNS_16ConnectionFilterEEN20UpdateTriadsCallbackC2EPS_PS1_
nwc:_cff_cmap_encoding_done
m7a:__ZN12SpriteBinder9getScaleYEP9lua_State
gKc:_strtol
mJc:_realloc
MNb:__ZNSt3__214__split_bufferIPP12QueueElementRNS_9allocatorIS3_EEE9push_backEOS3_
hba:__ZNSt3__214__split_bufferIP7Matrix4NS_9allocatorIS2_EEE10push_frontEOS2_
LZb:_luaX_lookahead
$bb:__ZNSt3__214__split_bufferIP12CppLuaBridgeRNS_9allocatorIS2_EEED2Ev
ye:_SDL_GetAppState
PD:_pthread_condattr_setclock
Pdd:__ZNSt3__215basic_streambufIwNS_11char_traitsIwEEE4setgEPwS4_S4_
y3c:_strtox
ffc:_handle_id3v2
iua:__ZL18g_initializePluginP9lua_State
aFa:__ZN11b2RopeJointC2EPK14b2RopeJointDef
eCd:__ZNSt3__218__libcpp_refstringC2ERKS0_
$rb:_g_clearerr
Dgd:__ZNSt3__213basic_ostreamIwNS_11char_traitsIwEEElsEx
eHc:_load_epilogue
Ewb:_png_colorspace_sync_info
WVa:__ZN10MeshBinder8getIndexEP9lua_State
I9c:__ZNSt3__212future_errorD0Ev
NTb:_unztell
JDc:_mread
Ae:_SDL_GetClipRect
xUa:__ZN11AudioBinder12Sound_createEP9lua_State
CGc:_get_sequence
Iwc:_cff_property_get
vHd:__ZNSt3__212basic_stringIwNS_11char_traitsIwEENS_9allocatorIwEEE9push_backEw
gEc:_disable_continue_fx
pY:__ZN11TextureBaseD0Ev
Zsd:__ZNKSt3__220__codecvt_utf8_utf16IDiE10do_unshiftER11__mbstate_tPcS4_RS4_
Jlb:__ZNSt3__26__treeINS_12__value_typeImPN14GGSoundManager7ChannelEEENS_19__map_value_compareImS5_NS_4lessImEELb1EEENS_9allocatorIS5_EEEC2ERKS9_
jA:_glfwDestroyMutex
IKb:_emit_lse_ict
TTc:___cos
nod:__ZNSt3__214__ptr_in_rangeIwEEbPKT_S3_S3_
fV:__ZNSt3__26vectorIhNS_9allocatorIhEEE6resizeEjRKh
rgd:__ZNSt3__213basic_ostreamIwNS_11char_traitsIwEEE4swapERS3_
zwd:__ZNSt3__29money_getIcNS_19istreambuf_iteratorIcNS_11char_traitsIcEEEEEC2Ej
Uua:__Z5b2MaxIfET_S0_S0_
SK:__ZNSt3__214__split_bufferIP6SpriteRNS_9allocatorIS2_EEED2Ev
MGa:__ZN16b2ParticleSystem11SolveSpringERK10b2TimeStep
Mab:__ZN14EventBinderMap6removeEiP12CppLuaBridge
CGd:__ZNSt3__212basic_stringIwNS_11char_traitsIwEENS_9allocatorIwEEE15__set_long_sizeEj
Omd:__ZNKSt3__210moneypunctIwLb0EE16do_decimal_pointEv
qAa:__ZN16b2BlockAllocatorC2Ev
hda:__ZNK7Matrix414transformPointEfffPfS0_S0_
FI:__ZN9Particles4tickEv
mea:__ZNSt3__214__split_bufferIPN12ShaderEngine7ScissorERNS_9allocatorIS3_EEED2Ev
Zwd:__ZNSt3__215messages_bynameIwEC2EPKcj
n6:__ZNSt3__26__treeIP5TimerNS_4lessIS2_EENS_9allocatorIS2_EEEC2ERKS4_
rv:_emscripten_vr_get_eye_parameters
Sfc:_mpg123_timeframe
TFb:_jpeg_abort_decompress
hy:_glGetBufferParameteriv
a4b:__ZL17start_captureUTF8P14MatchStateUTF8PKcS2_i
hBc:_Mac_Read_POST_Resource
wQ:__ZNSt3__25dequeI5ColorNS_9allocatorIS1_EEE8pop_backEv
F3c:_fcvt
sWc:___overflow
PL:__ZNSt3__26__treeINS_12__value_typeIi14GStatusElementEENS_19__map_value_compareIiS3_NS_4lessIiEELb1EEENS_9allocatorIS3_EEEC2ERKS7_
dlb:_gevent_Flush
MTd:_memset
rWc:___pthread_self_606
bj:___syscall218
cj:___syscall219
dKb:_jpeg_fdct_5x10
I8c:__ZNSt3__224__libcpp_debug_exceptionD2Ev
Amd:__ZNKSt3__210moneypunctIcLb0EE13do_neg_formatEv
RDb:_png_write_sPLT
Drb:___sinit
Yi:___syscall210
Zi:___syscall211
_i:___syscall212
$i:___syscall213
aj:___syscall214
ZJ:__ZN9Particles8setAngleEif
bed:__ZNSt3__213basic_ostreamIcNS_11char_traitsIcEEE6sentryC2ERS3_
h9:__ZN6Sprite20getLayoutConstraintsEv
i8a:__ZN6Sprite17setShaderConstantENS_11ShaderParamE
FTa:__ZN5Pixel13clearGradientEv
h8:__ZN14TextureManager14destroyTextureEP11TextureData
E5:__ZN15EventDispatcherD2Ev
KNa:__ZN6b2Rope4StepEfi
m6c:_setresgid
Buc:_cf2_blues_capture
HRd:__ZN10__cxxabiv112_GLOBAL__N_110save_valueIjEC2ERj
V1a:__ZN12Box2DBinder227b2RevoluteJoint_enableLimitEP9lua_State
AG:init_emval
KGc:_scan_sequences
oXb:_lua_rawgeti
sAc:_ft_hash_num_lookup
sUc:_logbl
c9b:__ZN6snappy13RawUncompressEPNS_6SourceEPc
uT:__ZNSt3__212basic_stringIiNS_11char_traitsIiEENS_9allocatorIiEEE6appendEji
Tyb:_png_get_user_chunk_ptr
U5:__ZN15EventDispatcher12removeTargetEPS_
Vub:_z_adler32_combine64
bsa:__ZN10emscripten8internal11BindingTypeIiE12fromWireTypeEi
Yad:__ZNSt3__211char_traitsIwE4copyEPwPKwj
Ggd:__ZNSt3__213basic_ostreamIwNS_11char_traitsIwEEElsEd
wr:_emscripten_glGenFramebuffers
oAa:__ZN6b2Draw11AppendFlagsEj
Vid:__ZNSt3__214__scan_keywordINS_19istreambuf_iteratorIcNS_11char_traitsIcEEEEPKNS_12basic_stringIcS3_NS_9allocatorIcEEEENS_5ctypeIcEEEET0_RT_SE_SD_SD_RKT1_Rjb
A1c:___freadptrinc
Ckd:__ZNKSt3__28time_getIcNS_19istreambuf_iteratorIcNS_11char_traitsIcEEEEE12__get_secondERiRS4_S4_RjRKNS_5ctypeIcEE
UDd:__ZNSt3__212basic_stringIcNS_11char_traitsIcEENS_9allocatorIcEEEpLENS_17basic_string_viewIcS2_EE
bRd:__ZN10__cxxabiv112_GLOBAL__N_121parse_floating_numberIdNS0_2DbEEEPKcS4_S4_RT0_
sBb:_png_read_finish_IDAT
Dfa:__ZNSt3__26__treeIP20gl2ShaderBufferCacheNS_4lessIS2_EENS_9allocatorIS2_EEE25__emplace_unique_key_argsIS2_JS2_EEENS_4pairINS_15__tree_iteratorIS2_PNS_11__tree_nodeIS2_PvEEiEEbEERKT_DpOT0_
Gad:__ZNSt3__215basic_streambufIcNS_11char_traitsIcEEE6xsputnEPKci
PEa:__ZN6b2BodyC2EPK9b2BodyDefP7b2World
Azc:_FT_Tan
EWc:_getresgid
VWb:_lua_objlen
hQc:___munmap
Jaa:__ZNSt3__212__deque_baseI7Matrix4NS_9allocatorIS1_EEE3endEv
S9b:_INT123_compat_close
__b:__ZL7DumpIntiP9DumpState
SQb:___gl_noEndData
Tqc:_Ins_AND
ZJa:__ZN16b2ParticleSystem18BodyContactCompareERK21b2ParticleBodyContactS2_
Ljd:__ZNSt3__29__num_putIcE21__widen_and_group_intEPcS2_S2_S2_RS2_S3_RKNS_6localeE
zc:invoke_viiiiiiiii
Kpc:_Ins_SRP0
I7:__ZN11TextureData2idEv
I$c:_match_in_dir
Njc:_sfnt_init_face
bEb:_png_write_row
hwb:_png_save_int_32
$Ka:__ZN16b2ParticleSystem15DestroyParticleEi
NIc:__ZN10emscripten8internal6TypeIDIdE3getEv
tSc:_erfcf
WCb:_png_permit_mng_features
F3a:__ZN6b2Body10ApplyForceERK6b2Vec2S2_b
KJa:__ZltRKN16b2ParticleSystem5ProxyES2_
idc:_INT123_synth_1to1_8bit
lLb:_jpeg_make_c_derived_tbl
vSc:_erfcl
FIa:__ZNK15b2ParticleGroup13GetGroupFlagsEv
keb:_block_trim_used
NId:__ZNKSt3__212basic_stringIwNS_11char_traitsIwEENS_9allocatorIwEEE17find_first_not_ofERKS5_j
pnc:_af_cjk_snap_width
opa:__ZNSt3__23mapImPN12_GLOBAL__N_121GGStreamOpenALManager5SoundENS_4lessImEENS_9allocatorINS_4pairIKmS4_EEEEED2Ev
Btb:_z__tr_flush_block
zD:_pthread_attr_setstacksize
Ynd:__ZNSt3__29money_getIcNS_19istreambuf_iteratorIcNS_11char_traitsIcEEEEED2Ev
nec:_INT123_open_stream
Vl:_alBufferi
Sj:___syscall51
Z_:__Z5qAsind
Uj:___syscall57
gea:__ZNSt3__25dequeIN12ShaderEngine7ScissorENS_9allocatorIS2_EEE9push_backERKS2_
Tj:___syscall54
xg:_SDL_mutexP
tfd:__ZNSt3__213basic_istreamIwNS_11char_traitsIwEEE3getEPwi
lza:__ZN11b2RopeJoint4DumpEv
Gsd:__ZNKSt3__215__codecvt_utf16IDiLb1EE5do_inER11__mbstate_tPKcS5_RS5_PDiS7_RS7_
SV:__ZN11Application11renderSceneEi
yg:_SDL_mutexV
cfc:_INT123_compute_bpf
Glb:__ZN14GGSoundManagerC2Ev
YLb:_h2v2_smooth_downsample
Nya:__ZN12b2MotorJoint24SolveVelocityConstraintsERK12b2SolverData
oSc:_erfc1
n7b:__ZN8pystring4joinERKNSt3__212basic_stringIcNS0_11char_traitsIcEENS0_9allocatorIcEEEERKNS0_6vectorIS6_NS4_IS6_EEEE
ZVd:_glGetUniformLocation__wrapper
ERd:__ZN10__cxxabiv112_GLOBAL__N_111string_pairC2ILj19EEERAT__Kc
dVa:__ZN11AudioBinder25Sound_setListenerPositionEP9lua_State
we:_SDL_GL_SwapBuffers
Vod:__ZNSt3__2L12utf8_to_ucs4EPKhS1_RS1_PjS3_RS3_mNS_12codecvt_modeE
D6:__ZN14TimerContainer8addTimerEP5Timerd
mgd:__ZNSt3__213basic_ostreamIwNS_11char_traitsIwEEEC2EPNS_15basic_streambufIwS2_EE
bEc:_mod_test
jwc:_remove_subset_prefix
he:_SDL_DisplayFormatAlpha
Eqc:_Ins_MD
eha:__ZTv0_n12_NSt3__219basic_ostringstreamIcNS_11char_traitsIcEENS_9allocatorIcEEED0Ev
dPd:__ZN10__cxxabiv112_GLOBAL__N_15arenaILj4096EE10deallocateEPcj
Nxc:_psh_hint_align
vvd:__ZNKSt3__210moneypunctIcLb0EE11curr_symbolEv
YTc:___cosdf
INb:__ZNSt3__214__split_bufferIPP12QueueElementRNS_9allocatorIS3_EEE18__construct_at_endINS_13move_iteratorIPS3_EEEENS_9enable_ifIXsr21__is_forward_iteratorIT_EE5valueEvE4typeESD_SD_
Rvc:_cff_builder_add_point1
Ug:_XPending
Ygd:__ZNSt3__28ios_base6xallocEv
O$:__ZNSt3__23mapIiNS_6vectorIPN9MovieClip5FrameENS_9allocatorIS4_EEEENS_4lessIiEENS5_INS_4pairIKiS7_EEEEEixERSB_
Jic:_tt_cmap12_next
rIa:__ZZN16b2ParticleSystem20UpdatePairsAndTriadsEiiRKNS_16ConnectionFilterEEN20UpdateTriadsCallbackD0Ev
Jib:__ZNSt3__26__treeINS_12__value_typeINS_6vectorIcNS_9allocatorIcEEEEPN9g_private14TextureElementEEENS_19__map_value_compareIS5_S9_NS_4lessIS5_EELb1EEENS3_IS9_EEE16__construct_nodeIJRKNS_21piecewise_construct_tENS_5tupleIJRKS5_EEENSK_IJEEEEEENS_10unique_ptrINS_11__tree_nodeIS9_PvEENS_22__tree_node_destructorINS3_ISS_EEEEEEDpOT_
Ta:invoke_iiiiiiiiii
FXc:_ptsname
KMc:_memchr
dSc:_asinhf
u6a:__ZN16BitmapDataBinder8destructEP9lua_State
Zaa:__ZNSt3__214__split_bufferIP9_cliprectRNS_9allocatorIS2_EEE9push_backEOS2_
eSc:_asinhl
_M:__ZNK9StopWatch8isPausedEv
JI:__ZN11Application17getTimerContainerEv
Ija:__ZN14NetworkManager4playERKNSt3__26vectorIcNS0_9allocatorIcEEEE
AYa:__ZN15MovieClipBinder8getFrameEP9lua_State
gqc:_Ins_UTP
Itb:_send_tree
Uda:__ZN12ShaderEngine13getProjectionEv
k_b:__ZL9prefixexpP8LexStateP7expdesc
Dwb:_png_gamma_significant
u3:__ZNSt3__26__treeINS_12__value_typeIiN8TTBMFont12TextureGlyphEEENS_19__map_value_compareIiS4_NS_4lessIiEELb1EEENS_9allocatorIS4_EEE16__construct_nodeIJRKNS_21piecewise_construct_tENS_5tupleIJRKiEEENSG_IJEEEEEENS_10unique_ptrINS_11__tree_nodeIS4_PvEENS_22__tree_node_destructorINS9_ISO_EEEEEEDpOT_
GN:__ZNSt3__26vectorIhNS_9allocatorIhEEE8allocateEj
MG:runDestructor
Prc:_Round_Up_To_Grid
SMd:__ZNSt3__26vectorIPNS_17__assoc_sub_stateENS_18__hidden_allocatorIS2_EEE21__push_back_slow_pathIRKS2_EEvOT_
U$b:_lua_close
Dva:__ZNK14b2PolygonShape7RayCastEP15b2RayCastOutputRK14b2RayCastInputRK11b2Transformi
N_b:__ZL13LoadConstantsP9LoadStateP5Proto
o7c:__ZNSt3__218__insertion_sort_3IRNS_6__lessIiiEEPiEEvT0_S5_T_
Qpd:__ZNSt3__214collate_bynameIwED0Ev
hS:__ZNSt3__214__split_bufferI4RectRNS_9allocatorIS1_EEED2Ev
Nqa:__ZNSt3__26__treeIPN21GGSampleOpenALManager7ChannelENS_4lessIS3_EENS_9allocatorIS3_EEED2Ev
Prd:__ZNSt3__2L15utf16be_to_ucs4EPKhS1_RS1_PjS3_RS3_mNS_12codecvt_modeE
Qe:_SDL_GetWindowSize
v8c:__ZNSt3__26chrono12system_clock3nowEv
iJd:__ZNSt3__212basic_stringIwNS_11char_traitsIwEENS_9allocatorIwEEE19__copy_assign_allocERKS5_NS_17integral_constantIbLb1EEE
olc:_zcfree
uvc:_cff_parse_fixed_scaled
sxa:__Z7b2CrossfRK6b2Vec2
fOc:_iswpunct
$8b:__ZN6snappy8internal13WorkingMemoryD2Ev
wCa:__ZNK6b2Body13ShouldCollideEPKS_
$lb:__ZNSt3__26__treeIPN14GGSoundManager7ChannelENS_4lessIS3_EENS_9allocatorIS3_EEED2Ev
zGb:_set_bottom_pointers
TVd:_pthread_cond_broadcast__wrapper
eod:__ZNSt3__211__money_getIcE13__gather_infoEbRKNS_6localeERNS_10money_base7patternERcS8_RNS_12basic_stringIcNS_11char_traitsIcEENS_9allocatorIcEEEESF_SF_SF_Ri
ozd:__ZNSt3__26locale5__imp12install_fromINS_5ctypeIwEEEEvRKS1_
FOb:__ZL16Unpack5554ColourPK17AMTC_BLOCK_STRUCTPA4_i
jTa:__ZN11PixelBinder6createEP9lua_State
Uba:__ZN14ColorTransform17setBlueMultiplierEf
vEb:_png_set_filter_heuristics_fixed
Hm:_alGetString
u$:__ZNSt3__26__treeINS_12__value_typeIiiEENS_19__map_value_compareIiS2_NS_4lessIiEELb1EEENS_9allocatorIS2_EEEC2ERKS6_
vUc:_lrintf
_cb:__ZNK14LuaApplication14getImageScalesEv
vIc:__ZN10emscripten8internal6TypeIDINS_11memory_viewIjEEE3getEv
vt:_emscripten_glVertexAttribDivisorNV
UPa:___cxx_global_var_init_1_85
a_c:___lookup_name
Apa:_GGSampleOpenALManagerCreate
eAd:__ZNSt3__215numpunct_bynameIcEC2EPKcj
CAb:_png_inflate
O$c:_globfree
Zxc:_ft_corner_orientation
dwa:__ZNK13b2CircleShape11ComputeAABBEP6b2AABBRK11b2Transformi
KEc:_alloc_voice
Pcb:__ZN14LuaApplication16enableExceptionsEv
pVc:_tgamma
T6a:__ZN12SpriteBinder11removeChildEP9lua_State
HPc:_fesetexceptflag
zyc:_psh_globals_destroy
Wjb:__ZNSt3__23setIPN9g_private14TextureManager18TempTextureElementENS_4lessIS4_EENS_9allocatorIS4_EEED2Ev
pMd:__ZNSt3__212system_errorC2ENS_10error_codeEPKc
Jmc:_af_shaper_buf_create
dI:FUNCTION_TABLE_viiiddi
Uac:_free_id3_text
Sbd:__ZNSt3__29basic_iosIcNS_11char_traitsIcEEEC2EPNS_15basic_streambufIcS2_EE
u0a:__ZThn508_N11b2DebugDraw13DrawTransformERK11b2Transform
pEd:__ZNSt3__212basic_stringIcNS_11char_traitsIcEENS_9allocatorIcEEE6insertEjNS_17basic_string_viewIcS2_EE
LEc:_mixer_setpatch
rI:stackAlloc
Pmc:_FT_Get_Advances
xo:_eglGetCurrentDisplay
Wmc:_FT_Render_Glyph_Internal
Ebc:_mpg123_framedata
vvc:_do_fixed
PNc:___isprint_l
Y$b:_lua_setprintfunc
Jhb:_gtexture_set_screenmanager
fA:_glfwCreateCond
DTa:__ZN5Pixel8getColorERfS0_S0_S0_
Nk:__emscripten_atomic_fetch_and_add_u64
oia:__ZL11delete_pathP4path
APa:__ZdvRK6b2Vec2f
_k:__emval_call_method
KWc:_stat
usd:__ZNSt3__2L15utf16le_to_ucs2EPKhS1_RS1_PtS3_RS3_mNS_12codecvt_modeE
GDd:__ZNSt3__212basic_stringIcNS_11char_traitsIcEENS_9allocatorIcEEE11__recommendEj
AJ:__ZNSt3__214__split_bufferItRNS_9allocatorItEEED2Ev
arc:_Ins_MUL
vJd:__ZNSt3__212_GLOBAL__N_110as_integerIiNS_12basic_stringIwNS_11char_traitsIwEENS_9allocatorIwEEEEEET_RKNS2_IcNS3_IcEENS5_IcEEEERKT0_Pji
hNd:__ZL25default_terminate_handlerv
r_b:__ZL12singlevarauxP9FuncStateP7TStringP7expdesci
Phc:_Line_Down
Gcb:__ZN14LuaApplication4tickEP7GStatus
x6:__ZN14TimerContainerD2Ev
Aab:__ZNSt3__26__treeINS_12__value_typeIiNS_6vectorIP12CppLuaBridgeNS_9allocatorIS4_EEEEEENS_19__map_value_compareIiS8_NS_4lessIiEELb1EEENS5_IS8_EEE16__construct_nodeIJRKNS_21piecewise_construct_tENS_5tupleIJRKiEEENSJ_IJEEEEEENS_10unique_ptrINS_11__tree_nodeIS8_PvEENS_22__tree_node_destructorINS5_ISR_EEEEEEDpOT_
Sfb:__Z11aes_decryptPKhPhiS0_S0_i
Vwd:__ZNKSt3__28messagesIwE3getEiiiRKNS_12basic_stringIwNS_11char_traitsIwEENS_9allocatorIwEEEE
iIb:_null_convert
Lrb:___sflush_locked
h3:__ZNSt3__26__treeINS_12__value_typeIiiEENS_19__map_value_compareIiS2_NS_4lessIiEELb1EEENS_9allocatorIS2_EEE16__construct_nodeIJRKNS_21piecewise_construct_tENS_5tupleIJOiEEENSE_IJEEEEEENS_10unique_ptrINS_11__tree_nodeIS2_PvEENS_22__tree_node_destructorINS7_ISL_EEEEEEDpOT_
g0c:_tre_set_one
Xa:invoke_iiiiiiiiiiii
phd:__ZNSt3__211__stdoutbufIwE5imbueERKNS_6localeE
_0b:__ZL10luaB_pairsP9lua_State
voc:_FT_List_Finalize
CF:_utimes
Mpb:__ZNK11GReferenced8refCountEv
MFa:__ZN8b2Island5SolveEP9b2ProfileRK10b2TimeStepRK6b2Vec2b
jyc:_ps_mask_set_bit
VB:_inet_addr
jv:_emscripten_vr_count_displays
XQ:__ZN5GMesh14setVertexArrayEPKfj
uQ:__ZNSt3__214__split_bufferIP5ColorRNS_9allocatorIS2_EEE10push_frontERKS2_
n9b:__ZN6snappy17SnappyArrayWriter14AppendFromSelfEjj
gXc:_vsscanf
bMc:___crypt_des
LBd:__ZNKSt3__223__match_any_but_newlineIcE6__execERNS_7__stateIcEE
Iua:__ZNK11b2EdgeShape9TestPointERK11b2TransformRK6b2Vec2
jlc:_inflate_trees_bits
ufa:__ZNSt3__26vectorIcNS_9allocatorIcEEEC2Ej
DMb:_jpeg_set_colorspace
a6:__ZNSt3__26__treeIP15EventDispatcherNS_4lessIS2_EENS_9allocatorIS2_EEEC2ERKS4_
Ba:invoke_iii
RGb:_jpeg_make_d_derived_tbl
Ay:_glGetTexParameteriv
AS:__ZNK15MaxRectsBinPack32FindPositionForNewNodeBottomLeftEiiRiS0_
xGc:_set_lfo_rate
_da:__ZN12ShaderEngine8pushClipEffff
iy:_glGetError
SXc:_closelog
pyd:__ZNSt3__26locale5__imp7installEPNS0_5facetEl
mL:__ZN5Stage7mouseUpEiiiiffff
wsb:__ZNSt3__26__treeINS_12__value_typeIi5DriveEENS_19__map_value_compareIiS3_NS_4lessIiEELb1EEENS_9allocatorIS3_EEE5clearEv
g3c:_swscanf
j$c:_mrand48
vdc:_INT123_synth_ntom_real
lFb:_get_soi
tgc:_mpg123_plain_strerror
RKa:__ZZN16b2ParticleSystem11SolveZombieEvEN4Test13IsPairInvalidERKNS_4PairE
Jp:_emscripten_get_callstack
KJc:___stdio_seek
vIa:__ZN16b2VoronoiDiagram12NodeCallbackD0Ev
Gcd:__ZNKSt3__29basic_iosIwNS_11char_traitsIwEEE4fillEv
nLa:__ZNK16b2ParticleSystem7RayCastEP17b2RayCastCallbackRK6b2Vec2S4_
uLb:_emit_ac_symbol
iuc:_cf2_stack_pushFixed
AD:_pthread_barrier_destroy
D2:__ZN8FontBase8FontSpecC2ERKS0_
Acc:_I_step_two
Aha:__ZL12corner_startP12kvec_float_tfff
zCc:_FT_New_Memory
lPa:__ZZN16b2ParticleSystem18JoinParticleGroupsEP15b2ParticleGroupS1_ENK24JoinParticleGroupsFilter16ShouldCreatePairEii
Qj:___syscall42
MJa:__ZNSt3__27__sort4IRNS_6__lessIN16b2ParticleSystem5ProxyES3_EEPS3_EEjT0_S7_S7_S7_T_
Deb:__ZN11GReferenced7setDataEPvPS_
JVb:_luaO_log2
$2:__ZN8TTBMFont13getLineHeightEv
Faa:__ZNSt3__212__deque_baseI7Matrix4NS_9allocatorIS1_EEED2Ev
Kac:_INT123_fi_resize
ydc:_INT123_synth_1to1_m2s
LGa:__ZN16b2ParticleSystem12SolveElasticERK10b2TimeStep
wma:_ginput_setMouseToTouchEnabled
s7a:__ZN12SpriteBinder4setZEP9lua_State
cW:__ZN11Application7mouseUpEiiii
ff:_SDL_JoystickIndex
y2b:__ZL11read_numberP9lua_StateP8g__sFILE
kKb:_jpeg_abort_compress
Bxd:__ZNSt3__212_GLOBAL__N_14makeINS_7codecvtIDic11__mbstate_tEEjEERT_T0_
quc:_cf2_hintmap_build
RXc:_setlogmask
QQb:___gl_noEdgeFlagData
Z2b:__ZL4LdivP9lua_State
oJ:__ZNSt3__26vectorINS_12basic_stringIcNS_11char_traitsIcEENS_9allocatorIcEEEENS4_IS6_EEE18__construct_at_endEj
o5c:_tcflush
C2a:__ZL9toFixtureRK6Binderi
J$a:__ZN12Box2DBinder221b2Contact_setFrictionEP9lua_State
w4c:_strlcpy
Ohc:_Line_Up
Rnb:__ZN14GGAudioManager26BackgroundChannelGetVolumeEm
bHb:_process_restart
El:__read_sockaddr
LYa:__ZNSt3__214__split_bufferI9ParameterRNS_9allocatorIS1_EEED2Ev
DPa:__ZNK16b2ParticleSystem22ComputeCollisionEnergyEv
p7c:__ZNSt3__227__insertion_sort_incompleteIRNS_6__lessIiiEEPiEEbT0_S5_T_
gzc:_FT_Stroker_Done
Q2c:_putchar_unlocked
vq:_emscripten_glBufferSubData
kSd:runPostSets7
vHb:_jpeg_idct_14x7
BJa:__ZNSt3__26__sortIRPFbRKN12_GLOBAL__N_115LightweightPairIiiEES5_EPS3_EEvT0_SA_T_
BMc:___lockfile
HL:__ZN13KeyboardEventC2ERK9EventTypeIS_EiiNSt3__212basic_stringIcNS4_11char_traitsIcEENS4_9allocatorIcEEEE
wZa:__ZN17ApplicationBinder18getBackgroundColorEP9lua_State
EVc:___tandf
Vwc:_cff_set_var_design
cLa:__ZN16b2ParticleSystem13RequestBufferI6b2Vec2EEPT_S3_
Usd:__ZNSt3__2L13utf8_to_utf16EPKhS1_RS1_PjS3_RS3_mNS_12codecvt_modeE
Xeb:_BlockCopy
Gxd:__ZNSt3__26locale5__imp7installINS_8numpunctIwEEEEvPT_
eEd:__ZNKSt3__212basic_stringIcNS_11char_traitsIcEENS_9allocatorIcEEE5frontEv
Fhc:_Insert_Y_Turn
kxd:__ZNKSt3__220__vector_base_commonILb1EE20__throw_out_of_rangeEv
Edc:_INT123_synth_2to1_real_m2s
iH:FUNCTION_TABLE_diiiiid
Ysb:_gpath_transform
pga:__ZNSt3__214__split_bufferIN13ShaderProgram12ConstantDescERNS_9allocatorIS2_EEEC2EjjS5_
ma:ftCall_diidi
ora:_g_setFps
qq:_emscripten_glBlendEquation
TZb:__ZL4llexP8LexStateP7SemInfo
dKa:__ZNK9b2Fixture15ComputeDistanceERK6b2Vec2PfPS0_i
ea:ftCall_di
e5:__ZNSt3__26vectorINS0_I6Point2IfENS_9allocatorIS2_EEEENS3_IS5_EEE8allocateEj
xvc:_cff_parse_integer
$Bb:_png_set_alpha_mode_fixed
YVc:_pipe2
Uxd:__ZNSt3__26locale5__imp7installINS_10moneypunctIwLb0EEEEEvPT_
aW:__ZN11Application20correctTouchPositionEPiS0_
pra:__Z6g_exitv
fub:_z_inflateEnd
$Ob:__ZNK17CPVRTResourceFile6IsOpenEv
C7b:__ZN8pystring5titleERKNSt3__212basic_stringIcNS0_11char_traitsIcEENS0_9allocatorIcEEEE
bta:_gui_createAlertDialog
Oba:__ZN6Sprite18setAlphaMultiplierEf
vX:__ZNSt3__214__split_bufferIP11GReferencedRNS_9allocatorIS2_EEEC2EjjS5_
Dbb:__ZN16EventTypeVisitor5visitEP11LayoutEvent
bxa:__ZN24b2ChainAndPolygonContactD0Ev
YXa:__ZL6encodePKc
Ckc:_tt_sbit_decoder_load_bit_aligned
O5:__ZNSt3__26__treeIP15EventDispatcherNS_4lessIS2_EENS_9allocatorIS2_EEED2Ev
Bw:_getpwent
HGb:_decompress_onepass
Lx:_glDrawElementsInstancedARB
Cqa:__ZNSt3__26__treeINS_12__value_typeImPN21GGSampleOpenALManager7ChannelEEENS_19__map_value_compareImS5_NS_4lessImEELb1EEENS_9allocatorIS5_EEE16__insert_node_atEPNS_15__tree_end_nodeIPNS_16__tree_node_baseIPvEEEERSH_SH_
ikb:__ZN19gevent_CallbackList14equal_callbackC2ERKNS_8CallbackE
YNa:__ZN16b2ParticleSystem12RotateBufferEiii
lca:__ZNK6Sprite1yEv
pbd:__ZTv0_n12_NSt3__213basic_ostreamIwNS_11char_traitsIwEEED1Ev
m3a:__ZN12Box2DBinder216b2Body_setBulletEP9lua_State
Jla:__ZNSt3__26vectorIP17ginput_TouchEventNS_9allocatorIS2_EEE21__push_back_slow_pathIRKS2_EEvOT_
XEa:__ZN7b2Joint6CreateEPK10b2JointDefP16b2BlockAllocator
YNb:__ZN6ClientC2EPKct
sjd:__ZNKSt3__27num_getIwNS_19istreambuf_iteratorIwNS_11char_traitsIwEEEEE15__do_get_signedIxEES4_S4_S4_RNS_8ios_baseERjRT_
GPd:__ZN10__cxxabiv112_GLOBAL__N_119parse_template_argsINS0_2DbEEEPKcS4_S4_RT_
k$:__ZL15easeOutInBouncedd
dCd:__ZNSt11logic_errorC2ERKS_
fQb:__ZN11CPVRTStringpLEc
wad:__ZNSt3__215basic_streambufIcNS_11char_traitsIcEEE5imbueERKNS_6localeE
Fld:__ZThn8_NKSt3__215time_get_bynameIcNS_19istreambuf_iteratorIcNS_11char_traitsIcEEEEE3__rEv
LHa:__ZN16b2ParticleSystem16ConnectionFilterD2Ev
Klb:__ZNSt3__23mapImPN14GGSoundManager7ChannelENS_4lessImEENS_9allocatorINS_4pairIKmS3_EEEEED2Ev
Hs:_emscripten_glStencilMaskSeparate
Sgb:_gtimer_stopAll
joa:__ZN12_GLOBAL__N_121GGStreamOpenALManager8postTickEv
VAd:__ZNSt3__221recursive_timed_mutex4lockEv
lA:_glfwDisable
q8c:__ZNSt3__28__rs_getEv
CDd:__ZNSt3__212basic_stringIcNS_11char_traitsIcEENS_9allocatorIcEEE6appendEjc
jZ:__ZNSt3__214__split_bufferIdRNS_9allocatorIdEEED2Ev
Eub:_z_inflateGetHeader
ML:__GLOBAL__sub_I_gstatus_cpp
F6:__ZNK5Timer5delayEv
E2b:__ZL11io_readlineP9lua_State
jFa:__ZN15b2RevoluteJointC2EPK18b2RevoluteJointDef
PE:_setgrent
dr:_emscripten_glDrawArraysInstancedEXT
fCd:__ZNKSt3__218__libcpp_refstring15__uses_refcountEv
Kqb:__ZNSt3__214__split_bufferI8GGPluginRNS_9allocatorIS1_EEED2Ev
Tsc:_TT_Get_MM_Blend
Lg:_TTF_RenderText_Solid
owa:__ZN17b2ContactListenerD0Ev
Saa:__ZNSt3__212__deque_baseI9_cliprectNS_9allocatorIS1_EEE3endEv
MY:__ZN6ScreenC2EP11Application
Kkc:_sfnt_find_encoding
ved:__ZNSt3__213basic_istreamIcNS_11char_traitsIcEEErsERe
DCc:_FT_Done_Memory
iP:__ZNSt3__26__treeINS_12__value_typeINS_12basic_stringIcNS_11char_traitsIcEENS_9allocatorIcEEEEiEENS_19__map_value_compareIS7_S8_NS_4lessIS7_EELb1EEENS5_IS8_EEE16__construct_nodeIJRKNS_21piecewise_construct_tENS_5tupleIJOS7_EEENSJ_IJEEEEEENS_10unique_ptrINS_11__tree_nodeIS8_PvEENS_22__tree_node_destructorINS5_ISQ_EEEEEEDpOT_
$vd:__ZNKSt3__210moneypunctIwLb1EE13negative_signEv
o5:__ZNSt3__25dequeI9BlendFuncNS_9allocatorIS1_EEE19__add_back_capacityEv
ped:__ZNSt3__213basic_istreamIcNS_11char_traitsIcEEErsERl
AR:__ZNK6Bitmap11extraBoundsEPfS0_S0_S0_
oed:__ZNSt3__213basic_istreamIcNS_11char_traitsIcEEErsERj
M1b:__ZL11db_setlocalP9lua_State
ned:__ZNSt3__213basic_istreamIcNS_11char_traitsIcEEErsERi
Dcd:__ZNKSt3__29basic_iosIwNS_11char_traitsIwEEE5rdbufEv
Hoa:__ZNSt3__26__treeINS_12__value_typeImPN12_GLOBAL__N_121GGStreamOpenALManager5SoundEEENS_19__map_value_compareImS6_NS_4lessImEELb1EEENS_9allocatorIS6_EEE16__construct_nodeIJRKNS_21piecewise_construct_tENS_5tupleIJRKmEEENSI_IJEEEEEENS_10unique_ptrINS_11__tree_nodeIS6_PvEENS_22__tree_node_destructorINSB_ISQ_EEEEEEDpOT_
Ty:_glLoadIdentity
Krd:__ZNKSt3__215__codecvt_utf16IwLb0EE11do_encodingEv
led:__ZNSt3__213basic_istreamIcNS_11char_traitsIcEEErsERs
GXb:_lua_load
QHd:__ZNSt3__212basic_stringIwNS_11char_traitsIwEENS_9allocatorIwEEE6insertEjjw
